   1               		.file	"master.c"
   2               	__SREG__ = 0x3f
   3               	__SP_H__ = 0x3e
   4               	__SP_L__ = 0x3d
   5               	__CCP__  = 0x34
   6               	__tmp_reg__ = 0
   7               	__zero_reg__ = 1
  15               	.Ltext0:
  16               	.global	delay
  18               	delay:
  19               	.LFB6:
  20               	.LM1:
  21 0000 DF93      		push r29
  22 0002 CF93      		push r28
  23 0004 CDB7      		in r28,__SP_L__
  24 0006 DEB7      		in r29,__SP_H__
  25 0008 6497      		sbiw r28,20
  26 000a 0FB6      		in __tmp_reg__,__SREG__
  27 000c F894      		cli
  28 000e DEBF      		out __SP_H__,r29
  29 0010 0FBE      		out __SREG__,__tmp_reg__
  30 0012 CDBF      		out __SP_L__,r28
  31               	/* prologue: function */
  32               	/* frame size = 20 */
  33 0014 698B      		std Y+17,r22
  34 0016 7A8B      		std Y+18,r23
  35 0018 8B8B      		std Y+19,r24
  36 001a 9C8B      		std Y+20,r25
  37 001c 00C0      		rjmp .L2
  38               	.L13:
  39               	.LM2:
  40 001e 188A      		std Y+16,__zero_reg__
  41 0020 1F86      		std Y+15,__zero_reg__
  42 0022 00C0      		rjmp .L3
  43               	.L12:
  44 0024 80E0      		ldi r24,lo8(0x41200000)
  45 0026 90E0      		ldi r25,hi8(0x41200000)
  46 0028 A0E2      		ldi r26,hlo8(0x41200000)
  47 002a B1E4      		ldi r27,hhi8(0x41200000)
  48 002c 8B87      		std Y+11,r24
  49 002e 9C87      		std Y+12,r25
  50 0030 AD87      		std Y+13,r26
  51 0032 BE87      		std Y+14,r27
  52               	.LBB8:
  53               	.LBB9:
  54               	.LM3:
  55 0034 6B85      		ldd r22,Y+11
  56 0036 7C85      		ldd r23,Y+12
  57 0038 8D85      		ldd r24,Y+13
  58 003a 9E85      		ldd r25,Y+14
  59 003c 20E0      		ldi r18,lo8(0x457a0000)
  60 003e 30E0      		ldi r19,hi8(0x457a0000)
  61 0040 4AE7      		ldi r20,hlo8(0x457a0000)
  62 0042 55E4      		ldi r21,hhi8(0x457a0000)
  63 0044 0E94 0000 		call __mulsf3
  64 0048 DC01      		movw r26,r24
  65 004a CB01      		movw r24,r22
  66 004c 8F83      		std Y+7,r24
  67 004e 9887      		std Y+8,r25
  68 0050 A987      		std Y+9,r26
  69 0052 BA87      		std Y+10,r27
  70               	.LM4:
  71 0054 6F81      		ldd r22,Y+7
  72 0056 7885      		ldd r23,Y+8
  73 0058 8985      		ldd r24,Y+9
  74 005a 9A85      		ldd r25,Y+10
  75 005c 20E0      		ldi r18,lo8(0x3f800000)
  76 005e 30E0      		ldi r19,hi8(0x3f800000)
  77 0060 40E8      		ldi r20,hlo8(0x3f800000)
  78 0062 5FE3      		ldi r21,hhi8(0x3f800000)
  79 0064 0E94 0000 		call __ltsf2
  80 0068 8823      		tst r24
  81 006a 04F4      		brge .L17
  82               	.L15:
  83               	.LM5:
  84 006c 81E0      		ldi r24,lo8(1)
  85 006e 90E0      		ldi r25,hi8(1)
  86 0070 9E83      		std Y+6,r25
  87 0072 8D83      		std Y+5,r24
  88 0074 00C0      		rjmp .L6
  89               	.L17:
  90               	.LM6:
  91 0076 6F81      		ldd r22,Y+7
  92 0078 7885      		ldd r23,Y+8
  93 007a 8985      		ldd r24,Y+9
  94 007c 9A85      		ldd r25,Y+10
  95 007e 20E0      		ldi r18,lo8(0x477fff00)
  96 0080 3FEF      		ldi r19,hi8(0x477fff00)
  97 0082 4FE7      		ldi r20,hlo8(0x477fff00)
  98 0084 57E4      		ldi r21,hhi8(0x477fff00)
  99 0086 0E94 0000 		call __gtsf2
 100 008a 1816      		cp __zero_reg__,r24
 101 008c 04F4      		brge .L18
 102               	.L16:
 103               	.LM7:
 104 008e 6B85      		ldd r22,Y+11
 105 0090 7C85      		ldd r23,Y+12
 106 0092 8D85      		ldd r24,Y+13
 107 0094 9E85      		ldd r25,Y+14
 108 0096 20E0      		ldi r18,lo8(0x41200000)
 109 0098 30E0      		ldi r19,hi8(0x41200000)
 110 009a 40E2      		ldi r20,hlo8(0x41200000)
 111 009c 51E4      		ldi r21,hhi8(0x41200000)
 112 009e 0E94 0000 		call __mulsf3
 113 00a2 DC01      		movw r26,r24
 114 00a4 CB01      		movw r24,r22
 115 00a6 BC01      		movw r22,r24
 116 00a8 CD01      		movw r24,r26
 117 00aa 0E94 0000 		call __fixunssfsi
 118 00ae DC01      		movw r26,r24
 119 00b0 CB01      		movw r24,r22
 120 00b2 9E83      		std Y+6,r25
 121 00b4 8D83      		std Y+5,r24
 122 00b6 00C0      		rjmp .L9
 123               	.L10:
 124 00b8 80E9      		ldi r24,lo8(400)
 125 00ba 91E0      		ldi r25,hi8(400)
 126 00bc 9C83      		std Y+4,r25
 127 00be 8B83      		std Y+3,r24
 128               	.LBB10:
 129               	.LBB11:
 130               	.LM8:
 131 00c0 8B81      		ldd r24,Y+3
 132 00c2 9C81      		ldd r25,Y+4
 133               	/* #APP */
 134               	 ;  105 "d:/softwares/winavr/lib/gcc/../../avr/include/util/delay_basic.h" 1
 135 00c4 0197      		1: sbiw r24,1
 136 00c6 01F4      		brne 1b
 137               	 ;  0 "" 2
 138               	/* #NOAPP */
 139 00c8 9C83      		std Y+4,r25
 140 00ca 8B83      		std Y+3,r24
 141               	.LBE11:
 142               	.LBE10:
 143               	.LM9:
 144 00cc 8D81      		ldd r24,Y+5
 145 00ce 9E81      		ldd r25,Y+6
 146 00d0 0197      		sbiw r24,1
 147 00d2 9E83      		std Y+6,r25
 148 00d4 8D83      		std Y+5,r24
 149               	.L9:
 150               	.LM10:
 151 00d6 8D81      		ldd r24,Y+5
 152 00d8 9E81      		ldd r25,Y+6
 153 00da 0097      		sbiw r24,0
 154 00dc 01F4      		brne .L10
 155 00de 00C0      		rjmp .L11
 156               	.L18:
 157               	.LM11:
 158 00e0 6F81      		ldd r22,Y+7
 159 00e2 7885      		ldd r23,Y+8
 160 00e4 8985      		ldd r24,Y+9
 161 00e6 9A85      		ldd r25,Y+10
 162 00e8 0E94 0000 		call __fixunssfsi
 163 00ec DC01      		movw r26,r24
 164 00ee CB01      		movw r24,r22
 165 00f0 9E83      		std Y+6,r25
 166 00f2 8D83      		std Y+5,r24
 167               	.L6:
 168 00f4 8D81      		ldd r24,Y+5
 169 00f6 9E81      		ldd r25,Y+6
 170 00f8 9A83      		std Y+2,r25
 171 00fa 8983      		std Y+1,r24
 172               	.LBB12:
 173               	.LBB13:
 174               	.LM12:
 175 00fc 8981      		ldd r24,Y+1
 176 00fe 9A81      		ldd r25,Y+2
 177               	/* #APP */
 178               	 ;  105 "d:/softwares/winavr/lib/gcc/../../avr/include/util/delay_basic.h" 1
 179 0100 0197      		1: sbiw r24,1
 180 0102 01F4      		brne 1b
 181               	 ;  0 "" 2
 182               	/* #NOAPP */
 183 0104 9A83      		std Y+2,r25
 184 0106 8983      		std Y+1,r24
 185               	.L11:
 186               	.LBE13:
 187               	.LBE12:
 188               	.LBE9:
 189               	.LBE8:
 190               	.LM13:
 191 0108 8F85      		ldd r24,Y+15
 192 010a 9889      		ldd r25,Y+16
 193 010c 0196      		adiw r24,1
 194 010e 988B      		std Y+16,r25
 195 0110 8F87      		std Y+15,r24
 196               	.L3:
 197 0112 8F85      		ldd r24,Y+15
 198 0114 9889      		ldd r25,Y+16
 199 0116 8436      		cpi r24,100
 200 0118 9105      		cpc r25,__zero_reg__
 201 011a 04F4      		brge .+2
 202 011c 00C0      		rjmp .L12
 203               	.LM14:
 204 011e 6989      		ldd r22,Y+17
 205 0120 7A89      		ldd r23,Y+18
 206 0122 8B89      		ldd r24,Y+19
 207 0124 9C89      		ldd r25,Y+20
 208 0126 20E0      		ldi r18,lo8(0x3f800000)
 209 0128 30E0      		ldi r19,hi8(0x3f800000)
 210 012a 40E8      		ldi r20,hlo8(0x3f800000)
 211 012c 5FE3      		ldi r21,hhi8(0x3f800000)
 212 012e 0E94 0000 		call __subsf3
 213 0132 DC01      		movw r26,r24
 214 0134 CB01      		movw r24,r22
 215 0136 898B      		std Y+17,r24
 216 0138 9A8B      		std Y+18,r25
 217 013a AB8B      		std Y+19,r26
 218 013c BC8B      		std Y+20,r27
 219               	.L2:
 220 013e 6989      		ldd r22,Y+17
 221 0140 7A89      		ldd r23,Y+18
 222 0142 8B89      		ldd r24,Y+19
 223 0144 9C89      		ldd r25,Y+20
 224 0146 20E0      		ldi r18,lo8(0x0)
 225 0148 30E0      		ldi r19,hi8(0x0)
 226 014a 40E0      		ldi r20,hlo8(0x0)
 227 014c 50E0      		ldi r21,hhi8(0x0)
 228 014e 0E94 0000 		call __nesf2
 229 0152 8823      		tst r24
 230 0154 01F0      		breq .+2
 231 0156 00C0      		rjmp .L13
 232               	/* epilogue start */
 233               	.LM15:
 234 0158 6496      		adiw r28,20
 235 015a 0FB6      		in __tmp_reg__,__SREG__
 236 015c F894      		cli
 237 015e DEBF      		out __SP_H__,r29
 238 0160 0FBE      		out __SREG__,__tmp_reg__
 239 0162 CDBF      		out __SP_L__,r28
 240 0164 CF91      		pop r28
 241 0166 DF91      		pop r29
 242 0168 0895      		ret
 243               	.LFE6:
 245               	.global	delay_10ms
 247               	delay_10ms:
 248               	.LFB7:
 249               	.LM16:
 250 016a DF93      		push r29
 251 016c CF93      		push r28
 252 016e CDB7      		in r28,__SP_L__
 253 0170 DEB7      		in r29,__SP_H__
 254 0172 6297      		sbiw r28,18
 255 0174 0FB6      		in __tmp_reg__,__SREG__
 256 0176 F894      		cli
 257 0178 DEBF      		out __SP_H__,r29
 258 017a 0FBE      		out __SREG__,__tmp_reg__
 259 017c CDBF      		out __SP_L__,r28
 260               	/* prologue: function */
 261               	/* frame size = 18 */
 262 017e 6F87      		std Y+15,r22
 263 0180 788B      		std Y+16,r23
 264 0182 898B      		std Y+17,r24
 265 0184 9A8B      		std Y+18,r25
 266 0186 00C0      		rjmp .L20
 267               	.L29:
 268               	.LM17:
 269 0188 80E0      		ldi r24,lo8(0x41200000)
 270 018a 90E0      		ldi r25,hi8(0x41200000)
 271 018c A0E2      		ldi r26,hlo8(0x41200000)
 272 018e B1E4      		ldi r27,hhi8(0x41200000)
 273 0190 8B87      		std Y+11,r24
 274 0192 9C87      		std Y+12,r25
 275 0194 AD87      		std Y+13,r26
 276 0196 BE87      		std Y+14,r27
 277               	.LBB20:
 278               	.LBB21:
 279               	.LM18:
 280 0198 6B85      		ldd r22,Y+11
 281 019a 7C85      		ldd r23,Y+12
 282 019c 8D85      		ldd r24,Y+13
 283 019e 9E85      		ldd r25,Y+14
 284 01a0 20E0      		ldi r18,lo8(0x457a0000)
 285 01a2 30E0      		ldi r19,hi8(0x457a0000)
 286 01a4 4AE7      		ldi r20,hlo8(0x457a0000)
 287 01a6 55E4      		ldi r21,hhi8(0x457a0000)
 288 01a8 0E94 0000 		call __mulsf3
 289 01ac DC01      		movw r26,r24
 290 01ae CB01      		movw r24,r22
 291 01b0 8F83      		std Y+7,r24
 292 01b2 9887      		std Y+8,r25
 293 01b4 A987      		std Y+9,r26
 294 01b6 BA87      		std Y+10,r27
 295               	.LM19:
 296 01b8 6F81      		ldd r22,Y+7
 297 01ba 7885      		ldd r23,Y+8
 298 01bc 8985      		ldd r24,Y+9
 299 01be 9A85      		ldd r25,Y+10
 300 01c0 20E0      		ldi r18,lo8(0x3f800000)
 301 01c2 30E0      		ldi r19,hi8(0x3f800000)
 302 01c4 40E8      		ldi r20,hlo8(0x3f800000)
 303 01c6 5FE3      		ldi r21,hhi8(0x3f800000)
 304 01c8 0E94 0000 		call __ltsf2
 305 01cc 8823      		tst r24
 306 01ce 04F4      		brge .L33
 307               	.L31:
 308               	.LM20:
 309 01d0 81E0      		ldi r24,lo8(1)
 310 01d2 90E0      		ldi r25,hi8(1)
 311 01d4 9E83      		std Y+6,r25
 312 01d6 8D83      		std Y+5,r24
 313 01d8 00C0      		rjmp .L23
 314               	.L33:
 315               	.LM21:
 316 01da 6F81      		ldd r22,Y+7
 317 01dc 7885      		ldd r23,Y+8
 318 01de 8985      		ldd r24,Y+9
 319 01e0 9A85      		ldd r25,Y+10
 320 01e2 20E0      		ldi r18,lo8(0x477fff00)
 321 01e4 3FEF      		ldi r19,hi8(0x477fff00)
 322 01e6 4FE7      		ldi r20,hlo8(0x477fff00)
 323 01e8 57E4      		ldi r21,hhi8(0x477fff00)
 324 01ea 0E94 0000 		call __gtsf2
 325 01ee 1816      		cp __zero_reg__,r24
 326 01f0 04F4      		brge .L34
 327               	.L32:
 328               	.LM22:
 329 01f2 6B85      		ldd r22,Y+11
 330 01f4 7C85      		ldd r23,Y+12
 331 01f6 8D85      		ldd r24,Y+13
 332 01f8 9E85      		ldd r25,Y+14
 333 01fa 20E0      		ldi r18,lo8(0x41200000)
 334 01fc 30E0      		ldi r19,hi8(0x41200000)
 335 01fe 40E2      		ldi r20,hlo8(0x41200000)
 336 0200 51E4      		ldi r21,hhi8(0x41200000)
 337 0202 0E94 0000 		call __mulsf3
 338 0206 DC01      		movw r26,r24
 339 0208 CB01      		movw r24,r22
 340 020a BC01      		movw r22,r24
 341 020c CD01      		movw r24,r26
 342 020e 0E94 0000 		call __fixunssfsi
 343 0212 DC01      		movw r26,r24
 344 0214 CB01      		movw r24,r22
 345 0216 9E83      		std Y+6,r25
 346 0218 8D83      		std Y+5,r24
 347 021a 00C0      		rjmp .L26
 348               	.L27:
 349 021c 80E9      		ldi r24,lo8(400)
 350 021e 91E0      		ldi r25,hi8(400)
 351 0220 9C83      		std Y+4,r25
 352 0222 8B83      		std Y+3,r24
 353               	.LBB22:
 354               	.LBB23:
 355               	.LM23:
 356 0224 8B81      		ldd r24,Y+3
 357 0226 9C81      		ldd r25,Y+4
 358               	/* #APP */
 359               	 ;  105 "d:/softwares/winavr/lib/gcc/../../avr/include/util/delay_basic.h" 1
 360 0228 0197      		1: sbiw r24,1
 361 022a 01F4      		brne 1b
 362               	 ;  0 "" 2
 363               	/* #NOAPP */
 364 022c 9C83      		std Y+4,r25
 365 022e 8B83      		std Y+3,r24
 366               	.LBE23:
 367               	.LBE22:
 368               	.LM24:
 369 0230 8D81      		ldd r24,Y+5
 370 0232 9E81      		ldd r25,Y+6
 371 0234 0197      		sbiw r24,1
 372 0236 9E83      		std Y+6,r25
 373 0238 8D83      		std Y+5,r24
 374               	.L26:
 375               	.LM25:
 376 023a 8D81      		ldd r24,Y+5
 377 023c 9E81      		ldd r25,Y+6
 378 023e 0097      		sbiw r24,0
 379 0240 01F4      		brne .L27
 380 0242 00C0      		rjmp .L28
 381               	.L34:
 382               	.LM26:
 383 0244 6F81      		ldd r22,Y+7
 384 0246 7885      		ldd r23,Y+8
 385 0248 8985      		ldd r24,Y+9
 386 024a 9A85      		ldd r25,Y+10
 387 024c 0E94 0000 		call __fixunssfsi
 388 0250 DC01      		movw r26,r24
 389 0252 CB01      		movw r24,r22
 390 0254 9E83      		std Y+6,r25
 391 0256 8D83      		std Y+5,r24
 392               	.L23:
 393 0258 8D81      		ldd r24,Y+5
 394 025a 9E81      		ldd r25,Y+6
 395 025c 9A83      		std Y+2,r25
 396 025e 8983      		std Y+1,r24
 397               	.LBB24:
 398               	.LBB25:
 399               	.LM27:
 400 0260 8981      		ldd r24,Y+1
 401 0262 9A81      		ldd r25,Y+2
 402               	/* #APP */
 403               	 ;  105 "d:/softwares/winavr/lib/gcc/../../avr/include/util/delay_basic.h" 1
 404 0264 0197      		1: sbiw r24,1
 405 0266 01F4      		brne 1b
 406               	 ;  0 "" 2
 407               	/* #NOAPP */
 408 0268 9A83      		std Y+2,r25
 409 026a 8983      		std Y+1,r24
 410               	.L28:
 411               	.LBE25:
 412               	.LBE24:
 413               	.LBE21:
 414               	.LBE20:
 415               	.LM28:
 416 026c 6F85      		ldd r22,Y+15
 417 026e 7889      		ldd r23,Y+16
 418 0270 8989      		ldd r24,Y+17
 419 0272 9A89      		ldd r25,Y+18
 420 0274 20E0      		ldi r18,lo8(0x3f800000)
 421 0276 30E0      		ldi r19,hi8(0x3f800000)
 422 0278 40E8      		ldi r20,hlo8(0x3f800000)
 423 027a 5FE3      		ldi r21,hhi8(0x3f800000)
 424 027c 0E94 0000 		call __subsf3
 425 0280 DC01      		movw r26,r24
 426 0282 CB01      		movw r24,r22
 427 0284 8F87      		std Y+15,r24
 428 0286 988B      		std Y+16,r25
 429 0288 A98B      		std Y+17,r26
 430 028a BA8B      		std Y+18,r27
 431               	.L20:
 432 028c 6F85      		ldd r22,Y+15
 433 028e 7889      		ldd r23,Y+16
 434 0290 8989      		ldd r24,Y+17
 435 0292 9A89      		ldd r25,Y+18
 436 0294 20E0      		ldi r18,lo8(0x0)
 437 0296 30E0      		ldi r19,hi8(0x0)
 438 0298 40E0      		ldi r20,hlo8(0x0)
 439 029a 50E0      		ldi r21,hhi8(0x0)
 440 029c 0E94 0000 		call __nesf2
 441 02a0 8823      		tst r24
 442 02a2 01F0      		breq .+2
 443 02a4 00C0      		rjmp .L29
 444               	/* epilogue start */
 445               	.LM29:
 446 02a6 6296      		adiw r28,18
 447 02a8 0FB6      		in __tmp_reg__,__SREG__
 448 02aa F894      		cli
 449 02ac DEBF      		out __SP_H__,r29
 450 02ae 0FBE      		out __SREG__,__tmp_reg__
 451 02b0 CDBF      		out __SP_L__,r28
 452 02b2 CF91      		pop r28
 453 02b4 DF91      		pop r29
 454 02b6 0895      		ret
 455               	.LFE7:
 457               	.global	delay_10us
 459               	delay_10us:
 460               	.LFB8:
 461               	.LM30:
 462 02b8 DF93      		push r29
 463 02ba CF93      		push r28
 464 02bc CDB7      		in r28,__SP_L__
 465 02be DEB7      		in r29,__SP_H__
 466 02c0 6A97      		sbiw r28,26
 467 02c2 0FB6      		in __tmp_reg__,__SREG__
 468 02c4 F894      		cli
 469 02c6 DEBF      		out __SP_H__,r29
 470 02c8 0FBE      		out __SREG__,__tmp_reg__
 471 02ca CDBF      		out __SP_L__,r28
 472               	/* prologue: function */
 473               	/* frame size = 26 */
 474 02cc 9A8F      		std Y+26,r25
 475 02ce 898F      		std Y+25,r24
 476 02d0 00C0      		rjmp .L36
 477               	.L51:
 478               	.LM31:
 479 02d2 80E0      		ldi r24,lo8(0x41200000)
 480 02d4 90E0      		ldi r25,hi8(0x41200000)
 481 02d6 A0E2      		ldi r26,hlo8(0x41200000)
 482 02d8 B1E4      		ldi r27,hhi8(0x41200000)
 483 02da 8D8B      		std Y+21,r24
 484 02dc 9E8B      		std Y+22,r25
 485 02de AF8B      		std Y+23,r26
 486 02e0 B88F      		std Y+24,r27
 487               	.LBB36:
 488               	.LBB37:
 489               	.LM32:
 490 02e2 6D89      		ldd r22,Y+21
 491 02e4 7E89      		ldd r23,Y+22
 492 02e6 8F89      		ldd r24,Y+23
 493 02e8 988D      		ldd r25,Y+24
 494 02ea 2BEA      		ldi r18,lo8(0x40aaaaab)
 495 02ec 3AEA      		ldi r19,hi8(0x40aaaaab)
 496 02ee 4AEA      		ldi r20,hlo8(0x40aaaaab)
 497 02f0 50E4      		ldi r21,hhi8(0x40aaaaab)
 498 02f2 0E94 0000 		call __mulsf3
 499 02f6 DC01      		movw r26,r24
 500 02f8 CB01      		movw r24,r22
 501 02fa 898B      		std Y+17,r24
 502 02fc 9A8B      		std Y+18,r25
 503 02fe AB8B      		std Y+19,r26
 504 0300 BC8B      		std Y+20,r27
 505               	.LM33:
 506 0302 6989      		ldd r22,Y+17
 507 0304 7A89      		ldd r23,Y+18
 508 0306 8B89      		ldd r24,Y+19
 509 0308 9C89      		ldd r25,Y+20
 510 030a 20E0      		ldi r18,lo8(0x3f800000)
 511 030c 30E0      		ldi r19,hi8(0x3f800000)
 512 030e 40E8      		ldi r20,hlo8(0x3f800000)
 513 0310 5FE3      		ldi r21,hhi8(0x3f800000)
 514 0312 0E94 0000 		call __ltsf2
 515 0316 8823      		tst r24
 516 0318 04F4      		brge .L57
 517               	.L53:
 518               	.LM34:
 519 031a 81E0      		ldi r24,lo8(1)
 520 031c 888B      		std Y+16,r24
 521 031e 00C0      		rjmp .L39
 522               	.L57:
 523               	.LM35:
 524 0320 6989      		ldd r22,Y+17
 525 0322 7A89      		ldd r23,Y+18
 526 0324 8B89      		ldd r24,Y+19
 527 0326 9C89      		ldd r25,Y+20
 528 0328 20E0      		ldi r18,lo8(0x437f0000)
 529 032a 30E0      		ldi r19,hi8(0x437f0000)
 530 032c 4FE7      		ldi r20,hlo8(0x437f0000)
 531 032e 53E4      		ldi r21,hhi8(0x437f0000)
 532 0330 0E94 0000 		call __gtsf2
 533 0334 1816      		cp __zero_reg__,r24
 534 0336 04F0      		brlt .+2
 535 0338 00C0      		rjmp .L58
 536               	.L54:
 537               	.LM36:
 538 033a 6D89      		ldd r22,Y+21
 539 033c 7E89      		ldd r23,Y+22
 540 033e 8F89      		ldd r24,Y+23
 541 0340 988D      		ldd r25,Y+24
 542 0342 20E0      		ldi r18,lo8(0x447a0000)
 543 0344 30E0      		ldi r19,hi8(0x447a0000)
 544 0346 4AE7      		ldi r20,hlo8(0x447a0000)
 545 0348 54E4      		ldi r21,hhi8(0x447a0000)
 546 034a 0E94 0000 		call __divsf3
 547 034e DC01      		movw r26,r24
 548 0350 CB01      		movw r24,r22
 549 0352 8C87      		std Y+12,r24
 550 0354 9D87      		std Y+13,r25
 551 0356 AE87      		std Y+14,r26
 552 0358 BF87      		std Y+15,r27
 553               	.LBB38:
 554               	.LBB39:
 555               	.LM37:
 556 035a 6C85      		ldd r22,Y+12
 557 035c 7D85      		ldd r23,Y+13
 558 035e 8E85      		ldd r24,Y+14
 559 0360 9F85      		ldd r25,Y+15
 560 0362 20E0      		ldi r18,lo8(0x457a0000)
 561 0364 30E0      		ldi r19,hi8(0x457a0000)
 562 0366 4AE7      		ldi r20,hlo8(0x457a0000)
 563 0368 55E4      		ldi r21,hhi8(0x457a0000)
 564 036a 0E94 0000 		call __mulsf3
 565 036e DC01      		movw r26,r24
 566 0370 CB01      		movw r24,r22
 567 0372 8887      		std Y+8,r24
 568 0374 9987      		std Y+9,r25
 569 0376 AA87      		std Y+10,r26
 570 0378 BB87      		std Y+11,r27
 571               	.LM38:
 572 037a 6885      		ldd r22,Y+8
 573 037c 7985      		ldd r23,Y+9
 574 037e 8A85      		ldd r24,Y+10
 575 0380 9B85      		ldd r25,Y+11
 576 0382 20E0      		ldi r18,lo8(0x3f800000)
 577 0384 30E0      		ldi r19,hi8(0x3f800000)
 578 0386 40E8      		ldi r20,hlo8(0x3f800000)
 579 0388 5FE3      		ldi r21,hhi8(0x3f800000)
 580 038a 0E94 0000 		call __ltsf2
 581 038e 8823      		tst r24
 582 0390 04F4      		brge .L59
 583               	.L55:
 584               	.LM39:
 585 0392 81E0      		ldi r24,lo8(1)
 586 0394 90E0      		ldi r25,hi8(1)
 587 0396 9F83      		std Y+7,r25
 588 0398 8E83      		std Y+6,r24
 589 039a 00C0      		rjmp .L44
 590               	.L59:
 591               	.LM40:
 592 039c 6885      		ldd r22,Y+8
 593 039e 7985      		ldd r23,Y+9
 594 03a0 8A85      		ldd r24,Y+10
 595 03a2 9B85      		ldd r25,Y+11
 596 03a4 20E0      		ldi r18,lo8(0x477fff00)
 597 03a6 3FEF      		ldi r19,hi8(0x477fff00)
 598 03a8 4FE7      		ldi r20,hlo8(0x477fff00)
 599 03aa 57E4      		ldi r21,hhi8(0x477fff00)
 600 03ac 0E94 0000 		call __gtsf2
 601 03b0 1816      		cp __zero_reg__,r24
 602 03b2 04F4      		brge .L60
 603               	.L56:
 604               	.LM41:
 605 03b4 6C85      		ldd r22,Y+12
 606 03b6 7D85      		ldd r23,Y+13
 607 03b8 8E85      		ldd r24,Y+14
 608 03ba 9F85      		ldd r25,Y+15
 609 03bc 20E0      		ldi r18,lo8(0x41200000)
 610 03be 30E0      		ldi r19,hi8(0x41200000)
 611 03c0 40E2      		ldi r20,hlo8(0x41200000)
 612 03c2 51E4      		ldi r21,hhi8(0x41200000)
 613 03c4 0E94 0000 		call __mulsf3
 614 03c8 DC01      		movw r26,r24
 615 03ca CB01      		movw r24,r22
 616 03cc BC01      		movw r22,r24
 617 03ce CD01      		movw r24,r26
 618 03d0 0E94 0000 		call __fixunssfsi
 619 03d4 DC01      		movw r26,r24
 620 03d6 CB01      		movw r24,r22
 621 03d8 9F83      		std Y+7,r25
 622 03da 8E83      		std Y+6,r24
 623 03dc 00C0      		rjmp .L47
 624               	.L48:
 625 03de 80E9      		ldi r24,lo8(400)
 626 03e0 91E0      		ldi r25,hi8(400)
 627 03e2 9D83      		std Y+5,r25
 628 03e4 8C83      		std Y+4,r24
 629               	.LBB40:
 630               	.LBB41:
 631               	.LM42:
 632 03e6 8C81      		ldd r24,Y+4
 633 03e8 9D81      		ldd r25,Y+5
 634               	/* #APP */
 635               	 ;  105 "d:/softwares/winavr/lib/gcc/../../avr/include/util/delay_basic.h" 1
 636 03ea 0197      		1: sbiw r24,1
 637 03ec 01F4      		brne 1b
 638               	 ;  0 "" 2
 639               	/* #NOAPP */
 640 03ee 9D83      		std Y+5,r25
 641 03f0 8C83      		std Y+4,r24
 642               	.LBE41:
 643               	.LBE40:
 644               	.LM43:
 645 03f2 8E81      		ldd r24,Y+6
 646 03f4 9F81      		ldd r25,Y+7
 647 03f6 0197      		sbiw r24,1
 648 03f8 9F83      		std Y+7,r25
 649 03fa 8E83      		std Y+6,r24
 650               	.L47:
 651               	.LM44:
 652 03fc 8E81      		ldd r24,Y+6
 653 03fe 9F81      		ldd r25,Y+7
 654 0400 0097      		sbiw r24,0
 655 0402 01F4      		brne .L48
 656 0404 00C0      		rjmp .L50
 657               	.L60:
 658               	.LM45:
 659 0406 6885      		ldd r22,Y+8
 660 0408 7985      		ldd r23,Y+9
 661 040a 8A85      		ldd r24,Y+10
 662 040c 9B85      		ldd r25,Y+11
 663 040e 0E94 0000 		call __fixunssfsi
 664 0412 DC01      		movw r26,r24
 665 0414 CB01      		movw r24,r22
 666 0416 9F83      		std Y+7,r25
 667 0418 8E83      		std Y+6,r24
 668               	.L44:
 669 041a 8E81      		ldd r24,Y+6
 670 041c 9F81      		ldd r25,Y+7
 671 041e 9B83      		std Y+3,r25
 672 0420 8A83      		std Y+2,r24
 673               	.LBB42:
 674               	.LBB43:
 675               	.LM46:
 676 0422 8A81      		ldd r24,Y+2
 677 0424 9B81      		ldd r25,Y+3
 678               	/* #APP */
 679               	 ;  105 "d:/softwares/winavr/lib/gcc/../../avr/include/util/delay_basic.h" 1
 680 0426 0197      		1: sbiw r24,1
 681 0428 01F4      		brne 1b
 682               	 ;  0 "" 2
 683               	/* #NOAPP */
 684 042a 9B83      		std Y+3,r25
 685 042c 8A83      		std Y+2,r24
 686 042e 00C0      		rjmp .L50
 687               	.L58:
 688               	.LBE43:
 689               	.LBE42:
 690               	.LBE39:
 691               	.LBE38:
 692               	.LM47:
 693 0430 6989      		ldd r22,Y+17
 694 0432 7A89      		ldd r23,Y+18
 695 0434 8B89      		ldd r24,Y+19
 696 0436 9C89      		ldd r25,Y+20
 697 0438 0E94 0000 		call __fixunssfsi
 698 043c DC01      		movw r26,r24
 699 043e CB01      		movw r24,r22
 700 0440 888B      		std Y+16,r24
 701               	.L39:
 702 0442 8889      		ldd r24,Y+16
 703 0444 8983      		std Y+1,r24
 704               	.LBB44:
 705               	.LBB45:
 706               	.LM48:
 707 0446 8981      		ldd r24,Y+1
 708               	/* #APP */
 709               	 ;  83 "d:/softwares/winavr/lib/gcc/../../avr/include/util/delay_basic.h" 1
 710 0448 8A95      		1: dec r24
 711 044a 01F4      		brne 1b
 712               	 ;  0 "" 2
 713               	/* #NOAPP */
 714 044c 8983      		std Y+1,r24
 715               	.L50:
 716               	.LBE45:
 717               	.LBE44:
 718               	.LBE37:
 719               	.LBE36:
 720               	.LM49:
 721 044e 898D      		ldd r24,Y+25
 722 0450 9A8D      		ldd r25,Y+26
 723 0452 0197      		sbiw r24,1
 724 0454 9A8F      		std Y+26,r25
 725 0456 898F      		std Y+25,r24
 726               	.L36:
 727 0458 898D      		ldd r24,Y+25
 728 045a 9A8D      		ldd r25,Y+26
 729 045c 0097      		sbiw r24,0
 730 045e 01F0      		breq .+2
 731 0460 00C0      		rjmp .L51
 732               	/* epilogue start */
 733               	.LM50:
 734 0462 6A96      		adiw r28,26
 735 0464 0FB6      		in __tmp_reg__,__SREG__
 736 0466 F894      		cli
 737 0468 DEBF      		out __SP_H__,r29
 738 046a 0FBE      		out __SREG__,__tmp_reg__
 739 046c CDBF      		out __SP_L__,r28
 740 046e CF91      		pop r28
 741 0470 DF91      		pop r29
 742 0472 0895      		ret
 743               	.LFE8:
 745               	.global	main
 747               	main:
 748               	.LFB9:
 749               	.LM51:
 750 0474 DF93      		push r29
 751 0476 CF93      		push r28
 752 0478 CDB7      		in r28,__SP_L__
 753 047a DEB7      		in r29,__SP_H__
 754 047c 2E97      		sbiw r28,14
 755 047e 0FB6      		in __tmp_reg__,__SREG__
 756 0480 F894      		cli
 757 0482 DEBF      		out __SP_H__,r29
 758 0484 0FBE      		out __SREG__,__tmp_reg__
 759 0486 CDBF      		out __SP_L__,r28
 760               	/* prologue: function */
 761               	/* frame size = 14 */
 762               	.LM52:
 763 0488 E7E3      		ldi r30,lo8(55)
 764 048a F0E0      		ldi r31,hi8(55)
 765 048c 80EB      		ldi r24,lo8(-80)
 766 048e 8083      		st Z,r24
 767               	.LM53:
 768 0490 EDE2      		ldi r30,lo8(45)
 769 0492 F0E0      		ldi r31,hi8(45)
 770 0494 81E5      		ldi r24,lo8(81)
 771 0496 8083      		st Z,r24
 772               	.LM54:
 773 0498 EAE3      		ldi r30,lo8(58)
 774 049a F0E0      		ldi r31,hi8(58)
 775 049c 8FEF      		ldi r24,lo8(-1)
 776 049e 8083      		st Z,r24
 777               	.LM55:
 778 04a0 EBE3      		ldi r30,lo8(59)
 779 04a2 F0E0      		ldi r31,hi8(59)
 780 04a4 8AEA      		ldi r24,lo8(-86)
 781 04a6 8083      		st Z,r24
 782               	.LM56:
 783 04a8 E1E3      		ldi r30,lo8(49)
 784 04aa F0E0      		ldi r31,hi8(49)
 785 04ac 1082      		st Z,__zero_reg__
 786 04ae 80E0      		ldi r24,lo8(0x41200000)
 787 04b0 90E0      		ldi r25,hi8(0x41200000)
 788 04b2 A0E2      		ldi r26,hlo8(0x41200000)
 789 04b4 B1E4      		ldi r27,hhi8(0x41200000)
 790 04b6 8B87      		std Y+11,r24
 791 04b8 9C87      		std Y+12,r25
 792 04ba AD87      		std Y+13,r26
 793 04bc BE87      		std Y+14,r27
 794               	.LBB52:
 795               	.LBB53:
 796               	.LM57:
 797 04be 6B85      		ldd r22,Y+11
 798 04c0 7C85      		ldd r23,Y+12
 799 04c2 8D85      		ldd r24,Y+13
 800 04c4 9E85      		ldd r25,Y+14
 801 04c6 20E0      		ldi r18,lo8(0x457a0000)
 802 04c8 30E0      		ldi r19,hi8(0x457a0000)
 803 04ca 4AE7      		ldi r20,hlo8(0x457a0000)
 804 04cc 55E4      		ldi r21,hhi8(0x457a0000)
 805 04ce 0E94 0000 		call __mulsf3
 806 04d2 DC01      		movw r26,r24
 807 04d4 CB01      		movw r24,r22
 808 04d6 8F83      		std Y+7,r24
 809 04d8 9887      		std Y+8,r25
 810 04da A987      		std Y+9,r26
 811 04dc BA87      		std Y+10,r27
 812               	.LM58:
 813 04de 6F81      		ldd r22,Y+7
 814 04e0 7885      		ldd r23,Y+8
 815 04e2 8985      		ldd r24,Y+9
 816 04e4 9A85      		ldd r25,Y+10
 817 04e6 20E0      		ldi r18,lo8(0x3f800000)
 818 04e8 30E0      		ldi r19,hi8(0x3f800000)
 819 04ea 40E8      		ldi r20,hlo8(0x3f800000)
 820 04ec 5FE3      		ldi r21,hhi8(0x3f800000)
 821 04ee 0E94 0000 		call __ltsf2
 822 04f2 8823      		tst r24
 823 04f4 04F4      		brge .L77
 824               	.L75:
 825               	.LM59:
 826 04f6 81E0      		ldi r24,lo8(1)
 827 04f8 90E0      		ldi r25,hi8(1)
 828 04fa 9E83      		std Y+6,r25
 829 04fc 8D83      		std Y+5,r24
 830 04fe 00C0      		rjmp .L64
 831               	.L77:
 832               	.LM60:
 833 0500 6F81      		ldd r22,Y+7
 834 0502 7885      		ldd r23,Y+8
 835 0504 8985      		ldd r24,Y+9
 836 0506 9A85      		ldd r25,Y+10
 837 0508 20E0      		ldi r18,lo8(0x477fff00)
 838 050a 3FEF      		ldi r19,hi8(0x477fff00)
 839 050c 4FE7      		ldi r20,hlo8(0x477fff00)
 840 050e 57E4      		ldi r21,hhi8(0x477fff00)
 841 0510 0E94 0000 		call __gtsf2
 842 0514 1816      		cp __zero_reg__,r24
 843 0516 04F4      		brge .L78
 844               	.L76:
 845               	.LM61:
 846 0518 6B85      		ldd r22,Y+11
 847 051a 7C85      		ldd r23,Y+12
 848 051c 8D85      		ldd r24,Y+13
 849 051e 9E85      		ldd r25,Y+14
 850 0520 20E0      		ldi r18,lo8(0x41200000)
 851 0522 30E0      		ldi r19,hi8(0x41200000)
 852 0524 40E2      		ldi r20,hlo8(0x41200000)
 853 0526 51E4      		ldi r21,hhi8(0x41200000)
 854 0528 0E94 0000 		call __mulsf3
 855 052c DC01      		movw r26,r24
 856 052e CB01      		movw r24,r22
 857 0530 BC01      		movw r22,r24
 858 0532 CD01      		movw r24,r26
 859 0534 0E94 0000 		call __fixunssfsi
 860 0538 DC01      		movw r26,r24
 861 053a CB01      		movw r24,r22
 862 053c 9E83      		std Y+6,r25
 863 053e 8D83      		std Y+5,r24
 864 0540 00C0      		rjmp .L67
 865               	.L68:
 866 0542 80E9      		ldi r24,lo8(400)
 867 0544 91E0      		ldi r25,hi8(400)
 868 0546 9C83      		std Y+4,r25
 869 0548 8B83      		std Y+3,r24
 870               	.LBB54:
 871               	.LBB55:
 872               	.LM62:
 873 054a 8B81      		ldd r24,Y+3
 874 054c 9C81      		ldd r25,Y+4
 875               	/* #APP */
 876               	 ;  105 "d:/softwares/winavr/lib/gcc/../../avr/include/util/delay_basic.h" 1
 877 054e 0197      		1: sbiw r24,1
 878 0550 01F4      		brne 1b
 879               	 ;  0 "" 2
 880               	/* #NOAPP */
 881 0552 9C83      		std Y+4,r25
 882 0554 8B83      		std Y+3,r24
 883               	.LBE55:
 884               	.LBE54:
 885               	.LM63:
 886 0556 8D81      		ldd r24,Y+5
 887 0558 9E81      		ldd r25,Y+6
 888 055a 0197      		sbiw r24,1
 889 055c 9E83      		std Y+6,r25
 890 055e 8D83      		std Y+5,r24
 891               	.L67:
 892               	.LM64:
 893 0560 8D81      		ldd r24,Y+5
 894 0562 9E81      		ldd r25,Y+6
 895 0564 0097      		sbiw r24,0
 896 0566 01F4      		brne .L68
 897 0568 00C0      		rjmp .L69
 898               	.L78:
 899               	.LM65:
 900 056a 6F81      		ldd r22,Y+7
 901 056c 7885      		ldd r23,Y+8
 902 056e 8985      		ldd r24,Y+9
 903 0570 9A85      		ldd r25,Y+10
 904 0572 0E94 0000 		call __fixunssfsi
 905 0576 DC01      		movw r26,r24
 906 0578 CB01      		movw r24,r22
 907 057a 9E83      		std Y+6,r25
 908 057c 8D83      		std Y+5,r24
 909               	.L64:
 910 057e 8D81      		ldd r24,Y+5
 911 0580 9E81      		ldd r25,Y+6
 912 0582 9A83      		std Y+2,r25
 913 0584 8983      		std Y+1,r24
 914               	.LBB56:
 915               	.LBB57:
 916               	.LM66:
 917 0586 8981      		ldd r24,Y+1
 918 0588 9A81      		ldd r25,Y+2
 919               	/* #APP */
 920               	 ;  105 "d:/softwares/winavr/lib/gcc/../../avr/include/util/delay_basic.h" 1
 921 058a 0197      		1: sbiw r24,1
 922 058c 01F4      		brne 1b
 923               	 ;  0 "" 2
 924               	/* #NOAPP */
 925 058e 9A83      		std Y+2,r25
 926 0590 8983      		std Y+1,r24
 927               	.L69:
 928               	.LBE57:
 929               	.LBE56:
 930               	.LBE53:
 931               	.LBE52:
 932               	.LM67:
 933 0592 E2E3      		ldi r30,lo8(50)
 934 0594 F0E0      		ldi r31,hi8(50)
 935 0596 8FEF      		ldi r24,lo8(-1)
 936 0598 8083      		st Z,r24
 937               	.L73:
 938               	.LM68:
 939 059a E0E3      		ldi r30,lo8(48)
 940 059c F0E0      		ldi r31,hi8(48)
 941 059e 8081      		ld r24,Z
 942 05a0 8F3F      		cpi r24,lo8(-1)
 943 05a2 01F0      		breq .L70
 944               	.LM69:
 945 05a4 EBE3      		ldi r30,lo8(59)
 946 05a6 F0E0      		ldi r31,hi8(59)
 947 05a8 8FEF      		ldi r24,lo8(-1)
 948 05aa 8083      		st Z,r24
 949 05ac 00C0      		rjmp .L71
 950               	.L70:
 951               	.LM70:
 952 05ae EBE3      		ldi r30,lo8(59)
 953 05b0 F0E0      		ldi r31,hi8(59)
 954 05b2 1082      		st Z,__zero_reg__
 955               	.L71:
 956               	.LM71:
 957 05b4 EFE2      		ldi r30,lo8(47)
 958 05b6 F0E0      		ldi r31,hi8(47)
 959 05b8 A9E3      		ldi r26,lo8(57)
 960 05ba B0E0      		ldi r27,hi8(57)
 961 05bc 8C91      		ld r24,X
 962 05be 8083      		st Z,r24
 963               	.L72:
 964               	.LM72:
 965 05c0 EEE2      		ldi r30,lo8(46)
 966 05c2 F0E0      		ldi r31,hi8(46)
 967 05c4 8081      		ld r24,Z
 968 05c6 8823      		tst r24
 969 05c8 04F4      		brge .L72
 970 05ca 00C0      		rjmp .L73
 971               	.LFE9:
 1021               	.Letext0:
DEFINED SYMBOLS
                            *ABS*:00000000 master.c
C:\DOCUME~1\ABHINU~1\LOCALS~1\Temp/ccfFxV7I.s:2      *ABS*:0000003f __SREG__
C:\DOCUME~1\ABHINU~1\LOCALS~1\Temp/ccfFxV7I.s:3      *ABS*:0000003e __SP_H__
C:\DOCUME~1\ABHINU~1\LOCALS~1\Temp/ccfFxV7I.s:4      *ABS*:0000003d __SP_L__
C:\DOCUME~1\ABHINU~1\LOCALS~1\Temp/ccfFxV7I.s:5      *ABS*:00000034 __CCP__
C:\DOCUME~1\ABHINU~1\LOCALS~1\Temp/ccfFxV7I.s:6      *ABS*:00000000 __tmp_reg__
C:\DOCUME~1\ABHINU~1\LOCALS~1\Temp/ccfFxV7I.s:7      *ABS*:00000001 __zero_reg__
C:\DOCUME~1\ABHINU~1\LOCALS~1\Temp/ccfFxV7I.s:18     .text:00000000 delay
C:\DOCUME~1\ABHINU~1\LOCALS~1\Temp/ccfFxV7I.s:247    .text:0000016a delay_10ms
C:\DOCUME~1\ABHINU~1\LOCALS~1\Temp/ccfFxV7I.s:459    .text:000002b8 delay_10us
C:\DOCUME~1\ABHINU~1\LOCALS~1\Temp/ccfFxV7I.s:747    .text:00000474 main

UNDEFINED SYMBOLS
__mulsf3
__ltsf2
__gtsf2
__fixunssfsi
__subsf3
__nesf2
__divsf3
