   1               		.file	"ps2.c"
   2               	__SREG__ = 0x3f
   3               	__SP_H__ = 0x3e
   4               	__SP_L__ = 0x3d
   5               	__CCP__  = 0x34
   6               	__tmp_reg__ = 0
   7               	__zero_reg__ = 1
  15               	.Ltext0:
  16               	.global	main
  18               	main:
  19               	.LFB6:
  20               	.LM1:
  21 0000 0F93      		push r16
  22 0002 1F93      		push r17
  23 0004 DF93      		push r29
  24 0006 CF93      		push r28
  25 0008 CDB7      		in r28,__SP_L__
  26 000a DEB7      		in r29,__SP_H__
  27 000c C056      		subi r28,lo8(-(-96))
  28 000e D040      		sbci r29,hi8(-(-96))
  29 0010 0FB6      		in __tmp_reg__,__SREG__
  30 0012 F894      		cli
  31 0014 DEBF      		out __SP_H__,r29
  32 0016 0FBE      		out __SREG__,__tmp_reg__
  33 0018 CDBF      		out __SP_L__,r28
  34               	/* prologue: function */
  35               	/* frame size = 96 */
  36               	.LM2:
  37 001a EAE3      		ldi r30,lo8(58)
  38 001c F0E0      		ldi r31,hi8(58)
  39 001e 8FEF      		ldi r24,lo8(-1)
  40 0020 8083      		st Z,r24
  41               	.LM3:
  42 0022 E4E3      		ldi r30,lo8(52)
  43 0024 F0E0      		ldi r31,hi8(52)
  44 0026 8DEF      		ldi r24,lo8(-3)
  45 0028 8083      		st Z,r24
  46               	.LM4:
  47 002a E5E3      		ldi r30,lo8(53)
  48 002c F0E0      		ldi r31,hi8(53)
  49 002e 8FEF      		ldi r24,lo8(-1)
  50 0030 8083      		st Z,r24
  51               	.LM5:
  52 0032 E9E2      		ldi r30,lo8(41)
  53 0034 F0E0      		ldi r31,hi8(41)
  54 0036 8FEC      		ldi r24,lo8(-49)
  55 0038 8083      		st Z,r24
  56               	.LM6:
  57 003a EAE2      		ldi r30,lo8(42)
  58 003c F0E0      		ldi r31,hi8(42)
  59 003e 88E0      		ldi r24,lo8(8)
  60 0040 8083      		st Z,r24
  61               	.LM7:
  62 0042 E0E4      		ldi r30,lo8(64)
  63 0044 F0E0      		ldi r31,hi8(64)
  64 0046 86E8      		ldi r24,lo8(-122)
  65 0048 8083      		st Z,r24
  66               	.LM8:
  67 004a 0E94 0000 		call config
  68 004e FE01      		movw r30,r28
  69 0050 E35A      		subi r30,lo8(-(93))
  70 0052 FF4F      		sbci r31,hi8(-(93))
  71 0054 80E0      		ldi r24,lo8(0x3f800000)
  72 0056 90E0      		ldi r25,hi8(0x3f800000)
  73 0058 A0E8      		ldi r26,hlo8(0x3f800000)
  74 005a BFE3      		ldi r27,hhi8(0x3f800000)
  75 005c 8083      		st Z,r24
  76 005e 9183      		std Z+1,r25
  77 0060 A283      		std Z+2,r26
  78 0062 B383      		std Z+3,r27
  79               	.LBB42:
  80               	.LBB43:
  81               	.LM9:
  82 0064 8E01      		movw r16,r28
  83 0066 075A      		subi r16,lo8(-(89))
  84 0068 1F4F      		sbci r17,hi8(-(89))
  85 006a FE01      		movw r30,r28
  86 006c E35A      		subi r30,lo8(-(93))
  87 006e FF4F      		sbci r31,hi8(-(93))
  88 0070 6081      		ld r22,Z
  89 0072 7181      		ldd r23,Z+1
  90 0074 8281      		ldd r24,Z+2
  91 0076 9381      		ldd r25,Z+3
  92 0078 2BEA      		ldi r18,lo8(0x40aaaaab)
  93 007a 3AEA      		ldi r19,hi8(0x40aaaaab)
  94 007c 4AEA      		ldi r20,hlo8(0x40aaaaab)
  95 007e 50E4      		ldi r21,hhi8(0x40aaaaab)
  96 0080 0E94 0000 		call __mulsf3
  97 0084 DC01      		movw r26,r24
  98 0086 CB01      		movw r24,r22
  99 0088 F801      		movw r30,r16
 100 008a 8083      		st Z,r24
 101 008c 9183      		std Z+1,r25
 102 008e A283      		std Z+2,r26
 103 0090 B383      		std Z+3,r27
 104               	.LM10:
 105 0092 FE01      		movw r30,r28
 106 0094 E75A      		subi r30,lo8(-(89))
 107 0096 FF4F      		sbci r31,hi8(-(89))
 108 0098 6081      		ld r22,Z
 109 009a 7181      		ldd r23,Z+1
 110 009c 8281      		ldd r24,Z+2
 111 009e 9381      		ldd r25,Z+3
 112 00a0 20E0      		ldi r18,lo8(0x3f800000)
 113 00a2 30E0      		ldi r19,hi8(0x3f800000)
 114 00a4 40E8      		ldi r20,hlo8(0x3f800000)
 115 00a6 5FE3      		ldi r21,hhi8(0x3f800000)
 116 00a8 0E94 0000 		call __ltsf2
 117 00ac 8823      		tst r24
 118 00ae 04F4      		brge .L80
 119               	.L64:
 120               	.LM11:
 121 00b0 FE01      		movw r30,r28
 122 00b2 E85A      		subi r30,lo8(-(88))
 123 00b4 FF4F      		sbci r31,hi8(-(88))
 124 00b6 81E0      		ldi r24,lo8(1)
 125 00b8 8083      		st Z,r24
 126 00ba 00C0      		rjmp .L4
 127               	.L80:
 128               	.LM12:
 129 00bc FE01      		movw r30,r28
 130 00be E75A      		subi r30,lo8(-(89))
 131 00c0 FF4F      		sbci r31,hi8(-(89))
 132 00c2 6081      		ld r22,Z
 133 00c4 7181      		ldd r23,Z+1
 134 00c6 8281      		ldd r24,Z+2
 135 00c8 9381      		ldd r25,Z+3
 136 00ca 20E0      		ldi r18,lo8(0x437f0000)
 137 00cc 30E0      		ldi r19,hi8(0x437f0000)
 138 00ce 4FE7      		ldi r20,hlo8(0x437f0000)
 139 00d0 53E4      		ldi r21,hhi8(0x437f0000)
 140 00d2 0E94 0000 		call __gtsf2
 141 00d6 1816      		cp __zero_reg__,r24
 142 00d8 04F0      		brlt .+2
 143 00da 00C0      		rjmp .L81
 144               	.L65:
 145               	.LM13:
 146 00dc FE01      		movw r30,r28
 147 00de E35A      		subi r30,lo8(-(93))
 148 00e0 FF4F      		sbci r31,hi8(-(93))
 149 00e2 6081      		ld r22,Z
 150 00e4 7181      		ldd r23,Z+1
 151 00e6 8281      		ldd r24,Z+2
 152 00e8 9381      		ldd r25,Z+3
 153 00ea 20E0      		ldi r18,lo8(0x447a0000)
 154 00ec 30E0      		ldi r19,hi8(0x447a0000)
 155 00ee 4AE7      		ldi r20,hlo8(0x447a0000)
 156 00f0 54E4      		ldi r21,hhi8(0x447a0000)
 157 00f2 0E94 0000 		call __divsf3
 158 00f6 DC01      		movw r26,r24
 159 00f8 CB01      		movw r24,r22
 160 00fa FE01      		movw r30,r28
 161 00fc EC5A      		subi r30,lo8(-(84))
 162 00fe FF4F      		sbci r31,hi8(-(84))
 163 0100 8083      		st Z,r24
 164 0102 9183      		std Z+1,r25
 165 0104 A283      		std Z+2,r26
 166 0106 B383      		std Z+3,r27
 167               	.LBB44:
 168               	.LBB45:
 169               	.LM14:
 170 0108 8E01      		movw r16,r28
 171 010a 005B      		subi r16,lo8(-(80))
 172 010c 1F4F      		sbci r17,hi8(-(80))
 173 010e FE01      		movw r30,r28
 174 0110 EC5A      		subi r30,lo8(-(84))
 175 0112 FF4F      		sbci r31,hi8(-(84))
 176 0114 6081      		ld r22,Z
 177 0116 7181      		ldd r23,Z+1
 178 0118 8281      		ldd r24,Z+2
 179 011a 9381      		ldd r25,Z+3
 180 011c 20E0      		ldi r18,lo8(0x457a0000)
 181 011e 30E0      		ldi r19,hi8(0x457a0000)
 182 0120 4AE7      		ldi r20,hlo8(0x457a0000)
 183 0122 55E4      		ldi r21,hhi8(0x457a0000)
 184 0124 0E94 0000 		call __mulsf3
 185 0128 DC01      		movw r26,r24
 186 012a CB01      		movw r24,r22
 187 012c F801      		movw r30,r16
 188 012e 8083      		st Z,r24
 189 0130 9183      		std Z+1,r25
 190 0132 A283      		std Z+2,r26
 191 0134 B383      		std Z+3,r27
 192               	.LM15:
 193 0136 FE01      		movw r30,r28
 194 0138 E05B      		subi r30,lo8(-(80))
 195 013a FF4F      		sbci r31,hi8(-(80))
 196 013c 6081      		ld r22,Z
 197 013e 7181      		ldd r23,Z+1
 198 0140 8281      		ldd r24,Z+2
 199 0142 9381      		ldd r25,Z+3
 200 0144 20E0      		ldi r18,lo8(0x3f800000)
 201 0146 30E0      		ldi r19,hi8(0x3f800000)
 202 0148 40E8      		ldi r20,hlo8(0x3f800000)
 203 014a 5FE3      		ldi r21,hhi8(0x3f800000)
 204 014c 0E94 0000 		call __ltsf2
 205 0150 8823      		tst r24
 206 0152 04F4      		brge .L82
 207               	.L66:
 208               	.LM16:
 209 0154 FE01      		movw r30,r28
 210 0156 E25B      		subi r30,lo8(-(78))
 211 0158 FF4F      		sbci r31,hi8(-(78))
 212 015a 81E0      		ldi r24,lo8(1)
 213 015c 90E0      		ldi r25,hi8(1)
 214 015e 9183      		std Z+1,r25
 215 0160 8083      		st Z,r24
 216 0162 00C0      		rjmp .L9
 217               	.L82:
 218               	.LM17:
 219 0164 FE01      		movw r30,r28
 220 0166 E05B      		subi r30,lo8(-(80))
 221 0168 FF4F      		sbci r31,hi8(-(80))
 222 016a 6081      		ld r22,Z
 223 016c 7181      		ldd r23,Z+1
 224 016e 8281      		ldd r24,Z+2
 225 0170 9381      		ldd r25,Z+3
 226 0172 20E0      		ldi r18,lo8(0x477fff00)
 227 0174 3FEF      		ldi r19,hi8(0x477fff00)
 228 0176 4FE7      		ldi r20,hlo8(0x477fff00)
 229 0178 57E4      		ldi r21,hhi8(0x477fff00)
 230 017a 0E94 0000 		call __gtsf2
 231 017e 1816      		cp __zero_reg__,r24
 232 0180 04F0      		brlt .+2
 233 0182 00C0      		rjmp .L83
 234               	.L67:
 235               	.LM18:
 236 0184 FE01      		movw r30,r28
 237 0186 EC5A      		subi r30,lo8(-(84))
 238 0188 FF4F      		sbci r31,hi8(-(84))
 239 018a 6081      		ld r22,Z
 240 018c 7181      		ldd r23,Z+1
 241 018e 8281      		ldd r24,Z+2
 242 0190 9381      		ldd r25,Z+3
 243 0192 20E0      		ldi r18,lo8(0x41200000)
 244 0194 30E0      		ldi r19,hi8(0x41200000)
 245 0196 40E2      		ldi r20,hlo8(0x41200000)
 246 0198 51E4      		ldi r21,hhi8(0x41200000)
 247 019a 0E94 0000 		call __mulsf3
 248 019e DC01      		movw r26,r24
 249 01a0 CB01      		movw r24,r22
 250 01a2 8E01      		movw r16,r28
 251 01a4 025B      		subi r16,lo8(-(78))
 252 01a6 1F4F      		sbci r17,hi8(-(78))
 253 01a8 BC01      		movw r22,r24
 254 01aa CD01      		movw r24,r26
 255 01ac 0E94 0000 		call __fixunssfsi
 256 01b0 DC01      		movw r26,r24
 257 01b2 CB01      		movw r24,r22
 258 01b4 F801      		movw r30,r16
 259 01b6 9183      		std Z+1,r25
 260 01b8 8083      		st Z,r24
 261 01ba 00C0      		rjmp .L12
 262               	.L13:
 263 01bc FE01      		movw r30,r28
 264 01be E45B      		subi r30,lo8(-(76))
 265 01c0 FF4F      		sbci r31,hi8(-(76))
 266 01c2 80E9      		ldi r24,lo8(400)
 267 01c4 91E0      		ldi r25,hi8(400)
 268 01c6 9183      		std Z+1,r25
 269 01c8 8083      		st Z,r24
 270               	.LBB46:
 271               	.LBB47:
 272               	.LM19:
 273 01ca FE01      		movw r30,r28
 274 01cc E45B      		subi r30,lo8(-(76))
 275 01ce FF4F      		sbci r31,hi8(-(76))
 276 01d0 8081      		ld r24,Z
 277 01d2 9181      		ldd r25,Z+1
 278               	/* #APP */
 279               	 ;  105 "d:/winavr-20100110/lib/gcc/../../avr/include/util/delay_basic.h" 1
 280 01d4 0197      		1: sbiw r24,1
 281 01d6 01F4      		brne 1b
 282               	 ;  0 "" 2
 283               	/* #NOAPP */
 284 01d8 FE01      		movw r30,r28
 285 01da E45B      		subi r30,lo8(-(76))
 286 01dc FF4F      		sbci r31,hi8(-(76))
 287 01de 9183      		std Z+1,r25
 288 01e0 8083      		st Z,r24
 289               	.LBE47:
 290               	.LBE46:
 291               	.LM20:
 292 01e2 DE01      		movw r26,r28
 293 01e4 A25B      		subi r26,lo8(-(78))
 294 01e6 BF4F      		sbci r27,hi8(-(78))
 295 01e8 FE01      		movw r30,r28
 296 01ea E25B      		subi r30,lo8(-(78))
 297 01ec FF4F      		sbci r31,hi8(-(78))
 298 01ee 8081      		ld r24,Z
 299 01f0 9181      		ldd r25,Z+1
 300 01f2 0197      		sbiw r24,1
 301 01f4 1196      		adiw r26,1
 302 01f6 9C93      		st X,r25
 303 01f8 8E93      		st -X,r24
 304               	.L12:
 305               	.LM21:
 306 01fa FE01      		movw r30,r28
 307 01fc E25B      		subi r30,lo8(-(78))
 308 01fe FF4F      		sbci r31,hi8(-(78))
 309 0200 8081      		ld r24,Z
 310 0202 9181      		ldd r25,Z+1
 311 0204 0097      		sbiw r24,0
 312 0206 01F4      		brne .L13
 313 0208 00C0      		rjmp .L15
 314               	.L83:
 315               	.LM22:
 316 020a 8E01      		movw r16,r28
 317 020c 025B      		subi r16,lo8(-(78))
 318 020e 1F4F      		sbci r17,hi8(-(78))
 319 0210 FE01      		movw r30,r28
 320 0212 E05B      		subi r30,lo8(-(80))
 321 0214 FF4F      		sbci r31,hi8(-(80))
 322 0216 6081      		ld r22,Z
 323 0218 7181      		ldd r23,Z+1
 324 021a 8281      		ldd r24,Z+2
 325 021c 9381      		ldd r25,Z+3
 326 021e 0E94 0000 		call __fixunssfsi
 327 0222 DC01      		movw r26,r24
 328 0224 CB01      		movw r24,r22
 329 0226 F801      		movw r30,r16
 330 0228 9183      		std Z+1,r25
 331 022a 8083      		st Z,r24
 332               	.L9:
 333 022c DE01      		movw r26,r28
 334 022e A65B      		subi r26,lo8(-(74))
 335 0230 BF4F      		sbci r27,hi8(-(74))
 336 0232 FE01      		movw r30,r28
 337 0234 E25B      		subi r30,lo8(-(78))
 338 0236 FF4F      		sbci r31,hi8(-(78))
 339 0238 8081      		ld r24,Z
 340 023a 9181      		ldd r25,Z+1
 341 023c 1196      		adiw r26,1
 342 023e 9C93      		st X,r25
 343 0240 8E93      		st -X,r24
 344               	.LBB48:
 345               	.LBB49:
 346               	.LM23:
 347 0242 FE01      		movw r30,r28
 348 0244 E65B      		subi r30,lo8(-(74))
 349 0246 FF4F      		sbci r31,hi8(-(74))
 350 0248 8081      		ld r24,Z
 351 024a 9181      		ldd r25,Z+1
 352               	/* #APP */
 353               	 ;  105 "d:/winavr-20100110/lib/gcc/../../avr/include/util/delay_basic.h" 1
 354 024c 0197      		1: sbiw r24,1
 355 024e 01F4      		brne 1b
 356               	 ;  0 "" 2
 357               	/* #NOAPP */
 358 0250 FE01      		movw r30,r28
 359 0252 E65B      		subi r30,lo8(-(74))
 360 0254 FF4F      		sbci r31,hi8(-(74))
 361 0256 9183      		std Z+1,r25
 362 0258 8083      		st Z,r24
 363 025a 00C0      		rjmp .L15
 364               	.L81:
 365               	.LBE49:
 366               	.LBE48:
 367               	.LBE45:
 368               	.LBE44:
 369               	.LM24:
 370 025c 8E01      		movw r16,r28
 371 025e 085A      		subi r16,lo8(-(88))
 372 0260 1F4F      		sbci r17,hi8(-(88))
 373 0262 FE01      		movw r30,r28
 374 0264 E75A      		subi r30,lo8(-(89))
 375 0266 FF4F      		sbci r31,hi8(-(89))
 376 0268 6081      		ld r22,Z
 377 026a 7181      		ldd r23,Z+1
 378 026c 8281      		ldd r24,Z+2
 379 026e 9381      		ldd r25,Z+3
 380 0270 0E94 0000 		call __fixunssfsi
 381 0274 DC01      		movw r26,r24
 382 0276 CB01      		movw r24,r22
 383 0278 F801      		movw r30,r16
 384 027a 8083      		st Z,r24
 385               	.L4:
 386 027c DE01      		movw r26,r28
 387 027e A75B      		subi r26,lo8(-(73))
 388 0280 BF4F      		sbci r27,hi8(-(73))
 389 0282 FE01      		movw r30,r28
 390 0284 E85A      		subi r30,lo8(-(88))
 391 0286 FF4F      		sbci r31,hi8(-(88))
 392 0288 8081      		ld r24,Z
 393 028a 8C93      		st X,r24
 394               	.LBB50:
 395               	.LBB51:
 396               	.LM25:
 397 028c FE01      		movw r30,r28
 398 028e E75B      		subi r30,lo8(-(73))
 399 0290 FF4F      		sbci r31,hi8(-(73))
 400 0292 8081      		ld r24,Z
 401               	/* #APP */
 402               	 ;  83 "d:/winavr-20100110/lib/gcc/../../avr/include/util/delay_basic.h" 1
 403 0294 8A95      		1: dec r24
 404 0296 01F4      		brne 1b
 405               	 ;  0 "" 2
 406               	/* #NOAPP */
 407 0298 FE01      		movw r30,r28
 408 029a E75B      		subi r30,lo8(-(73))
 409 029c FF4F      		sbci r31,hi8(-(73))
 410 029e 8083      		st Z,r24
 411               	.L15:
 412               	.LBE51:
 413               	.LBE50:
 414               	.LBE43:
 415               	.LBE42:
 416               	.LM26:
 417 02a0 0E94 0000 		call analog
 418 02a4 FE01      		movw r30,r28
 419 02a6 EB5B      		subi r30,lo8(-(69))
 420 02a8 FF4F      		sbci r31,hi8(-(69))
 421 02aa 80E0      		ldi r24,lo8(0x3f800000)
 422 02ac 90E0      		ldi r25,hi8(0x3f800000)
 423 02ae A0E8      		ldi r26,hlo8(0x3f800000)
 424 02b0 BFE3      		ldi r27,hhi8(0x3f800000)
 425 02b2 8083      		st Z,r24
 426 02b4 9183      		std Z+1,r25
 427 02b6 A283      		std Z+2,r26
 428 02b8 B383      		std Z+3,r27
 429               	.LBB52:
 430               	.LBB53:
 431               	.LM27:
 432 02ba 8E01      		movw r16,r28
 433 02bc 0F5B      		subi r16,lo8(-(65))
 434 02be 1F4F      		sbci r17,hi8(-(65))
 435 02c0 FE01      		movw r30,r28
 436 02c2 EB5B      		subi r30,lo8(-(69))
 437 02c4 FF4F      		sbci r31,hi8(-(69))
 438 02c6 6081      		ld r22,Z
 439 02c8 7181      		ldd r23,Z+1
 440 02ca 8281      		ldd r24,Z+2
 441 02cc 9381      		ldd r25,Z+3
 442 02ce 2BEA      		ldi r18,lo8(0x40aaaaab)
 443 02d0 3AEA      		ldi r19,hi8(0x40aaaaab)
 444 02d2 4AEA      		ldi r20,hlo8(0x40aaaaab)
 445 02d4 50E4      		ldi r21,hhi8(0x40aaaaab)
 446 02d6 0E94 0000 		call __mulsf3
 447 02da DC01      		movw r26,r24
 448 02dc CB01      		movw r24,r22
 449 02de F801      		movw r30,r16
 450 02e0 8083      		st Z,r24
 451 02e2 9183      		std Z+1,r25
 452 02e4 A283      		std Z+2,r26
 453 02e6 B383      		std Z+3,r27
 454               	.LM28:
 455 02e8 FE01      		movw r30,r28
 456 02ea EF5B      		subi r30,lo8(-(65))
 457 02ec FF4F      		sbci r31,hi8(-(65))
 458 02ee 6081      		ld r22,Z
 459 02f0 7181      		ldd r23,Z+1
 460 02f2 8281      		ldd r24,Z+2
 461 02f4 9381      		ldd r25,Z+3
 462 02f6 20E0      		ldi r18,lo8(0x3f800000)
 463 02f8 30E0      		ldi r19,hi8(0x3f800000)
 464 02fa 40E8      		ldi r20,hlo8(0x3f800000)
 465 02fc 5FE3      		ldi r21,hhi8(0x3f800000)
 466 02fe 0E94 0000 		call __ltsf2
 467 0302 8823      		tst r24
 468 0304 04F4      		brge .L84
 469               	.L68:
 470               	.LM29:
 471 0306 81E0      		ldi r24,lo8(1)
 472 0308 FE01      		movw r30,r28
 473 030a E05C      		subi r30,lo8(-(64))
 474 030c FF4F      		sbci r31,hi8(-(64))
 475 030e 8083      		st Z,r24
 476 0310 00C0      		rjmp .L18
 477               	.L84:
 478               	.LM30:
 479 0312 FE01      		movw r30,r28
 480 0314 EF5B      		subi r30,lo8(-(65))
 481 0316 FF4F      		sbci r31,hi8(-(65))
 482 0318 6081      		ld r22,Z
 483 031a 7181      		ldd r23,Z+1
 484 031c 8281      		ldd r24,Z+2
 485 031e 9381      		ldd r25,Z+3
 486 0320 20E0      		ldi r18,lo8(0x437f0000)
 487 0322 30E0      		ldi r19,hi8(0x437f0000)
 488 0324 4FE7      		ldi r20,hlo8(0x437f0000)
 489 0326 53E4      		ldi r21,hhi8(0x437f0000)
 490 0328 0E94 0000 		call __gtsf2
 491 032c 1816      		cp __zero_reg__,r24
 492 032e 04F0      		brlt .+2
 493 0330 00C0      		rjmp .L85
 494               	.L69:
 495               	.LM31:
 496 0332 FE01      		movw r30,r28
 497 0334 EB5B      		subi r30,lo8(-(69))
 498 0336 FF4F      		sbci r31,hi8(-(69))
 499 0338 6081      		ld r22,Z
 500 033a 7181      		ldd r23,Z+1
 501 033c 8281      		ldd r24,Z+2
 502 033e 9381      		ldd r25,Z+3
 503 0340 20E0      		ldi r18,lo8(0x447a0000)
 504 0342 30E0      		ldi r19,hi8(0x447a0000)
 505 0344 4AE7      		ldi r20,hlo8(0x447a0000)
 506 0346 54E4      		ldi r21,hhi8(0x447a0000)
 507 0348 0E94 0000 		call __divsf3
 508 034c DC01      		movw r26,r24
 509 034e CB01      		movw r24,r22
 510 0350 8CAF      		std Y+60,r24
 511 0352 9DAF      		std Y+61,r25
 512 0354 AEAF      		std Y+62,r26
 513 0356 BFAF      		std Y+63,r27
 514               	.LBB54:
 515               	.LBB55:
 516               	.LM32:
 517 0358 6CAD      		ldd r22,Y+60
 518 035a 7DAD      		ldd r23,Y+61
 519 035c 8EAD      		ldd r24,Y+62
 520 035e 9FAD      		ldd r25,Y+63
 521 0360 20E0      		ldi r18,lo8(0x457a0000)
 522 0362 30E0      		ldi r19,hi8(0x457a0000)
 523 0364 4AE7      		ldi r20,hlo8(0x457a0000)
 524 0366 55E4      		ldi r21,hhi8(0x457a0000)
 525 0368 0E94 0000 		call __mulsf3
 526 036c DC01      		movw r26,r24
 527 036e CB01      		movw r24,r22
 528 0370 88AF      		std Y+56,r24
 529 0372 99AF      		std Y+57,r25
 530 0374 AAAF      		std Y+58,r26
 531 0376 BBAF      		std Y+59,r27
 532               	.LM33:
 533 0378 68AD      		ldd r22,Y+56
 534 037a 79AD      		ldd r23,Y+57
 535 037c 8AAD      		ldd r24,Y+58
 536 037e 9BAD      		ldd r25,Y+59
 537 0380 20E0      		ldi r18,lo8(0x3f800000)
 538 0382 30E0      		ldi r19,hi8(0x3f800000)
 539 0384 40E8      		ldi r20,hlo8(0x3f800000)
 540 0386 5FE3      		ldi r21,hhi8(0x3f800000)
 541 0388 0E94 0000 		call __ltsf2
 542 038c 8823      		tst r24
 543 038e 04F4      		brge .L86
 544               	.L70:
 545               	.LM34:
 546 0390 81E0      		ldi r24,lo8(1)
 547 0392 90E0      		ldi r25,hi8(1)
 548 0394 9FAB      		std Y+55,r25
 549 0396 8EAB      		std Y+54,r24
 550 0398 00C0      		rjmp .L23
 551               	.L86:
 552               	.LM35:
 553 039a 68AD      		ldd r22,Y+56
 554 039c 79AD      		ldd r23,Y+57
 555 039e 8AAD      		ldd r24,Y+58
 556 03a0 9BAD      		ldd r25,Y+59
 557 03a2 20E0      		ldi r18,lo8(0x477fff00)
 558 03a4 3FEF      		ldi r19,hi8(0x477fff00)
 559 03a6 4FE7      		ldi r20,hlo8(0x477fff00)
 560 03a8 57E4      		ldi r21,hhi8(0x477fff00)
 561 03aa 0E94 0000 		call __gtsf2
 562 03ae 1816      		cp __zero_reg__,r24
 563 03b0 04F4      		brge .L87
 564               	.L71:
 565               	.LM36:
 566 03b2 6CAD      		ldd r22,Y+60
 567 03b4 7DAD      		ldd r23,Y+61
 568 03b6 8EAD      		ldd r24,Y+62
 569 03b8 9FAD      		ldd r25,Y+63
 570 03ba 20E0      		ldi r18,lo8(0x41200000)
 571 03bc 30E0      		ldi r19,hi8(0x41200000)
 572 03be 40E2      		ldi r20,hlo8(0x41200000)
 573 03c0 51E4      		ldi r21,hhi8(0x41200000)
 574 03c2 0E94 0000 		call __mulsf3
 575 03c6 DC01      		movw r26,r24
 576 03c8 CB01      		movw r24,r22
 577 03ca BC01      		movw r22,r24
 578 03cc CD01      		movw r24,r26
 579 03ce 0E94 0000 		call __fixunssfsi
 580 03d2 DC01      		movw r26,r24
 581 03d4 CB01      		movw r24,r22
 582 03d6 9FAB      		std Y+55,r25
 583 03d8 8EAB      		std Y+54,r24
 584 03da 00C0      		rjmp .L26
 585               	.L27:
 586 03dc 80E9      		ldi r24,lo8(400)
 587 03de 91E0      		ldi r25,hi8(400)
 588 03e0 9DAB      		std Y+53,r25
 589 03e2 8CAB      		std Y+52,r24
 590               	.LBB56:
 591               	.LBB57:
 592               	.LM37:
 593 03e4 8CA9      		ldd r24,Y+52
 594 03e6 9DA9      		ldd r25,Y+53
 595               	/* #APP */
 596               	 ;  105 "d:/winavr-20100110/lib/gcc/../../avr/include/util/delay_basic.h" 1
 597 03e8 0197      		1: sbiw r24,1
 598 03ea 01F4      		brne 1b
 599               	 ;  0 "" 2
 600               	/* #NOAPP */
 601 03ec 9DAB      		std Y+53,r25
 602 03ee 8CAB      		std Y+52,r24
 603               	.LBE57:
 604               	.LBE56:
 605               	.LM38:
 606 03f0 8EA9      		ldd r24,Y+54
 607 03f2 9FA9      		ldd r25,Y+55
 608 03f4 0197      		sbiw r24,1
 609 03f6 9FAB      		std Y+55,r25
 610 03f8 8EAB      		std Y+54,r24
 611               	.L26:
 612               	.LM39:
 613 03fa 8EA9      		ldd r24,Y+54
 614 03fc 9FA9      		ldd r25,Y+55
 615 03fe 0097      		sbiw r24,0
 616 0400 01F4      		brne .L27
 617 0402 00C0      		rjmp .L62
 618               	.L87:
 619               	.LM40:
 620 0404 68AD      		ldd r22,Y+56
 621 0406 79AD      		ldd r23,Y+57
 622 0408 8AAD      		ldd r24,Y+58
 623 040a 9BAD      		ldd r25,Y+59
 624 040c 0E94 0000 		call __fixunssfsi
 625 0410 DC01      		movw r26,r24
 626 0412 CB01      		movw r24,r22
 627 0414 9FAB      		std Y+55,r25
 628 0416 8EAB      		std Y+54,r24
 629               	.L23:
 630 0418 8EA9      		ldd r24,Y+54
 631 041a 9FA9      		ldd r25,Y+55
 632 041c 9BAB      		std Y+51,r25
 633 041e 8AAB      		std Y+50,r24
 634               	.LBB58:
 635               	.LBB59:
 636               	.LM41:
 637 0420 8AA9      		ldd r24,Y+50
 638 0422 9BA9      		ldd r25,Y+51
 639               	/* #APP */
 640               	 ;  105 "d:/winavr-20100110/lib/gcc/../../avr/include/util/delay_basic.h" 1
 641 0424 0197      		1: sbiw r24,1
 642 0426 01F4      		brne 1b
 643               	 ;  0 "" 2
 644               	/* #NOAPP */
 645 0428 9BAB      		std Y+51,r25
 646 042a 8AAB      		std Y+50,r24
 647 042c 00C0      		rjmp .L62
 648               	.L85:
 649               	.LBE59:
 650               	.LBE58:
 651               	.LBE55:
 652               	.LBE54:
 653               	.LM42:
 654 042e FE01      		movw r30,r28
 655 0430 EF5B      		subi r30,lo8(-(65))
 656 0432 FF4F      		sbci r31,hi8(-(65))
 657 0434 6081      		ld r22,Z
 658 0436 7181      		ldd r23,Z+1
 659 0438 8281      		ldd r24,Z+2
 660 043a 9381      		ldd r25,Z+3
 661 043c 0E94 0000 		call __fixunssfsi
 662 0440 DC01      		movw r26,r24
 663 0442 CB01      		movw r24,r22
 664 0444 FE01      		movw r30,r28
 665 0446 E05C      		subi r30,lo8(-(64))
 666 0448 FF4F      		sbci r31,hi8(-(64))
 667 044a 8083      		st Z,r24
 668               	.L18:
 669 044c FE01      		movw r30,r28
 670 044e E05C      		subi r30,lo8(-(64))
 671 0450 FF4F      		sbci r31,hi8(-(64))
 672 0452 8081      		ld r24,Z
 673 0454 89AB      		std Y+49,r24
 674               	.LBB60:
 675               	.LBB61:
 676               	.LM43:
 677 0456 89A9      		ldd r24,Y+49
 678               	/* #APP */
 679               	 ;  83 "d:/winavr-20100110/lib/gcc/../../avr/include/util/delay_basic.h" 1
 680 0458 8A95      		1: dec r24
 681 045a 01F4      		brne 1b
 682               	 ;  0 "" 2
 683               	/* #NOAPP */
 684 045c 89AB      		std Y+49,r24
 685               	.L62:
 686               	.LBE61:
 687               	.LBE60:
 688               	.LBE53:
 689               	.LBE52:
 690               	.LM44:
 691 045e 0E94 0000 		call ReadGamepad
 692 0462 80E0      		ldi r24,lo8(0x40a00000)
 693 0464 90E0      		ldi r25,hi8(0x40a00000)
 694 0466 A0EA      		ldi r26,hlo8(0x40a00000)
 695 0468 B0E4      		ldi r27,hhi8(0x40a00000)
 696 046a 8DA7      		std Y+45,r24
 697 046c 9EA7      		std Y+46,r25
 698 046e AFA7      		std Y+47,r26
 699 0470 B8AB      		std Y+48,r27
 700               	.LBB62:
 701               	.LBB63:
 702               	.LM45:
 703 0472 6DA5      		ldd r22,Y+45
 704 0474 7EA5      		ldd r23,Y+46
 705 0476 8FA5      		ldd r24,Y+47
 706 0478 98A9      		ldd r25,Y+48
 707 047a 2BEA      		ldi r18,lo8(0x40aaaaab)
 708 047c 3AEA      		ldi r19,hi8(0x40aaaaab)
 709 047e 4AEA      		ldi r20,hlo8(0x40aaaaab)
 710 0480 50E4      		ldi r21,hhi8(0x40aaaaab)
 711 0482 0E94 0000 		call __mulsf3
 712 0486 DC01      		movw r26,r24
 713 0488 CB01      		movw r24,r22
 714 048a 89A7      		std Y+41,r24
 715 048c 9AA7      		std Y+42,r25
 716 048e ABA7      		std Y+43,r26
 717 0490 BCA7      		std Y+44,r27
 718               	.LM46:
 719 0492 69A5      		ldd r22,Y+41
 720 0494 7AA5      		ldd r23,Y+42
 721 0496 8BA5      		ldd r24,Y+43
 722 0498 9CA5      		ldd r25,Y+44
 723 049a 20E0      		ldi r18,lo8(0x3f800000)
 724 049c 30E0      		ldi r19,hi8(0x3f800000)
 725 049e 40E8      		ldi r20,hlo8(0x3f800000)
 726 04a0 5FE3      		ldi r21,hhi8(0x3f800000)
 727 04a2 0E94 0000 		call __ltsf2
 728 04a6 8823      		tst r24
 729 04a8 04F4      		brge .L88
 730               	.L72:
 731               	.LM47:
 732 04aa 81E0      		ldi r24,lo8(1)
 733 04ac 88A7      		std Y+40,r24
 734 04ae 00C0      		rjmp .L32
 735               	.L88:
 736               	.LM48:
 737 04b0 69A5      		ldd r22,Y+41
 738 04b2 7AA5      		ldd r23,Y+42
 739 04b4 8BA5      		ldd r24,Y+43
 740 04b6 9CA5      		ldd r25,Y+44
 741 04b8 20E0      		ldi r18,lo8(0x437f0000)
 742 04ba 30E0      		ldi r19,hi8(0x437f0000)
 743 04bc 4FE7      		ldi r20,hlo8(0x437f0000)
 744 04be 53E4      		ldi r21,hhi8(0x437f0000)
 745 04c0 0E94 0000 		call __gtsf2
 746 04c4 1816      		cp __zero_reg__,r24
 747 04c6 04F0      		brlt .+2
 748 04c8 00C0      		rjmp .L89
 749               	.L73:
 750               	.LM49:
 751 04ca 6DA5      		ldd r22,Y+45
 752 04cc 7EA5      		ldd r23,Y+46
 753 04ce 8FA5      		ldd r24,Y+47
 754 04d0 98A9      		ldd r25,Y+48
 755 04d2 20E0      		ldi r18,lo8(0x447a0000)
 756 04d4 30E0      		ldi r19,hi8(0x447a0000)
 757 04d6 4AE7      		ldi r20,hlo8(0x447a0000)
 758 04d8 54E4      		ldi r21,hhi8(0x447a0000)
 759 04da 0E94 0000 		call __divsf3
 760 04de DC01      		movw r26,r24
 761 04e0 CB01      		movw r24,r22
 762 04e2 8CA3      		std Y+36,r24
 763 04e4 9DA3      		std Y+37,r25
 764 04e6 AEA3      		std Y+38,r26
 765 04e8 BFA3      		std Y+39,r27
 766               	.LBB64:
 767               	.LBB65:
 768               	.LM50:
 769 04ea 6CA1      		ldd r22,Y+36
 770 04ec 7DA1      		ldd r23,Y+37
 771 04ee 8EA1      		ldd r24,Y+38
 772 04f0 9FA1      		ldd r25,Y+39
 773 04f2 20E0      		ldi r18,lo8(0x457a0000)
 774 04f4 30E0      		ldi r19,hi8(0x457a0000)
 775 04f6 4AE7      		ldi r20,hlo8(0x457a0000)
 776 04f8 55E4      		ldi r21,hhi8(0x457a0000)
 777 04fa 0E94 0000 		call __mulsf3
 778 04fe DC01      		movw r26,r24
 779 0500 CB01      		movw r24,r22
 780 0502 88A3      		std Y+32,r24
 781 0504 99A3      		std Y+33,r25
 782 0506 AAA3      		std Y+34,r26
 783 0508 BBA3      		std Y+35,r27
 784               	.LM51:
 785 050a 68A1      		ldd r22,Y+32
 786 050c 79A1      		ldd r23,Y+33
 787 050e 8AA1      		ldd r24,Y+34
 788 0510 9BA1      		ldd r25,Y+35
 789 0512 20E0      		ldi r18,lo8(0x3f800000)
 790 0514 30E0      		ldi r19,hi8(0x3f800000)
 791 0516 40E8      		ldi r20,hlo8(0x3f800000)
 792 0518 5FE3      		ldi r21,hhi8(0x3f800000)
 793 051a 0E94 0000 		call __ltsf2
 794 051e 8823      		tst r24
 795 0520 04F4      		brge .L90
 796               	.L74:
 797               	.LM52:
 798 0522 81E0      		ldi r24,lo8(1)
 799 0524 90E0      		ldi r25,hi8(1)
 800 0526 9F8F      		std Y+31,r25
 801 0528 8E8F      		std Y+30,r24
 802 052a 00C0      		rjmp .L37
 803               	.L90:
 804               	.LM53:
 805 052c 68A1      		ldd r22,Y+32
 806 052e 79A1      		ldd r23,Y+33
 807 0530 8AA1      		ldd r24,Y+34
 808 0532 9BA1      		ldd r25,Y+35
 809 0534 20E0      		ldi r18,lo8(0x477fff00)
 810 0536 3FEF      		ldi r19,hi8(0x477fff00)
 811 0538 4FE7      		ldi r20,hlo8(0x477fff00)
 812 053a 57E4      		ldi r21,hhi8(0x477fff00)
 813 053c 0E94 0000 		call __gtsf2
 814 0540 1816      		cp __zero_reg__,r24
 815 0542 04F4      		brge .L91
 816               	.L75:
 817               	.LM54:
 818 0544 6CA1      		ldd r22,Y+36
 819 0546 7DA1      		ldd r23,Y+37
 820 0548 8EA1      		ldd r24,Y+38
 821 054a 9FA1      		ldd r25,Y+39
 822 054c 20E0      		ldi r18,lo8(0x41200000)
 823 054e 30E0      		ldi r19,hi8(0x41200000)
 824 0550 40E2      		ldi r20,hlo8(0x41200000)
 825 0552 51E4      		ldi r21,hhi8(0x41200000)
 826 0554 0E94 0000 		call __mulsf3
 827 0558 DC01      		movw r26,r24
 828 055a CB01      		movw r24,r22
 829 055c BC01      		movw r22,r24
 830 055e CD01      		movw r24,r26
 831 0560 0E94 0000 		call __fixunssfsi
 832 0564 DC01      		movw r26,r24
 833 0566 CB01      		movw r24,r22
 834 0568 9F8F      		std Y+31,r25
 835 056a 8E8F      		std Y+30,r24
 836 056c 00C0      		rjmp .L40
 837               	.L41:
 838 056e 80E9      		ldi r24,lo8(400)
 839 0570 91E0      		ldi r25,hi8(400)
 840 0572 9D8F      		std Y+29,r25
 841 0574 8C8F      		std Y+28,r24
 842               	.LBB66:
 843               	.LBB67:
 844               	.LM55:
 845 0576 8C8D      		ldd r24,Y+28
 846 0578 9D8D      		ldd r25,Y+29
 847               	/* #APP */
 848               	 ;  105 "d:/winavr-20100110/lib/gcc/../../avr/include/util/delay_basic.h" 1
 849 057a 0197      		1: sbiw r24,1
 850 057c 01F4      		brne 1b
 851               	 ;  0 "" 2
 852               	/* #NOAPP */
 853 057e 9D8F      		std Y+29,r25
 854 0580 8C8F      		std Y+28,r24
 855               	.LBE67:
 856               	.LBE66:
 857               	.LM56:
 858 0582 8E8D      		ldd r24,Y+30
 859 0584 9F8D      		ldd r25,Y+31
 860 0586 0197      		sbiw r24,1
 861 0588 9F8F      		std Y+31,r25
 862 058a 8E8F      		std Y+30,r24
 863               	.L40:
 864               	.LM57:
 865 058c 8E8D      		ldd r24,Y+30
 866 058e 9F8D      		ldd r25,Y+31
 867 0590 0097      		sbiw r24,0
 868 0592 01F4      		brne .L41
 869 0594 00C0      		rjmp .L44
 870               	.L91:
 871               	.LM58:
 872 0596 68A1      		ldd r22,Y+32
 873 0598 79A1      		ldd r23,Y+33
 874 059a 8AA1      		ldd r24,Y+34
 875 059c 9BA1      		ldd r25,Y+35
 876 059e 0E94 0000 		call __fixunssfsi
 877 05a2 DC01      		movw r26,r24
 878 05a4 CB01      		movw r24,r22
 879 05a6 9F8F      		std Y+31,r25
 880 05a8 8E8F      		std Y+30,r24
 881               	.L37:
 882 05aa 8E8D      		ldd r24,Y+30
 883 05ac 9F8D      		ldd r25,Y+31
 884 05ae 9B8F      		std Y+27,r25
 885 05b0 8A8F      		std Y+26,r24
 886               	.LBB68:
 887               	.LBB69:
 888               	.LM59:
 889 05b2 8A8D      		ldd r24,Y+26
 890 05b4 9B8D      		ldd r25,Y+27
 891               	/* #APP */
 892               	 ;  105 "d:/winavr-20100110/lib/gcc/../../avr/include/util/delay_basic.h" 1
 893 05b6 0197      		1: sbiw r24,1
 894 05b8 01F4      		brne 1b
 895               	 ;  0 "" 2
 896               	/* #NOAPP */
 897 05ba 9B8F      		std Y+27,r25
 898 05bc 8A8F      		std Y+26,r24
 899 05be 00C0      		rjmp .L44
 900               	.L89:
 901               	.LBE69:
 902               	.LBE68:
 903               	.LBE65:
 904               	.LBE64:
 905               	.LM60:
 906 05c0 69A5      		ldd r22,Y+41
 907 05c2 7AA5      		ldd r23,Y+42
 908 05c4 8BA5      		ldd r24,Y+43
 909 05c6 9CA5      		ldd r25,Y+44
 910 05c8 0E94 0000 		call __fixunssfsi
 911 05cc DC01      		movw r26,r24
 912 05ce CB01      		movw r24,r22
 913 05d0 88A7      		std Y+40,r24
 914               	.L32:
 915 05d2 88A5      		ldd r24,Y+40
 916 05d4 898F      		std Y+25,r24
 917               	.LBB70:
 918               	.LBB71:
 919               	.LM61:
 920 05d6 898D      		ldd r24,Y+25
 921               	/* #APP */
 922               	 ;  83 "d:/winavr-20100110/lib/gcc/../../avr/include/util/delay_basic.h" 1
 923 05d8 8A95      		1: dec r24
 924 05da 01F4      		brne 1b
 925               	 ;  0 "" 2
 926               	/* #NOAPP */
 927 05dc 898F      		std Y+25,r24
 928               	.L44:
 929               	.LBE71:
 930               	.LBE70:
 931               	.LBE63:
 932               	.LBE62:
 933               	.LM62:
 934 05de EBE2      		ldi r30,lo8(43)
 935 05e0 F0E0      		ldi r31,hi8(43)
 936 05e2 8081      		ld r24,Z
 937 05e4 882F      		mov r24,r24
 938 05e6 90E0      		ldi r25,lo8(0)
 939 05e8 8072      		andi r24,lo8(32)
 940 05ea 9070      		andi r25,hi8(32)
 941 05ec 0097      		sbiw r24,0
 942 05ee 01F0      		breq .L44
 943               	.LM63:
 944 05f0 ECE2      		ldi r30,lo8(44)
 945 05f2 F0E0      		ldi r31,hi8(44)
 946 05f4 81E0      		ldi r24,lo8(1)
 947 05f6 8083      		st Z,r24
 948 05f8 80E0      		ldi r24,lo8(0x40a00000)
 949 05fa 90E0      		ldi r25,hi8(0x40a00000)
 950 05fc A0EA      		ldi r26,hlo8(0x40a00000)
 951 05fe B0E4      		ldi r27,hhi8(0x40a00000)
 952 0600 8D8B      		std Y+21,r24
 953 0602 9E8B      		std Y+22,r25
 954 0604 AF8B      		std Y+23,r26
 955 0606 B88F      		std Y+24,r27
 956               	.LBB72:
 957               	.LBB73:
 958               	.LM64:
 959 0608 6D89      		ldd r22,Y+21
 960 060a 7E89      		ldd r23,Y+22
 961 060c 8F89      		ldd r24,Y+23
 962 060e 988D      		ldd r25,Y+24
 963 0610 2BEA      		ldi r18,lo8(0x40aaaaab)
 964 0612 3AEA      		ldi r19,hi8(0x40aaaaab)
 965 0614 4AEA      		ldi r20,hlo8(0x40aaaaab)
 966 0616 50E4      		ldi r21,hhi8(0x40aaaaab)
 967 0618 0E94 0000 		call __mulsf3
 968 061c DC01      		movw r26,r24
 969 061e CB01      		movw r24,r22
 970 0620 898B      		std Y+17,r24
 971 0622 9A8B      		std Y+18,r25
 972 0624 AB8B      		std Y+19,r26
 973 0626 BC8B      		std Y+20,r27
 974               	.LM65:
 975 0628 6989      		ldd r22,Y+17
 976 062a 7A89      		ldd r23,Y+18
 977 062c 8B89      		ldd r24,Y+19
 978 062e 9C89      		ldd r25,Y+20
 979 0630 20E0      		ldi r18,lo8(0x3f800000)
 980 0632 30E0      		ldi r19,hi8(0x3f800000)
 981 0634 40E8      		ldi r20,hlo8(0x3f800000)
 982 0636 5FE3      		ldi r21,hhi8(0x3f800000)
 983 0638 0E94 0000 		call __ltsf2
 984 063c 8823      		tst r24
 985 063e 04F4      		brge .L92
 986               	.L76:
 987               	.LM66:
 988 0640 81E0      		ldi r24,lo8(1)
 989 0642 888B      		std Y+16,r24
 990 0644 00C0      		rjmp .L47
 991               	.L92:
 992               	.LM67:
 993 0646 6989      		ldd r22,Y+17
 994 0648 7A89      		ldd r23,Y+18
 995 064a 8B89      		ldd r24,Y+19
 996 064c 9C89      		ldd r25,Y+20
 997 064e 20E0      		ldi r18,lo8(0x437f0000)
 998 0650 30E0      		ldi r19,hi8(0x437f0000)
 999 0652 4FE7      		ldi r20,hlo8(0x437f0000)
 1000 0654 53E4      		ldi r21,hhi8(0x437f0000)
 1001 0656 0E94 0000 		call __gtsf2
 1002 065a 1816      		cp __zero_reg__,r24
 1003 065c 04F0      		brlt .+2
 1004 065e 00C0      		rjmp .L93
 1005               	.L77:
 1006               	.LM68:
 1007 0660 6D89      		ldd r22,Y+21
 1008 0662 7E89      		ldd r23,Y+22
 1009 0664 8F89      		ldd r24,Y+23
 1010 0666 988D      		ldd r25,Y+24
 1011 0668 20E0      		ldi r18,lo8(0x447a0000)
 1012 066a 30E0      		ldi r19,hi8(0x447a0000)
 1013 066c 4AE7      		ldi r20,hlo8(0x447a0000)
 1014 066e 54E4      		ldi r21,hhi8(0x447a0000)
 1015 0670 0E94 0000 		call __divsf3
 1016 0674 DC01      		movw r26,r24
 1017 0676 CB01      		movw r24,r22
 1018 0678 8C87      		std Y+12,r24
 1019 067a 9D87      		std Y+13,r25
 1020 067c AE87      		std Y+14,r26
 1021 067e BF87      		std Y+15,r27
 1022               	.LBB74:
 1023               	.LBB75:
 1024               	.LM69:
 1025 0680 6C85      		ldd r22,Y+12
 1026 0682 7D85      		ldd r23,Y+13
 1027 0684 8E85      		ldd r24,Y+14
 1028 0686 9F85      		ldd r25,Y+15
 1029 0688 20E0      		ldi r18,lo8(0x457a0000)
 1030 068a 30E0      		ldi r19,hi8(0x457a0000)
 1031 068c 4AE7      		ldi r20,hlo8(0x457a0000)
 1032 068e 55E4      		ldi r21,hhi8(0x457a0000)
 1033 0690 0E94 0000 		call __mulsf3
 1034 0694 DC01      		movw r26,r24
 1035 0696 CB01      		movw r24,r22
 1036 0698 8887      		std Y+8,r24
 1037 069a 9987      		std Y+9,r25
 1038 069c AA87      		std Y+10,r26
 1039 069e BB87      		std Y+11,r27
 1040               	.LM70:
 1041 06a0 6885      		ldd r22,Y+8
 1042 06a2 7985      		ldd r23,Y+9
 1043 06a4 8A85      		ldd r24,Y+10
 1044 06a6 9B85      		ldd r25,Y+11
 1045 06a8 20E0      		ldi r18,lo8(0x3f800000)
 1046 06aa 30E0      		ldi r19,hi8(0x3f800000)
 1047 06ac 40E8      		ldi r20,hlo8(0x3f800000)
 1048 06ae 5FE3      		ldi r21,hhi8(0x3f800000)
 1049 06b0 0E94 0000 		call __ltsf2
 1050 06b4 8823      		tst r24
 1051 06b6 04F4      		brge .L94
 1052               	.L78:
 1053               	.LM71:
 1054 06b8 81E0      		ldi r24,lo8(1)
 1055 06ba 90E0      		ldi r25,hi8(1)
 1056 06bc 9F83      		std Y+7,r25
 1057 06be 8E83      		std Y+6,r24
 1058 06c0 00C0      		rjmp .L52
 1059               	.L94:
 1060               	.LM72:
 1061 06c2 6885      		ldd r22,Y+8
 1062 06c4 7985      		ldd r23,Y+9
 1063 06c6 8A85      		ldd r24,Y+10
 1064 06c8 9B85      		ldd r25,Y+11
 1065 06ca 20E0      		ldi r18,lo8(0x477fff00)
 1066 06cc 3FEF      		ldi r19,hi8(0x477fff00)
 1067 06ce 4FE7      		ldi r20,hlo8(0x477fff00)
 1068 06d0 57E4      		ldi r21,hhi8(0x477fff00)
 1069 06d2 0E94 0000 		call __gtsf2
 1070 06d6 1816      		cp __zero_reg__,r24
 1071 06d8 04F4      		brge .L95
 1072               	.L79:
 1073               	.LM73:
 1074 06da 6C85      		ldd r22,Y+12
 1075 06dc 7D85      		ldd r23,Y+13
 1076 06de 8E85      		ldd r24,Y+14
 1077 06e0 9F85      		ldd r25,Y+15
 1078 06e2 20E0      		ldi r18,lo8(0x41200000)
 1079 06e4 30E0      		ldi r19,hi8(0x41200000)
 1080 06e6 40E2      		ldi r20,hlo8(0x41200000)
 1081 06e8 51E4      		ldi r21,hhi8(0x41200000)
 1082 06ea 0E94 0000 		call __mulsf3
 1083 06ee DC01      		movw r26,r24
 1084 06f0 CB01      		movw r24,r22
 1085 06f2 BC01      		movw r22,r24
 1086 06f4 CD01      		movw r24,r26
 1087 06f6 0E94 0000 		call __fixunssfsi
 1088 06fa DC01      		movw r26,r24
 1089 06fc CB01      		movw r24,r22
 1090 06fe 9F83      		std Y+7,r25
 1091 0700 8E83      		std Y+6,r24
 1092 0702 00C0      		rjmp .L55
 1093               	.L56:
 1094 0704 80E9      		ldi r24,lo8(400)
 1095 0706 91E0      		ldi r25,hi8(400)
 1096 0708 9D83      		std Y+5,r25
 1097 070a 8C83      		std Y+4,r24
 1098               	.LBB76:
 1099               	.LBB77:
 1100               	.LM74:
 1101 070c 8C81      		ldd r24,Y+4
 1102 070e 9D81      		ldd r25,Y+5
 1103               	/* #APP */
 1104               	 ;  105 "d:/winavr-20100110/lib/gcc/../../avr/include/util/delay_basic.h" 1
 1105 0710 0197      		1: sbiw r24,1
 1106 0712 01F4      		brne 1b
 1107               	 ;  0 "" 2
 1108               	/* #NOAPP */
 1109 0714 9D83      		std Y+5,r25
 1110 0716 8C83      		std Y+4,r24
 1111               	.LBE77:
 1112               	.LBE76:
 1113               	.LM75:
 1114 0718 8E81      		ldd r24,Y+6
 1115 071a 9F81      		ldd r25,Y+7
 1116 071c 0197      		sbiw r24,1
 1117 071e 9F83      		std Y+7,r25
 1118 0720 8E83      		std Y+6,r24
 1119               	.L55:
 1120               	.LM76:
 1121 0722 8E81      		ldd r24,Y+6
 1122 0724 9F81      		ldd r25,Y+7
 1123 0726 0097      		sbiw r24,0
 1124 0728 01F4      		brne .L56
 1125 072a 00C0      		rjmp .L59
 1126               	.L95:
 1127               	.LM77:
 1128 072c 6885      		ldd r22,Y+8
 1129 072e 7985      		ldd r23,Y+9
 1130 0730 8A85      		ldd r24,Y+10
 1131 0732 9B85      		ldd r25,Y+11
 1132 0734 0E94 0000 		call __fixunssfsi
 1133 0738 DC01      		movw r26,r24
 1134 073a CB01      		movw r24,r22
 1135 073c 9F83      		std Y+7,r25
 1136 073e 8E83      		std Y+6,r24
 1137               	.L52:
 1138 0740 8E81      		ldd r24,Y+6
 1139 0742 9F81      		ldd r25,Y+7
 1140 0744 9B83      		std Y+3,r25
 1141 0746 8A83      		std Y+2,r24
 1142               	.LBB78:
 1143               	.LBB79:
 1144               	.LM78:
 1145 0748 8A81      		ldd r24,Y+2
 1146 074a 9B81      		ldd r25,Y+3
 1147               	/* #APP */
 1148               	 ;  105 "d:/winavr-20100110/lib/gcc/../../avr/include/util/delay_basic.h" 1
 1149 074c 0197      		1: sbiw r24,1
 1150 074e 01F4      		brne 1b
 1151               	 ;  0 "" 2
 1152               	/* #NOAPP */
 1153 0750 9B83      		std Y+3,r25
 1154 0752 8A83      		std Y+2,r24
 1155 0754 00C0      		rjmp .L59
 1156               	.L93:
 1157               	.LBE79:
 1158               	.LBE78:
 1159               	.LBE75:
 1160               	.LBE74:
 1161               	.LM79:
 1162 0756 6989      		ldd r22,Y+17
 1163 0758 7A89      		ldd r23,Y+18
 1164 075a 8B89      		ldd r24,Y+19
 1165 075c 9C89      		ldd r25,Y+20
 1166 075e 0E94 0000 		call __fixunssfsi
 1167 0762 DC01      		movw r26,r24
 1168 0764 CB01      		movw r24,r22
 1169 0766 888B      		std Y+16,r24
 1170               	.L47:
 1171 0768 8889      		ldd r24,Y+16
 1172 076a 8983      		std Y+1,r24
 1173               	.LBB80:
 1174               	.LBB81:
 1175               	.LM80:
 1176 076c 8981      		ldd r24,Y+1
 1177               	/* #APP */
 1178               	 ;  83 "d:/winavr-20100110/lib/gcc/../../avr/include/util/delay_basic.h" 1
 1179 076e 8A95      		1: dec r24
 1180 0770 01F4      		brne 1b
 1181               	 ;  0 "" 2
 1182               	/* #NOAPP */
 1183 0772 8983      		std Y+1,r24
 1184               	.L59:
 1185               	.LBE81:
 1186               	.LBE80:
 1187               	.LBE73:
 1188               	.LBE72:
 1189               	.LM81:
 1190 0774 EBE2      		ldi r30,lo8(43)
 1191 0776 F0E0      		ldi r31,hi8(43)
 1192 0778 8081      		ld r24,Z
 1193 077a 882F      		mov r24,r24
 1194 077c 90E0      		ldi r25,lo8(0)
 1195 077e 8072      		andi r24,lo8(32)
 1196 0780 9070      		andi r25,hi8(32)
 1197 0782 0097      		sbiw r24,0
 1198 0784 01F0      		breq .L59
 1199               	.LM82:
 1200 0786 ECE2      		ldi r30,lo8(44)
 1201 0788 F0E0      		ldi r31,hi8(44)
 1202 078a 8091 0000 		lds r24,PS2data5
 1203 078e 8083      		st Z,r24
 1204               	.L60:
 1205               	.LM83:
 1206 0790 EBE2      		ldi r30,lo8(43)
 1207 0792 F0E0      		ldi r31,hi8(43)
 1208 0794 8081      		ld r24,Z
 1209 0796 882F      		mov r24,r24
 1210 0798 90E0      		ldi r25,lo8(0)
 1211 079a 8072      		andi r24,lo8(32)
 1212 079c 9070      		andi r25,hi8(32)
 1213 079e 0097      		sbiw r24,0
 1214 07a0 01F0      		breq .L60
 1215               	.LM84:
 1216 07a2 ECE2      		ldi r30,lo8(44)
 1217 07a4 F0E0      		ldi r31,hi8(44)
 1218 07a6 8091 0000 		lds r24,PS2data8
 1219 07aa 8083      		st Z,r24
 1220               	.L61:
 1221               	.LM85:
 1222 07ac EBE2      		ldi r30,lo8(43)
 1223 07ae F0E0      		ldi r31,hi8(43)
 1224 07b0 8081      		ld r24,Z
 1225 07b2 882F      		mov r24,r24
 1226 07b4 90E0      		ldi r25,lo8(0)
 1227 07b6 8072      		andi r24,lo8(32)
 1228 07b8 9070      		andi r25,hi8(32)
 1229 07ba 0097      		sbiw r24,0
 1230 07bc 01F0      		breq .L61
 1231               	.LM86:
 1232 07be ECE2      		ldi r30,lo8(44)
 1233 07c0 F0E0      		ldi r31,hi8(44)
 1234 07c2 8091 0000 		lds r24,PS2data7
 1235 07c6 8083      		st Z,r24
 1236 07c8 00C0      		rjmp .L62
 1237               	.LFE6:
 1239               	.global	ReadGamepad
 1241               	ReadGamepad:
 1242               	.LFB7:
 1243               	.LM87:
 1244 07ca 0F93      		push r16
 1245 07cc 1F93      		push r17
 1246 07ce DF93      		push r29
 1247 07d0 CF93      		push r28
 1248 07d2 CDB7      		in r28,__SP_L__
 1249 07d4 DEB7      		in r29,__SP_H__
 1250 07d6 C058      		subi r28,lo8(-(-384))
 1251 07d8 D140      		sbci r29,hi8(-(-384))
 1252 07da 0FB6      		in __tmp_reg__,__SREG__
 1253 07dc F894      		cli
 1254 07de DEBF      		out __SP_H__,r29
 1255 07e0 0FBE      		out __SREG__,__tmp_reg__
 1256 07e2 CDBF      		out __SP_L__,r28
 1257               	/* prologue: function */
 1258               	/* frame size = 384 */
 1259               	.LM88:
 1260 07e4 A5E3      		ldi r26,lo8(53)
 1261 07e6 B0E0      		ldi r27,hi8(53)
 1262 07e8 E5E3      		ldi r30,lo8(53)
 1263 07ea F0E0      		ldi r31,hi8(53)
 1264 07ec 8081      		ld r24,Z
 1265 07ee 8460      		ori r24,lo8(4)
 1266 07f0 8C93      		st X,r24
 1267               	.LM89:
 1268 07f2 A5E3      		ldi r26,lo8(53)
 1269 07f4 B0E0      		ldi r27,hi8(53)
 1270 07f6 E5E3      		ldi r30,lo8(53)
 1271 07f8 F0E0      		ldi r31,hi8(53)
 1272 07fa 8081      		ld r24,Z
 1273 07fc 8160      		ori r24,lo8(1)
 1274 07fe 8C93      		st X,r24
 1275               	.LM90:
 1276 0800 A5E3      		ldi r26,lo8(53)
 1277 0802 B0E0      		ldi r27,hi8(53)
 1278 0804 E5E3      		ldi r30,lo8(53)
 1279 0806 F0E0      		ldi r31,hi8(53)
 1280 0808 8081      		ld r24,Z
 1281 080a 8F7E      		andi r24,lo8(-17)
 1282 080c 8C93      		st X,r24
 1283 080e FE01      		movw r30,r28
 1284 0810 E358      		subi r30,lo8(-(381))
 1285 0812 FE4F      		sbci r31,hi8(-(381))
 1286 0814 80E0      		ldi r24,lo8(0x3f800000)
 1287 0816 90E0      		ldi r25,hi8(0x3f800000)
 1288 0818 A0E8      		ldi r26,hlo8(0x3f800000)
 1289 081a BFE3      		ldi r27,hhi8(0x3f800000)
 1290 081c 8083      		st Z,r24
 1291 081e 9183      		std Z+1,r25
 1292 0820 A283      		std Z+2,r26
 1293 0822 B383      		std Z+3,r27
 1294               	.LBB242:
 1295               	.LBB243:
 1296               	.LM91:
 1297 0824 8E01      		movw r16,r28
 1298 0826 0758      		subi r16,lo8(-(377))
 1299 0828 1E4F      		sbci r17,hi8(-(377))
 1300 082a FE01      		movw r30,r28
 1301 082c E358      		subi r30,lo8(-(381))
 1302 082e FE4F      		sbci r31,hi8(-(381))
 1303 0830 6081      		ld r22,Z
 1304 0832 7181      		ldd r23,Z+1
 1305 0834 8281      		ldd r24,Z+2
 1306 0836 9381      		ldd r25,Z+3
 1307 0838 2BEA      		ldi r18,lo8(0x40aaaaab)
 1308 083a 3AEA      		ldi r19,hi8(0x40aaaaab)
 1309 083c 4AEA      		ldi r20,hlo8(0x40aaaaab)
 1310 083e 50E4      		ldi r21,hhi8(0x40aaaaab)
 1311 0840 0E94 0000 		call __mulsf3
 1312 0844 DC01      		movw r26,r24
 1313 0846 CB01      		movw r24,r22
 1314 0848 F801      		movw r30,r16
 1315 084a 8083      		st Z,r24
 1316 084c 9183      		std Z+1,r25
 1317 084e A283      		std Z+2,r26
 1318 0850 B383      		std Z+3,r27
 1319               	.LM92:
 1320 0852 FE01      		movw r30,r28
 1321 0854 E758      		subi r30,lo8(-(377))
 1322 0856 FE4F      		sbci r31,hi8(-(377))
 1323 0858 6081      		ld r22,Z
 1324 085a 7181      		ldd r23,Z+1
 1325 085c 8281      		ldd r24,Z+2
 1326 085e 9381      		ldd r25,Z+3
 1327 0860 20E0      		ldi r18,lo8(0x3f800000)
 1328 0862 30E0      		ldi r19,hi8(0x3f800000)
 1329 0864 40E8      		ldi r20,hlo8(0x3f800000)
 1330 0866 5FE3      		ldi r21,hhi8(0x3f800000)
 1331 0868 0E94 0000 		call __ltsf2
 1332 086c 8823      		tst r24
 1333 086e 04F4      		brge .L414
 1334               	.L350:
 1335               	.LM93:
 1336 0870 FE01      		movw r30,r28
 1337 0872 E858      		subi r30,lo8(-(376))
 1338 0874 FE4F      		sbci r31,hi8(-(376))
 1339 0876 81E0      		ldi r24,lo8(1)
 1340 0878 8083      		st Z,r24
 1341 087a 00C0      		rjmp .L99
 1342               	.L414:
 1343               	.LM94:
 1344 087c FE01      		movw r30,r28
 1345 087e E758      		subi r30,lo8(-(377))
 1346 0880 FE4F      		sbci r31,hi8(-(377))
 1347 0882 6081      		ld r22,Z
 1348 0884 7181      		ldd r23,Z+1
 1349 0886 8281      		ldd r24,Z+2
 1350 0888 9381      		ldd r25,Z+3
 1351 088a 20E0      		ldi r18,lo8(0x437f0000)
 1352 088c 30E0      		ldi r19,hi8(0x437f0000)
 1353 088e 4FE7      		ldi r20,hlo8(0x437f0000)
 1354 0890 53E4      		ldi r21,hhi8(0x437f0000)
 1355 0892 0E94 0000 		call __gtsf2
 1356 0896 1816      		cp __zero_reg__,r24
 1357 0898 04F0      		brlt .+2
 1358 089a 00C0      		rjmp .L415
 1359               	.L351:
 1360               	.LM95:
 1361 089c FE01      		movw r30,r28
 1362 089e E358      		subi r30,lo8(-(381))
 1363 08a0 FE4F      		sbci r31,hi8(-(381))
 1364 08a2 6081      		ld r22,Z
 1365 08a4 7181      		ldd r23,Z+1
 1366 08a6 8281      		ldd r24,Z+2
 1367 08a8 9381      		ldd r25,Z+3
 1368 08aa 20E0      		ldi r18,lo8(0x447a0000)
 1369 08ac 30E0      		ldi r19,hi8(0x447a0000)
 1370 08ae 4AE7      		ldi r20,hlo8(0x447a0000)
 1371 08b0 54E4      		ldi r21,hhi8(0x447a0000)
 1372 08b2 0E94 0000 		call __divsf3
 1373 08b6 DC01      		movw r26,r24
 1374 08b8 CB01      		movw r24,r22
 1375 08ba FE01      		movw r30,r28
 1376 08bc EC58      		subi r30,lo8(-(372))
 1377 08be FE4F      		sbci r31,hi8(-(372))
 1378 08c0 8083      		st Z,r24
 1379 08c2 9183      		std Z+1,r25
 1380 08c4 A283      		std Z+2,r26
 1381 08c6 B383      		std Z+3,r27
 1382               	.LBB244:
 1383               	.LBB245:
 1384               	.LM96:
 1385 08c8 8E01      		movw r16,r28
 1386 08ca 0059      		subi r16,lo8(-(368))
 1387 08cc 1E4F      		sbci r17,hi8(-(368))
 1388 08ce FE01      		movw r30,r28
 1389 08d0 EC58      		subi r30,lo8(-(372))
 1390 08d2 FE4F      		sbci r31,hi8(-(372))
 1391 08d4 6081      		ld r22,Z
 1392 08d6 7181      		ldd r23,Z+1
 1393 08d8 8281      		ldd r24,Z+2
 1394 08da 9381      		ldd r25,Z+3
 1395 08dc 20E0      		ldi r18,lo8(0x457a0000)
 1396 08de 30E0      		ldi r19,hi8(0x457a0000)
 1397 08e0 4AE7      		ldi r20,hlo8(0x457a0000)
 1398 08e2 55E4      		ldi r21,hhi8(0x457a0000)
 1399 08e4 0E94 0000 		call __mulsf3
 1400 08e8 DC01      		movw r26,r24
 1401 08ea CB01      		movw r24,r22
 1402 08ec F801      		movw r30,r16
 1403 08ee 8083      		st Z,r24
 1404 08f0 9183      		std Z+1,r25
 1405 08f2 A283      		std Z+2,r26
 1406 08f4 B383      		std Z+3,r27
 1407               	.LM97:
 1408 08f6 FE01      		movw r30,r28
 1409 08f8 E059      		subi r30,lo8(-(368))
 1410 08fa FE4F      		sbci r31,hi8(-(368))
 1411 08fc 6081      		ld r22,Z
 1412 08fe 7181      		ldd r23,Z+1
 1413 0900 8281      		ldd r24,Z+2
 1414 0902 9381      		ldd r25,Z+3
 1415 0904 20E0      		ldi r18,lo8(0x3f800000)
 1416 0906 30E0      		ldi r19,hi8(0x3f800000)
 1417 0908 40E8      		ldi r20,hlo8(0x3f800000)
 1418 090a 5FE3      		ldi r21,hhi8(0x3f800000)
 1419 090c 0E94 0000 		call __ltsf2
 1420 0910 8823      		tst r24
 1421 0912 04F4      		brge .L416
 1422               	.L352:
 1423               	.LM98:
 1424 0914 FE01      		movw r30,r28
 1425 0916 E259      		subi r30,lo8(-(366))
 1426 0918 FE4F      		sbci r31,hi8(-(366))
 1427 091a 81E0      		ldi r24,lo8(1)
 1428 091c 90E0      		ldi r25,hi8(1)
 1429 091e 9183      		std Z+1,r25
 1430 0920 8083      		st Z,r24
 1431 0922 00C0      		rjmp .L104
 1432               	.L416:
 1433               	.LM99:
 1434 0924 FE01      		movw r30,r28
 1435 0926 E059      		subi r30,lo8(-(368))
 1436 0928 FE4F      		sbci r31,hi8(-(368))
 1437 092a 6081      		ld r22,Z
 1438 092c 7181      		ldd r23,Z+1
 1439 092e 8281      		ldd r24,Z+2
 1440 0930 9381      		ldd r25,Z+3
 1441 0932 20E0      		ldi r18,lo8(0x477fff00)
 1442 0934 3FEF      		ldi r19,hi8(0x477fff00)
 1443 0936 4FE7      		ldi r20,hlo8(0x477fff00)
 1444 0938 57E4      		ldi r21,hhi8(0x477fff00)
 1445 093a 0E94 0000 		call __gtsf2
 1446 093e 1816      		cp __zero_reg__,r24
 1447 0940 04F0      		brlt .+2
 1448 0942 00C0      		rjmp .L417
 1449               	.L353:
 1450               	.LM100:
 1451 0944 FE01      		movw r30,r28
 1452 0946 EC58      		subi r30,lo8(-(372))
 1453 0948 FE4F      		sbci r31,hi8(-(372))
 1454 094a 6081      		ld r22,Z
 1455 094c 7181      		ldd r23,Z+1
 1456 094e 8281      		ldd r24,Z+2
 1457 0950 9381      		ldd r25,Z+3
 1458 0952 20E0      		ldi r18,lo8(0x41200000)
 1459 0954 30E0      		ldi r19,hi8(0x41200000)
 1460 0956 40E2      		ldi r20,hlo8(0x41200000)
 1461 0958 51E4      		ldi r21,hhi8(0x41200000)
 1462 095a 0E94 0000 		call __mulsf3
 1463 095e DC01      		movw r26,r24
 1464 0960 CB01      		movw r24,r22
 1465 0962 8E01      		movw r16,r28
 1466 0964 0259      		subi r16,lo8(-(366))
 1467 0966 1E4F      		sbci r17,hi8(-(366))
 1468 0968 BC01      		movw r22,r24
 1469 096a CD01      		movw r24,r26
 1470 096c 0E94 0000 		call __fixunssfsi
 1471 0970 DC01      		movw r26,r24
 1472 0972 CB01      		movw r24,r22
 1473 0974 F801      		movw r30,r16
 1474 0976 9183      		std Z+1,r25
 1475 0978 8083      		st Z,r24
 1476 097a 00C0      		rjmp .L107
 1477               	.L108:
 1478 097c FE01      		movw r30,r28
 1479 097e E459      		subi r30,lo8(-(364))
 1480 0980 FE4F      		sbci r31,hi8(-(364))
 1481 0982 80E9      		ldi r24,lo8(400)
 1482 0984 91E0      		ldi r25,hi8(400)
 1483 0986 9183      		std Z+1,r25
 1484 0988 8083      		st Z,r24
 1485               	.LBB246:
 1486               	.LBB247:
 1487               	.LM101:
 1488 098a FE01      		movw r30,r28
 1489 098c E459      		subi r30,lo8(-(364))
 1490 098e FE4F      		sbci r31,hi8(-(364))
 1491 0990 8081      		ld r24,Z
 1492 0992 9181      		ldd r25,Z+1
 1493               	/* #APP */
 1494               	 ;  105 "d:/winavr-20100110/lib/gcc/../../avr/include/util/delay_basic.h" 1
 1495 0994 0197      		1: sbiw r24,1
 1496 0996 01F4      		brne 1b
 1497               	 ;  0 "" 2
 1498               	/* #NOAPP */
 1499 0998 FE01      		movw r30,r28
 1500 099a E459      		subi r30,lo8(-(364))
 1501 099c FE4F      		sbci r31,hi8(-(364))
 1502 099e 9183      		std Z+1,r25
 1503 09a0 8083      		st Z,r24
 1504               	.LBE247:
 1505               	.LBE246:
 1506               	.LM102:
 1507 09a2 DE01      		movw r26,r28
 1508 09a4 A259      		subi r26,lo8(-(366))
 1509 09a6 BE4F      		sbci r27,hi8(-(366))
 1510 09a8 FE01      		movw r30,r28
 1511 09aa E259      		subi r30,lo8(-(366))
 1512 09ac FE4F      		sbci r31,hi8(-(366))
 1513 09ae 8081      		ld r24,Z
 1514 09b0 9181      		ldd r25,Z+1
 1515 09b2 0197      		sbiw r24,1
 1516 09b4 1196      		adiw r26,1
 1517 09b6 9C93      		st X,r25
 1518 09b8 8E93      		st -X,r24
 1519               	.L107:
 1520               	.LM103:
 1521 09ba FE01      		movw r30,r28
 1522 09bc E259      		subi r30,lo8(-(366))
 1523 09be FE4F      		sbci r31,hi8(-(366))
 1524 09c0 8081      		ld r24,Z
 1525 09c2 9181      		ldd r25,Z+1
 1526 09c4 0097      		sbiw r24,0
 1527 09c6 01F4      		brne .L108
 1528 09c8 00C0      		rjmp .L110
 1529               	.L417:
 1530               	.LM104:
 1531 09ca 8E01      		movw r16,r28
 1532 09cc 0259      		subi r16,lo8(-(366))
 1533 09ce 1E4F      		sbci r17,hi8(-(366))
 1534 09d0 FE01      		movw r30,r28
 1535 09d2 E059      		subi r30,lo8(-(368))
 1536 09d4 FE4F      		sbci r31,hi8(-(368))
 1537 09d6 6081      		ld r22,Z
 1538 09d8 7181      		ldd r23,Z+1
 1539 09da 8281      		ldd r24,Z+2
 1540 09dc 9381      		ldd r25,Z+3
 1541 09de 0E94 0000 		call __fixunssfsi
 1542 09e2 DC01      		movw r26,r24
 1543 09e4 CB01      		movw r24,r22
 1544 09e6 F801      		movw r30,r16
 1545 09e8 9183      		std Z+1,r25
 1546 09ea 8083      		st Z,r24
 1547               	.L104:
 1548 09ec DE01      		movw r26,r28
 1549 09ee A659      		subi r26,lo8(-(362))
 1550 09f0 BE4F      		sbci r27,hi8(-(362))
 1551 09f2 FE01      		movw r30,r28
 1552 09f4 E259      		subi r30,lo8(-(366))
 1553 09f6 FE4F      		sbci r31,hi8(-(366))
 1554 09f8 8081      		ld r24,Z
 1555 09fa 9181      		ldd r25,Z+1
 1556 09fc 1196      		adiw r26,1
 1557 09fe 9C93      		st X,r25
 1558 0a00 8E93      		st -X,r24
 1559               	.LBB248:
 1560               	.LBB249:
 1561               	.LM105:
 1562 0a02 FE01      		movw r30,r28
 1563 0a04 E659      		subi r30,lo8(-(362))
 1564 0a06 FE4F      		sbci r31,hi8(-(362))
 1565 0a08 8081      		ld r24,Z
 1566 0a0a 9181      		ldd r25,Z+1
 1567               	/* #APP */
 1568               	 ;  105 "d:/winavr-20100110/lib/gcc/../../avr/include/util/delay_basic.h" 1
 1569 0a0c 0197      		1: sbiw r24,1
 1570 0a0e 01F4      		brne 1b
 1571               	 ;  0 "" 2
 1572               	/* #NOAPP */
 1573 0a10 FE01      		movw r30,r28
 1574 0a12 E659      		subi r30,lo8(-(362))
 1575 0a14 FE4F      		sbci r31,hi8(-(362))
 1576 0a16 9183      		std Z+1,r25
 1577 0a18 8083      		st Z,r24
 1578 0a1a 00C0      		rjmp .L110
 1579               	.L415:
 1580               	.LBE249:
 1581               	.LBE248:
 1582               	.LBE245:
 1583               	.LBE244:
 1584               	.LM106:
 1585 0a1c 8E01      		movw r16,r28
 1586 0a1e 0858      		subi r16,lo8(-(376))
 1587 0a20 1E4F      		sbci r17,hi8(-(376))
 1588 0a22 FE01      		movw r30,r28
 1589 0a24 E758      		subi r30,lo8(-(377))
 1590 0a26 FE4F      		sbci r31,hi8(-(377))
 1591 0a28 6081      		ld r22,Z
 1592 0a2a 7181      		ldd r23,Z+1
 1593 0a2c 8281      		ldd r24,Z+2
 1594 0a2e 9381      		ldd r25,Z+3
 1595 0a30 0E94 0000 		call __fixunssfsi
 1596 0a34 DC01      		movw r26,r24
 1597 0a36 CB01      		movw r24,r22
 1598 0a38 F801      		movw r30,r16
 1599 0a3a 8083      		st Z,r24
 1600               	.L99:
 1601 0a3c DE01      		movw r26,r28
 1602 0a3e A759      		subi r26,lo8(-(361))
 1603 0a40 BE4F      		sbci r27,hi8(-(361))
 1604 0a42 FE01      		movw r30,r28
 1605 0a44 E858      		subi r30,lo8(-(376))
 1606 0a46 FE4F      		sbci r31,hi8(-(376))
 1607 0a48 8081      		ld r24,Z
 1608 0a4a 8C93      		st X,r24
 1609               	.LBB250:
 1610               	.LBB251:
 1611               	.LM107:
 1612 0a4c FE01      		movw r30,r28
 1613 0a4e E759      		subi r30,lo8(-(361))
 1614 0a50 FE4F      		sbci r31,hi8(-(361))
 1615 0a52 8081      		ld r24,Z
 1616               	/* #APP */
 1617               	 ;  83 "d:/winavr-20100110/lib/gcc/../../avr/include/util/delay_basic.h" 1
 1618 0a54 8A95      		1: dec r24
 1619 0a56 01F4      		brne 1b
 1620               	 ;  0 "" 2
 1621               	/* #NOAPP */
 1622 0a58 FE01      		movw r30,r28
 1623 0a5a E759      		subi r30,lo8(-(361))
 1624 0a5c FE4F      		sbci r31,hi8(-(361))
 1625 0a5e 8083      		st Z,r24
 1626               	.L110:
 1627               	.LBE251:
 1628               	.LBE250:
 1629               	.LBE243:
 1630               	.LBE242:
 1631               	.LM108:
 1632 0a60 81E0      		ldi r24,lo8(1)
 1633 0a62 8093 0000 		sts PS2byte,r24
 1634               	.LM109:
 1635 0a66 1092 0000 		sts i,__zero_reg__
 1636 0a6a 00C0      		rjmp .L111
 1637               	.L114:
 1638               	.LM110:
 1639 0a6c 8091 0000 		lds r24,PS2byte
 1640 0a70 282F      		mov r18,r24
 1641 0a72 30E0      		ldi r19,lo8(0)
 1642 0a74 8091 0000 		lds r24,i
 1643 0a78 882F      		mov r24,r24
 1644 0a7a 90E0      		ldi r25,lo8(0)
 1645 0a7c A901      		movw r20,r18
 1646 0a7e 00C0      		rjmp 2f
 1647 0a80 5595      	1:	asr r21
 1648 0a82 4795      		ror r20
 1649 0a84 8A95      	2:	dec r24
 1650 0a86 02F4      		brpl 1b
 1651 0a88 CA01      		movw r24,r20
 1652 0a8a 8170      		andi r24,lo8(1)
 1653 0a8c 9070      		andi r25,hi8(1)
 1654 0a8e 8823      		tst r24
 1655 0a90 01F0      		breq .L112
 1656 0a92 A5E3      		ldi r26,lo8(53)
 1657 0a94 B0E0      		ldi r27,hi8(53)
 1658 0a96 E5E3      		ldi r30,lo8(53)
 1659 0a98 F0E0      		ldi r31,hi8(53)
 1660 0a9a 8081      		ld r24,Z
 1661 0a9c 8460      		ori r24,lo8(4)
 1662 0a9e 8C93      		st X,r24
 1663 0aa0 00C0      		rjmp .L113
 1664               	.L112:
 1665               	.LM111:
 1666 0aa2 A5E3      		ldi r26,lo8(53)
 1667 0aa4 B0E0      		ldi r27,hi8(53)
 1668 0aa6 E5E3      		ldi r30,lo8(53)
 1669 0aa8 F0E0      		ldi r31,hi8(53)
 1670 0aaa 8081      		ld r24,Z
 1671 0aac 8B7F      		andi r24,lo8(-5)
 1672 0aae 8C93      		st X,r24
 1673               	.L113:
 1674               	.LM112:
 1675 0ab0 A5E3      		ldi r26,lo8(53)
 1676 0ab2 B0E0      		ldi r27,hi8(53)
 1677 0ab4 E5E3      		ldi r30,lo8(53)
 1678 0ab6 F0E0      		ldi r31,hi8(53)
 1679 0ab8 8081      		ld r24,Z
 1680 0aba 8E7F      		andi r24,lo8(-2)
 1681 0abc 8C93      		st X,r24
 1682               	.LM113:
 1683 0abe A5E3      		ldi r26,lo8(53)
 1684 0ac0 B0E0      		ldi r27,hi8(53)
 1685 0ac2 E5E3      		ldi r30,lo8(53)
 1686 0ac4 F0E0      		ldi r31,hi8(53)
 1687 0ac6 8081      		ld r24,Z
 1688 0ac8 8160      		ori r24,lo8(1)
 1689 0aca 8C93      		st X,r24
 1690               	.LM114:
 1691 0acc 8091 0000 		lds r24,i
 1692 0ad0 8F5F      		subi r24,lo8(-(1))
 1693 0ad2 8093 0000 		sts i,r24
 1694               	.L111:
 1695 0ad6 8091 0000 		lds r24,i
 1696 0ada 8830      		cpi r24,lo8(8)
 1697 0adc 00F0      		brlo .L114
 1698               	.LM115:
 1699 0ade A5E3      		ldi r26,lo8(53)
 1700 0ae0 B0E0      		ldi r27,hi8(53)
 1701 0ae2 E5E3      		ldi r30,lo8(53)
 1702 0ae4 F0E0      		ldi r31,hi8(53)
 1703 0ae6 8081      		ld r24,Z
 1704 0ae8 8460      		ori r24,lo8(4)
 1705 0aea 8C93      		st X,r24
 1706 0aec FE01      		movw r30,r28
 1707 0aee EB59      		subi r30,lo8(-(357))
 1708 0af0 FE4F      		sbci r31,hi8(-(357))
 1709 0af2 80E0      		ldi r24,lo8(0x3f800000)
 1710 0af4 90E0      		ldi r25,hi8(0x3f800000)
 1711 0af6 A0E8      		ldi r26,hlo8(0x3f800000)
 1712 0af8 BFE3      		ldi r27,hhi8(0x3f800000)
 1713 0afa 8083      		st Z,r24
 1714 0afc 9183      		std Z+1,r25
 1715 0afe A283      		std Z+2,r26
 1716 0b00 B383      		std Z+3,r27
 1717               	.LBB252:
 1718               	.LBB253:
 1719               	.LM116:
 1720 0b02 8E01      		movw r16,r28
 1721 0b04 0F59      		subi r16,lo8(-(353))
 1722 0b06 1E4F      		sbci r17,hi8(-(353))
 1723 0b08 FE01      		movw r30,r28
 1724 0b0a EB59      		subi r30,lo8(-(357))
 1725 0b0c FE4F      		sbci r31,hi8(-(357))
 1726 0b0e 6081      		ld r22,Z
 1727 0b10 7181      		ldd r23,Z+1
 1728 0b12 8281      		ldd r24,Z+2
 1729 0b14 9381      		ldd r25,Z+3
 1730 0b16 2BEA      		ldi r18,lo8(0x40aaaaab)
 1731 0b18 3AEA      		ldi r19,hi8(0x40aaaaab)
 1732 0b1a 4AEA      		ldi r20,hlo8(0x40aaaaab)
 1733 0b1c 50E4      		ldi r21,hhi8(0x40aaaaab)
 1734 0b1e 0E94 0000 		call __mulsf3
 1735 0b22 DC01      		movw r26,r24
 1736 0b24 CB01      		movw r24,r22
 1737 0b26 F801      		movw r30,r16
 1738 0b28 8083      		st Z,r24
 1739 0b2a 9183      		std Z+1,r25
 1740 0b2c A283      		std Z+2,r26
 1741 0b2e B383      		std Z+3,r27
 1742               	.LM117:
 1743 0b30 FE01      		movw r30,r28
 1744 0b32 EF59      		subi r30,lo8(-(353))
 1745 0b34 FE4F      		sbci r31,hi8(-(353))
 1746 0b36 6081      		ld r22,Z
 1747 0b38 7181      		ldd r23,Z+1
 1748 0b3a 8281      		ldd r24,Z+2
 1749 0b3c 9381      		ldd r25,Z+3
 1750 0b3e 20E0      		ldi r18,lo8(0x3f800000)
 1751 0b40 30E0      		ldi r19,hi8(0x3f800000)
 1752 0b42 40E8      		ldi r20,hlo8(0x3f800000)
 1753 0b44 5FE3      		ldi r21,hhi8(0x3f800000)
 1754 0b46 0E94 0000 		call __ltsf2
 1755 0b4a 8823      		tst r24
 1756 0b4c 04F4      		brge .L418
 1757               	.L354:
 1758               	.LM118:
 1759 0b4e FE01      		movw r30,r28
 1760 0b50 E05A      		subi r30,lo8(-(352))
 1761 0b52 FE4F      		sbci r31,hi8(-(352))
 1762 0b54 81E0      		ldi r24,lo8(1)
 1763 0b56 8083      		st Z,r24
 1764 0b58 00C0      		rjmp .L117
 1765               	.L418:
 1766               	.LM119:
 1767 0b5a FE01      		movw r30,r28
 1768 0b5c EF59      		subi r30,lo8(-(353))
 1769 0b5e FE4F      		sbci r31,hi8(-(353))
 1770 0b60 6081      		ld r22,Z
 1771 0b62 7181      		ldd r23,Z+1
 1772 0b64 8281      		ldd r24,Z+2
 1773 0b66 9381      		ldd r25,Z+3
 1774 0b68 20E0      		ldi r18,lo8(0x437f0000)
 1775 0b6a 30E0      		ldi r19,hi8(0x437f0000)
 1776 0b6c 4FE7      		ldi r20,hlo8(0x437f0000)
 1777 0b6e 53E4      		ldi r21,hhi8(0x437f0000)
 1778 0b70 0E94 0000 		call __gtsf2
 1779 0b74 1816      		cp __zero_reg__,r24
 1780 0b76 04F0      		brlt .+2
 1781 0b78 00C0      		rjmp .L419
 1782               	.L355:
 1783               	.LM120:
 1784 0b7a FE01      		movw r30,r28
 1785 0b7c EB59      		subi r30,lo8(-(357))
 1786 0b7e FE4F      		sbci r31,hi8(-(357))
 1787 0b80 6081      		ld r22,Z
 1788 0b82 7181      		ldd r23,Z+1
 1789 0b84 8281      		ldd r24,Z+2
 1790 0b86 9381      		ldd r25,Z+3
 1791 0b88 20E0      		ldi r18,lo8(0x447a0000)
 1792 0b8a 30E0      		ldi r19,hi8(0x447a0000)
 1793 0b8c 4AE7      		ldi r20,hlo8(0x447a0000)
 1794 0b8e 54E4      		ldi r21,hhi8(0x447a0000)
 1795 0b90 0E94 0000 		call __divsf3
 1796 0b94 DC01      		movw r26,r24
 1797 0b96 CB01      		movw r24,r22
 1798 0b98 FE01      		movw r30,r28
 1799 0b9a E45A      		subi r30,lo8(-(348))
 1800 0b9c FE4F      		sbci r31,hi8(-(348))
 1801 0b9e 8083      		st Z,r24
 1802 0ba0 9183      		std Z+1,r25
 1803 0ba2 A283      		std Z+2,r26
 1804 0ba4 B383      		std Z+3,r27
 1805               	.LBB254:
 1806               	.LBB255:
 1807               	.LM121:
 1808 0ba6 8E01      		movw r16,r28
 1809 0ba8 085A      		subi r16,lo8(-(344))
 1810 0baa 1E4F      		sbci r17,hi8(-(344))
 1811 0bac FE01      		movw r30,r28
 1812 0bae E45A      		subi r30,lo8(-(348))
 1813 0bb0 FE4F      		sbci r31,hi8(-(348))
 1814 0bb2 6081      		ld r22,Z
 1815 0bb4 7181      		ldd r23,Z+1
 1816 0bb6 8281      		ldd r24,Z+2
 1817 0bb8 9381      		ldd r25,Z+3
 1818 0bba 20E0      		ldi r18,lo8(0x457a0000)
 1819 0bbc 30E0      		ldi r19,hi8(0x457a0000)
 1820 0bbe 4AE7      		ldi r20,hlo8(0x457a0000)
 1821 0bc0 55E4      		ldi r21,hhi8(0x457a0000)
 1822 0bc2 0E94 0000 		call __mulsf3
 1823 0bc6 DC01      		movw r26,r24
 1824 0bc8 CB01      		movw r24,r22
 1825 0bca F801      		movw r30,r16
 1826 0bcc 8083      		st Z,r24
 1827 0bce 9183      		std Z+1,r25
 1828 0bd0 A283      		std Z+2,r26
 1829 0bd2 B383      		std Z+3,r27
 1830               	.LM122:
 1831 0bd4 FE01      		movw r30,r28
 1832 0bd6 E85A      		subi r30,lo8(-(344))
 1833 0bd8 FE4F      		sbci r31,hi8(-(344))
 1834 0bda 6081      		ld r22,Z
 1835 0bdc 7181      		ldd r23,Z+1
 1836 0bde 8281      		ldd r24,Z+2
 1837 0be0 9381      		ldd r25,Z+3
 1838 0be2 20E0      		ldi r18,lo8(0x3f800000)
 1839 0be4 30E0      		ldi r19,hi8(0x3f800000)
 1840 0be6 40E8      		ldi r20,hlo8(0x3f800000)
 1841 0be8 5FE3      		ldi r21,hhi8(0x3f800000)
 1842 0bea 0E94 0000 		call __ltsf2
 1843 0bee 8823      		tst r24
 1844 0bf0 04F4      		brge .L420
 1845               	.L356:
 1846               	.LM123:
 1847 0bf2 FE01      		movw r30,r28
 1848 0bf4 EA5A      		subi r30,lo8(-(342))
 1849 0bf6 FE4F      		sbci r31,hi8(-(342))
 1850 0bf8 81E0      		ldi r24,lo8(1)
 1851 0bfa 90E0      		ldi r25,hi8(1)
 1852 0bfc 9183      		std Z+1,r25
 1853 0bfe 8083      		st Z,r24
 1854 0c00 00C0      		rjmp .L122
 1855               	.L420:
 1856               	.LM124:
 1857 0c02 FE01      		movw r30,r28
 1858 0c04 E85A      		subi r30,lo8(-(344))
 1859 0c06 FE4F      		sbci r31,hi8(-(344))
 1860 0c08 6081      		ld r22,Z
 1861 0c0a 7181      		ldd r23,Z+1
 1862 0c0c 8281      		ldd r24,Z+2
 1863 0c0e 9381      		ldd r25,Z+3
 1864 0c10 20E0      		ldi r18,lo8(0x477fff00)
 1865 0c12 3FEF      		ldi r19,hi8(0x477fff00)
 1866 0c14 4FE7      		ldi r20,hlo8(0x477fff00)
 1867 0c16 57E4      		ldi r21,hhi8(0x477fff00)
 1868 0c18 0E94 0000 		call __gtsf2
 1869 0c1c 1816      		cp __zero_reg__,r24
 1870 0c1e 04F0      		brlt .+2
 1871 0c20 00C0      		rjmp .L421
 1872               	.L357:
 1873               	.LM125:
 1874 0c22 FE01      		movw r30,r28
 1875 0c24 E45A      		subi r30,lo8(-(348))
 1876 0c26 FE4F      		sbci r31,hi8(-(348))
 1877 0c28 6081      		ld r22,Z
 1878 0c2a 7181      		ldd r23,Z+1
 1879 0c2c 8281      		ldd r24,Z+2
 1880 0c2e 9381      		ldd r25,Z+3
 1881 0c30 20E0      		ldi r18,lo8(0x41200000)
 1882 0c32 30E0      		ldi r19,hi8(0x41200000)
 1883 0c34 40E2      		ldi r20,hlo8(0x41200000)
 1884 0c36 51E4      		ldi r21,hhi8(0x41200000)
 1885 0c38 0E94 0000 		call __mulsf3
 1886 0c3c DC01      		movw r26,r24
 1887 0c3e CB01      		movw r24,r22
 1888 0c40 8E01      		movw r16,r28
 1889 0c42 0A5A      		subi r16,lo8(-(342))
 1890 0c44 1E4F      		sbci r17,hi8(-(342))
 1891 0c46 BC01      		movw r22,r24
 1892 0c48 CD01      		movw r24,r26
 1893 0c4a 0E94 0000 		call __fixunssfsi
 1894 0c4e DC01      		movw r26,r24
 1895 0c50 CB01      		movw r24,r22
 1896 0c52 F801      		movw r30,r16
 1897 0c54 9183      		std Z+1,r25
 1898 0c56 8083      		st Z,r24
 1899 0c58 00C0      		rjmp .L125
 1900               	.L126:
 1901 0c5a FE01      		movw r30,r28
 1902 0c5c EC5A      		subi r30,lo8(-(340))
 1903 0c5e FE4F      		sbci r31,hi8(-(340))
 1904 0c60 80E9      		ldi r24,lo8(400)
 1905 0c62 91E0      		ldi r25,hi8(400)
 1906 0c64 9183      		std Z+1,r25
 1907 0c66 8083      		st Z,r24
 1908               	.LBB256:
 1909               	.LBB257:
 1910               	.LM126:
 1911 0c68 FE01      		movw r30,r28
 1912 0c6a EC5A      		subi r30,lo8(-(340))
 1913 0c6c FE4F      		sbci r31,hi8(-(340))
 1914 0c6e 8081      		ld r24,Z
 1915 0c70 9181      		ldd r25,Z+1
 1916               	/* #APP */
 1917               	 ;  105 "d:/winavr-20100110/lib/gcc/../../avr/include/util/delay_basic.h" 1
 1918 0c72 0197      		1: sbiw r24,1
 1919 0c74 01F4      		brne 1b
 1920               	 ;  0 "" 2
 1921               	/* #NOAPP */
 1922 0c76 FE01      		movw r30,r28
 1923 0c78 EC5A      		subi r30,lo8(-(340))
 1924 0c7a FE4F      		sbci r31,hi8(-(340))
 1925 0c7c 9183      		std Z+1,r25
 1926 0c7e 8083      		st Z,r24
 1927               	.LBE257:
 1928               	.LBE256:
 1929               	.LM127:
 1930 0c80 DE01      		movw r26,r28
 1931 0c82 AA5A      		subi r26,lo8(-(342))
 1932 0c84 BE4F      		sbci r27,hi8(-(342))
 1933 0c86 FE01      		movw r30,r28
 1934 0c88 EA5A      		subi r30,lo8(-(342))
 1935 0c8a FE4F      		sbci r31,hi8(-(342))
 1936 0c8c 8081      		ld r24,Z
 1937 0c8e 9181      		ldd r25,Z+1
 1938 0c90 0197      		sbiw r24,1
 1939 0c92 1196      		adiw r26,1
 1940 0c94 9C93      		st X,r25
 1941 0c96 8E93      		st -X,r24
 1942               	.L125:
 1943               	.LM128:
 1944 0c98 FE01      		movw r30,r28
 1945 0c9a EA5A      		subi r30,lo8(-(342))
 1946 0c9c FE4F      		sbci r31,hi8(-(342))
 1947 0c9e 8081      		ld r24,Z
 1948 0ca0 9181      		ldd r25,Z+1
 1949 0ca2 0097      		sbiw r24,0
 1950 0ca4 01F4      		brne .L126
 1951 0ca6 00C0      		rjmp .L128
 1952               	.L421:
 1953               	.LM129:
 1954 0ca8 8E01      		movw r16,r28
 1955 0caa 0A5A      		subi r16,lo8(-(342))
 1956 0cac 1E4F      		sbci r17,hi8(-(342))
 1957 0cae FE01      		movw r30,r28
 1958 0cb0 E85A      		subi r30,lo8(-(344))
 1959 0cb2 FE4F      		sbci r31,hi8(-(344))
 1960 0cb4 6081      		ld r22,Z
 1961 0cb6 7181      		ldd r23,Z+1
 1962 0cb8 8281      		ldd r24,Z+2
 1963 0cba 9381      		ldd r25,Z+3
 1964 0cbc 0E94 0000 		call __fixunssfsi
 1965 0cc0 DC01      		movw r26,r24
 1966 0cc2 CB01      		movw r24,r22
 1967 0cc4 F801      		movw r30,r16
 1968 0cc6 9183      		std Z+1,r25
 1969 0cc8 8083      		st Z,r24
 1970               	.L122:
 1971 0cca DE01      		movw r26,r28
 1972 0ccc AE5A      		subi r26,lo8(-(338))
 1973 0cce BE4F      		sbci r27,hi8(-(338))
 1974 0cd0 FE01      		movw r30,r28
 1975 0cd2 EA5A      		subi r30,lo8(-(342))
 1976 0cd4 FE4F      		sbci r31,hi8(-(342))
 1977 0cd6 8081      		ld r24,Z
 1978 0cd8 9181      		ldd r25,Z+1
 1979 0cda 1196      		adiw r26,1
 1980 0cdc 9C93      		st X,r25
 1981 0cde 8E93      		st -X,r24
 1982               	.LBB258:
 1983               	.LBB259:
 1984               	.LM130:
 1985 0ce0 FE01      		movw r30,r28
 1986 0ce2 EE5A      		subi r30,lo8(-(338))
 1987 0ce4 FE4F      		sbci r31,hi8(-(338))
 1988 0ce6 8081      		ld r24,Z
 1989 0ce8 9181      		ldd r25,Z+1
 1990               	/* #APP */
 1991               	 ;  105 "d:/winavr-20100110/lib/gcc/../../avr/include/util/delay_basic.h" 1
 1992 0cea 0197      		1: sbiw r24,1
 1993 0cec 01F4      		brne 1b
 1994               	 ;  0 "" 2
 1995               	/* #NOAPP */
 1996 0cee FE01      		movw r30,r28
 1997 0cf0 EE5A      		subi r30,lo8(-(338))
 1998 0cf2 FE4F      		sbci r31,hi8(-(338))
 1999 0cf4 9183      		std Z+1,r25
 2000 0cf6 8083      		st Z,r24
 2001 0cf8 00C0      		rjmp .L128
 2002               	.L419:
 2003               	.LBE259:
 2004               	.LBE258:
 2005               	.LBE255:
 2006               	.LBE254:
 2007               	.LM131:
 2008 0cfa 8E01      		movw r16,r28
 2009 0cfc 005A      		subi r16,lo8(-(352))
 2010 0cfe 1E4F      		sbci r17,hi8(-(352))
 2011 0d00 FE01      		movw r30,r28
 2012 0d02 EF59      		subi r30,lo8(-(353))
 2013 0d04 FE4F      		sbci r31,hi8(-(353))
 2014 0d06 6081      		ld r22,Z
 2015 0d08 7181      		ldd r23,Z+1
 2016 0d0a 8281      		ldd r24,Z+2
 2017 0d0c 9381      		ldd r25,Z+3
 2018 0d0e 0E94 0000 		call __fixunssfsi
 2019 0d12 DC01      		movw r26,r24
 2020 0d14 CB01      		movw r24,r22
 2021 0d16 F801      		movw r30,r16
 2022 0d18 8083      		st Z,r24
 2023               	.L117:
 2024 0d1a DE01      		movw r26,r28
 2025 0d1c AF5A      		subi r26,lo8(-(337))
 2026 0d1e BE4F      		sbci r27,hi8(-(337))
 2027 0d20 FE01      		movw r30,r28
 2028 0d22 E05A      		subi r30,lo8(-(352))
 2029 0d24 FE4F      		sbci r31,hi8(-(352))
 2030 0d26 8081      		ld r24,Z
 2031 0d28 8C93      		st X,r24
 2032               	.LBB260:
 2033               	.LBB261:
 2034               	.LM132:
 2035 0d2a FE01      		movw r30,r28
 2036 0d2c EF5A      		subi r30,lo8(-(337))
 2037 0d2e FE4F      		sbci r31,hi8(-(337))
 2038 0d30 8081      		ld r24,Z
 2039               	/* #APP */
 2040               	 ;  83 "d:/winavr-20100110/lib/gcc/../../avr/include/util/delay_basic.h" 1
 2041 0d32 8A95      		1: dec r24
 2042 0d34 01F4      		brne 1b
 2043               	 ;  0 "" 2
 2044               	/* #NOAPP */
 2045 0d36 FE01      		movw r30,r28
 2046 0d38 EF5A      		subi r30,lo8(-(337))
 2047 0d3a FE4F      		sbci r31,hi8(-(337))
 2048 0d3c 8083      		st Z,r24
 2049               	.L128:
 2050               	.LBE261:
 2051               	.LBE260:
 2052               	.LBE253:
 2053               	.LBE252:
 2054               	.LM133:
 2055 0d3e 82E4      		ldi r24,lo8(66)
 2056 0d40 8093 0000 		sts PS2byte,r24
 2057               	.LM134:
 2058 0d44 1092 0000 		sts i,__zero_reg__
 2059 0d48 00C0      		rjmp .L129
 2060               	.L132:
 2061               	.LM135:
 2062 0d4a 8091 0000 		lds r24,PS2byte
 2063 0d4e 282F      		mov r18,r24
 2064 0d50 30E0      		ldi r19,lo8(0)
 2065 0d52 8091 0000 		lds r24,i
 2066 0d56 882F      		mov r24,r24
 2067 0d58 90E0      		ldi r25,lo8(0)
 2068 0d5a A901      		movw r20,r18
 2069 0d5c 00C0      		rjmp 2f
 2070 0d5e 5595      	1:	asr r21
 2071 0d60 4795      		ror r20
 2072 0d62 8A95      	2:	dec r24
 2073 0d64 02F4      		brpl 1b
 2074 0d66 CA01      		movw r24,r20
 2075 0d68 8170      		andi r24,lo8(1)
 2076 0d6a 9070      		andi r25,hi8(1)
 2077 0d6c 8823      		tst r24
 2078 0d6e 01F0      		breq .L130
 2079 0d70 A5E3      		ldi r26,lo8(53)
 2080 0d72 B0E0      		ldi r27,hi8(53)
 2081 0d74 E5E3      		ldi r30,lo8(53)
 2082 0d76 F0E0      		ldi r31,hi8(53)
 2083 0d78 8081      		ld r24,Z
 2084 0d7a 8460      		ori r24,lo8(4)
 2085 0d7c 8C93      		st X,r24
 2086 0d7e 00C0      		rjmp .L131
 2087               	.L130:
 2088               	.LM136:
 2089 0d80 A5E3      		ldi r26,lo8(53)
 2090 0d82 B0E0      		ldi r27,hi8(53)
 2091 0d84 E5E3      		ldi r30,lo8(53)
 2092 0d86 F0E0      		ldi r31,hi8(53)
 2093 0d88 8081      		ld r24,Z
 2094 0d8a 8B7F      		andi r24,lo8(-5)
 2095 0d8c 8C93      		st X,r24
 2096               	.L131:
 2097               	.LM137:
 2098 0d8e A5E3      		ldi r26,lo8(53)
 2099 0d90 B0E0      		ldi r27,hi8(53)
 2100 0d92 E5E3      		ldi r30,lo8(53)
 2101 0d94 F0E0      		ldi r31,hi8(53)
 2102 0d96 8081      		ld r24,Z
 2103 0d98 8E7F      		andi r24,lo8(-2)
 2104 0d9a 8C93      		st X,r24
 2105               	.LM138:
 2106 0d9c A5E3      		ldi r26,lo8(53)
 2107 0d9e B0E0      		ldi r27,hi8(53)
 2108 0da0 E5E3      		ldi r30,lo8(53)
 2109 0da2 F0E0      		ldi r31,hi8(53)
 2110 0da4 8081      		ld r24,Z
 2111 0da6 8160      		ori r24,lo8(1)
 2112 0da8 8C93      		st X,r24
 2113               	.LM139:
 2114 0daa 8091 0000 		lds r24,i
 2115 0dae 8F5F      		subi r24,lo8(-(1))
 2116 0db0 8093 0000 		sts i,r24
 2117               	.L129:
 2118 0db4 8091 0000 		lds r24,i
 2119 0db8 8830      		cpi r24,lo8(8)
 2120 0dba 00F0      		brlo .L132
 2121               	.LM140:
 2122 0dbc A5E3      		ldi r26,lo8(53)
 2123 0dbe B0E0      		ldi r27,hi8(53)
 2124 0dc0 E5E3      		ldi r30,lo8(53)
 2125 0dc2 F0E0      		ldi r31,hi8(53)
 2126 0dc4 8081      		ld r24,Z
 2127 0dc6 8460      		ori r24,lo8(4)
 2128 0dc8 8C93      		st X,r24
 2129 0dca FE01      		movw r30,r28
 2130 0dcc E35B      		subi r30,lo8(-(333))
 2131 0dce FE4F      		sbci r31,hi8(-(333))
 2132 0dd0 80E0      		ldi r24,lo8(0x3f800000)
 2133 0dd2 90E0      		ldi r25,hi8(0x3f800000)
 2134 0dd4 A0E8      		ldi r26,hlo8(0x3f800000)
 2135 0dd6 BFE3      		ldi r27,hhi8(0x3f800000)
 2136 0dd8 8083      		st Z,r24
 2137 0dda 9183      		std Z+1,r25
 2138 0ddc A283      		std Z+2,r26
 2139 0dde B383      		std Z+3,r27
 2140               	.LBB262:
 2141               	.LBB263:
 2142               	.LM141:
 2143 0de0 8E01      		movw r16,r28
 2144 0de2 075B      		subi r16,lo8(-(329))
 2145 0de4 1E4F      		sbci r17,hi8(-(329))
 2146 0de6 FE01      		movw r30,r28
 2147 0de8 E35B      		subi r30,lo8(-(333))
 2148 0dea FE4F      		sbci r31,hi8(-(333))
 2149 0dec 6081      		ld r22,Z
 2150 0dee 7181      		ldd r23,Z+1
 2151 0df0 8281      		ldd r24,Z+2
 2152 0df2 9381      		ldd r25,Z+3
 2153 0df4 2BEA      		ldi r18,lo8(0x40aaaaab)
 2154 0df6 3AEA      		ldi r19,hi8(0x40aaaaab)
 2155 0df8 4AEA      		ldi r20,hlo8(0x40aaaaab)
 2156 0dfa 50E4      		ldi r21,hhi8(0x40aaaaab)
 2157 0dfc 0E94 0000 		call __mulsf3
 2158 0e00 DC01      		movw r26,r24
 2159 0e02 CB01      		movw r24,r22
 2160 0e04 F801      		movw r30,r16
 2161 0e06 8083      		st Z,r24
 2162 0e08 9183      		std Z+1,r25
 2163 0e0a A283      		std Z+2,r26
 2164 0e0c B383      		std Z+3,r27
 2165               	.LM142:
 2166 0e0e FE01      		movw r30,r28
 2167 0e10 E75B      		subi r30,lo8(-(329))
 2168 0e12 FE4F      		sbci r31,hi8(-(329))
 2169 0e14 6081      		ld r22,Z
 2170 0e16 7181      		ldd r23,Z+1
 2171 0e18 8281      		ldd r24,Z+2
 2172 0e1a 9381      		ldd r25,Z+3
 2173 0e1c 20E0      		ldi r18,lo8(0x3f800000)
 2174 0e1e 30E0      		ldi r19,hi8(0x3f800000)
 2175 0e20 40E8      		ldi r20,hlo8(0x3f800000)
 2176 0e22 5FE3      		ldi r21,hhi8(0x3f800000)
 2177 0e24 0E94 0000 		call __ltsf2
 2178 0e28 8823      		tst r24
 2179 0e2a 04F4      		brge .L422
 2180               	.L358:
 2181               	.LM143:
 2182 0e2c FE01      		movw r30,r28
 2183 0e2e E85B      		subi r30,lo8(-(328))
 2184 0e30 FE4F      		sbci r31,hi8(-(328))
 2185 0e32 81E0      		ldi r24,lo8(1)
 2186 0e34 8083      		st Z,r24
 2187 0e36 00C0      		rjmp .L135
 2188               	.L422:
 2189               	.LM144:
 2190 0e38 FE01      		movw r30,r28
 2191 0e3a E75B      		subi r30,lo8(-(329))
 2192 0e3c FE4F      		sbci r31,hi8(-(329))
 2193 0e3e 6081      		ld r22,Z
 2194 0e40 7181      		ldd r23,Z+1
 2195 0e42 8281      		ldd r24,Z+2
 2196 0e44 9381      		ldd r25,Z+3
 2197 0e46 20E0      		ldi r18,lo8(0x437f0000)
 2198 0e48 30E0      		ldi r19,hi8(0x437f0000)
 2199 0e4a 4FE7      		ldi r20,hlo8(0x437f0000)
 2200 0e4c 53E4      		ldi r21,hhi8(0x437f0000)
 2201 0e4e 0E94 0000 		call __gtsf2
 2202 0e52 1816      		cp __zero_reg__,r24
 2203 0e54 04F0      		brlt .+2
 2204 0e56 00C0      		rjmp .L423
 2205               	.L359:
 2206               	.LM145:
 2207 0e58 FE01      		movw r30,r28
 2208 0e5a E35B      		subi r30,lo8(-(333))
 2209 0e5c FE4F      		sbci r31,hi8(-(333))
 2210 0e5e 6081      		ld r22,Z
 2211 0e60 7181      		ldd r23,Z+1
 2212 0e62 8281      		ldd r24,Z+2
 2213 0e64 9381      		ldd r25,Z+3
 2214 0e66 20E0      		ldi r18,lo8(0x447a0000)
 2215 0e68 30E0      		ldi r19,hi8(0x447a0000)
 2216 0e6a 4AE7      		ldi r20,hlo8(0x447a0000)
 2217 0e6c 54E4      		ldi r21,hhi8(0x447a0000)
 2218 0e6e 0E94 0000 		call __divsf3
 2219 0e72 DC01      		movw r26,r24
 2220 0e74 CB01      		movw r24,r22
 2221 0e76 FE01      		movw r30,r28
 2222 0e78 EC5B      		subi r30,lo8(-(324))
 2223 0e7a FE4F      		sbci r31,hi8(-(324))
 2224 0e7c 8083      		st Z,r24
 2225 0e7e 9183      		std Z+1,r25
 2226 0e80 A283      		std Z+2,r26
 2227 0e82 B383      		std Z+3,r27
 2228               	.LBB264:
 2229               	.LBB265:
 2230               	.LM146:
 2231 0e84 8E01      		movw r16,r28
 2232 0e86 005C      		subi r16,lo8(-(320))
 2233 0e88 1E4F      		sbci r17,hi8(-(320))
 2234 0e8a FE01      		movw r30,r28
 2235 0e8c EC5B      		subi r30,lo8(-(324))
 2236 0e8e FE4F      		sbci r31,hi8(-(324))
 2237 0e90 6081      		ld r22,Z
 2238 0e92 7181      		ldd r23,Z+1
 2239 0e94 8281      		ldd r24,Z+2
 2240 0e96 9381      		ldd r25,Z+3
 2241 0e98 20E0      		ldi r18,lo8(0x457a0000)
 2242 0e9a 30E0      		ldi r19,hi8(0x457a0000)
 2243 0e9c 4AE7      		ldi r20,hlo8(0x457a0000)
 2244 0e9e 55E4      		ldi r21,hhi8(0x457a0000)
 2245 0ea0 0E94 0000 		call __mulsf3
 2246 0ea4 DC01      		movw r26,r24
 2247 0ea6 CB01      		movw r24,r22
 2248 0ea8 F801      		movw r30,r16
 2249 0eaa 8083      		st Z,r24
 2250 0eac 9183      		std Z+1,r25
 2251 0eae A283      		std Z+2,r26
 2252 0eb0 B383      		std Z+3,r27
 2253               	.LM147:
 2254 0eb2 FE01      		movw r30,r28
 2255 0eb4 E05C      		subi r30,lo8(-(320))
 2256 0eb6 FE4F      		sbci r31,hi8(-(320))
 2257 0eb8 6081      		ld r22,Z
 2258 0eba 7181      		ldd r23,Z+1
 2259 0ebc 8281      		ldd r24,Z+2
 2260 0ebe 9381      		ldd r25,Z+3
 2261 0ec0 20E0      		ldi r18,lo8(0x3f800000)
 2262 0ec2 30E0      		ldi r19,hi8(0x3f800000)
 2263 0ec4 40E8      		ldi r20,hlo8(0x3f800000)
 2264 0ec6 5FE3      		ldi r21,hhi8(0x3f800000)
 2265 0ec8 0E94 0000 		call __ltsf2
 2266 0ecc 8823      		tst r24
 2267 0ece 04F4      		brge .L424
 2268               	.L360:
 2269               	.LM148:
 2270 0ed0 FE01      		movw r30,r28
 2271 0ed2 E25C      		subi r30,lo8(-(318))
 2272 0ed4 FE4F      		sbci r31,hi8(-(318))
 2273 0ed6 81E0      		ldi r24,lo8(1)
 2274 0ed8 90E0      		ldi r25,hi8(1)
 2275 0eda 9183      		std Z+1,r25
 2276 0edc 8083      		st Z,r24
 2277 0ede 00C0      		rjmp .L140
 2278               	.L424:
 2279               	.LM149:
 2280 0ee0 FE01      		movw r30,r28
 2281 0ee2 E05C      		subi r30,lo8(-(320))
 2282 0ee4 FE4F      		sbci r31,hi8(-(320))
 2283 0ee6 6081      		ld r22,Z
 2284 0ee8 7181      		ldd r23,Z+1
 2285 0eea 8281      		ldd r24,Z+2
 2286 0eec 9381      		ldd r25,Z+3
 2287 0eee 20E0      		ldi r18,lo8(0x477fff00)
 2288 0ef0 3FEF      		ldi r19,hi8(0x477fff00)
 2289 0ef2 4FE7      		ldi r20,hlo8(0x477fff00)
 2290 0ef4 57E4      		ldi r21,hhi8(0x477fff00)
 2291 0ef6 0E94 0000 		call __gtsf2
 2292 0efa 1816      		cp __zero_reg__,r24
 2293 0efc 04F0      		brlt .+2
 2294 0efe 00C0      		rjmp .L425
 2295               	.L361:
 2296               	.LM150:
 2297 0f00 FE01      		movw r30,r28
 2298 0f02 EC5B      		subi r30,lo8(-(324))
 2299 0f04 FE4F      		sbci r31,hi8(-(324))
 2300 0f06 6081      		ld r22,Z
 2301 0f08 7181      		ldd r23,Z+1
 2302 0f0a 8281      		ldd r24,Z+2
 2303 0f0c 9381      		ldd r25,Z+3
 2304 0f0e 20E0      		ldi r18,lo8(0x41200000)
 2305 0f10 30E0      		ldi r19,hi8(0x41200000)
 2306 0f12 40E2      		ldi r20,hlo8(0x41200000)
 2307 0f14 51E4      		ldi r21,hhi8(0x41200000)
 2308 0f16 0E94 0000 		call __mulsf3
 2309 0f1a DC01      		movw r26,r24
 2310 0f1c CB01      		movw r24,r22
 2311 0f1e 8E01      		movw r16,r28
 2312 0f20 025C      		subi r16,lo8(-(318))
 2313 0f22 1E4F      		sbci r17,hi8(-(318))
 2314 0f24 BC01      		movw r22,r24
 2315 0f26 CD01      		movw r24,r26
 2316 0f28 0E94 0000 		call __fixunssfsi
 2317 0f2c DC01      		movw r26,r24
 2318 0f2e CB01      		movw r24,r22
 2319 0f30 F801      		movw r30,r16
 2320 0f32 9183      		std Z+1,r25
 2321 0f34 8083      		st Z,r24
 2322 0f36 00C0      		rjmp .L143
 2323               	.L144:
 2324 0f38 FE01      		movw r30,r28
 2325 0f3a E45C      		subi r30,lo8(-(316))
 2326 0f3c FE4F      		sbci r31,hi8(-(316))
 2327 0f3e 80E9      		ldi r24,lo8(400)
 2328 0f40 91E0      		ldi r25,hi8(400)
 2329 0f42 9183      		std Z+1,r25
 2330 0f44 8083      		st Z,r24
 2331               	.LBB266:
 2332               	.LBB267:
 2333               	.LM151:
 2334 0f46 FE01      		movw r30,r28
 2335 0f48 E45C      		subi r30,lo8(-(316))
 2336 0f4a FE4F      		sbci r31,hi8(-(316))
 2337 0f4c 8081      		ld r24,Z
 2338 0f4e 9181      		ldd r25,Z+1
 2339               	/* #APP */
 2340               	 ;  105 "d:/winavr-20100110/lib/gcc/../../avr/include/util/delay_basic.h" 1
 2341 0f50 0197      		1: sbiw r24,1
 2342 0f52 01F4      		brne 1b
 2343               	 ;  0 "" 2
 2344               	/* #NOAPP */
 2345 0f54 FE01      		movw r30,r28
 2346 0f56 E45C      		subi r30,lo8(-(316))
 2347 0f58 FE4F      		sbci r31,hi8(-(316))
 2348 0f5a 9183      		std Z+1,r25
 2349 0f5c 8083      		st Z,r24
 2350               	.LBE267:
 2351               	.LBE266:
 2352               	.LM152:
 2353 0f5e DE01      		movw r26,r28
 2354 0f60 A25C      		subi r26,lo8(-(318))
 2355 0f62 BE4F      		sbci r27,hi8(-(318))
 2356 0f64 FE01      		movw r30,r28
 2357 0f66 E25C      		subi r30,lo8(-(318))
 2358 0f68 FE4F      		sbci r31,hi8(-(318))
 2359 0f6a 8081      		ld r24,Z
 2360 0f6c 9181      		ldd r25,Z+1
 2361 0f6e 0197      		sbiw r24,1
 2362 0f70 1196      		adiw r26,1
 2363 0f72 9C93      		st X,r25
 2364 0f74 8E93      		st -X,r24
 2365               	.L143:
 2366               	.LM153:
 2367 0f76 FE01      		movw r30,r28
 2368 0f78 E25C      		subi r30,lo8(-(318))
 2369 0f7a FE4F      		sbci r31,hi8(-(318))
 2370 0f7c 8081      		ld r24,Z
 2371 0f7e 9181      		ldd r25,Z+1
 2372 0f80 0097      		sbiw r24,0
 2373 0f82 01F4      		brne .L144
 2374 0f84 00C0      		rjmp .L146
 2375               	.L425:
 2376               	.LM154:
 2377 0f86 8E01      		movw r16,r28
 2378 0f88 025C      		subi r16,lo8(-(318))
 2379 0f8a 1E4F      		sbci r17,hi8(-(318))
 2380 0f8c FE01      		movw r30,r28
 2381 0f8e E05C      		subi r30,lo8(-(320))
 2382 0f90 FE4F      		sbci r31,hi8(-(320))
 2383 0f92 6081      		ld r22,Z
 2384 0f94 7181      		ldd r23,Z+1
 2385 0f96 8281      		ldd r24,Z+2
 2386 0f98 9381      		ldd r25,Z+3
 2387 0f9a 0E94 0000 		call __fixunssfsi
 2388 0f9e DC01      		movw r26,r24
 2389 0fa0 CB01      		movw r24,r22
 2390 0fa2 F801      		movw r30,r16
 2391 0fa4 9183      		std Z+1,r25
 2392 0fa6 8083      		st Z,r24
 2393               	.L140:
 2394 0fa8 DE01      		movw r26,r28
 2395 0faa A65C      		subi r26,lo8(-(314))
 2396 0fac BE4F      		sbci r27,hi8(-(314))
 2397 0fae FE01      		movw r30,r28
 2398 0fb0 E25C      		subi r30,lo8(-(318))
 2399 0fb2 FE4F      		sbci r31,hi8(-(318))
 2400 0fb4 8081      		ld r24,Z
 2401 0fb6 9181      		ldd r25,Z+1
 2402 0fb8 1196      		adiw r26,1
 2403 0fba 9C93      		st X,r25
 2404 0fbc 8E93      		st -X,r24
 2405               	.LBB268:
 2406               	.LBB269:
 2407               	.LM155:
 2408 0fbe FE01      		movw r30,r28
 2409 0fc0 E65C      		subi r30,lo8(-(314))
 2410 0fc2 FE4F      		sbci r31,hi8(-(314))
 2411 0fc4 8081      		ld r24,Z
 2412 0fc6 9181      		ldd r25,Z+1
 2413               	/* #APP */
 2414               	 ;  105 "d:/winavr-20100110/lib/gcc/../../avr/include/util/delay_basic.h" 1
 2415 0fc8 0197      		1: sbiw r24,1
 2416 0fca 01F4      		brne 1b
 2417               	 ;  0 "" 2
 2418               	/* #NOAPP */
 2419 0fcc FE01      		movw r30,r28
 2420 0fce E65C      		subi r30,lo8(-(314))
 2421 0fd0 FE4F      		sbci r31,hi8(-(314))
 2422 0fd2 9183      		std Z+1,r25
 2423 0fd4 8083      		st Z,r24
 2424 0fd6 00C0      		rjmp .L146
 2425               	.L423:
 2426               	.LBE269:
 2427               	.LBE268:
 2428               	.LBE265:
 2429               	.LBE264:
 2430               	.LM156:
 2431 0fd8 8E01      		movw r16,r28
 2432 0fda 085B      		subi r16,lo8(-(328))
 2433 0fdc 1E4F      		sbci r17,hi8(-(328))
 2434 0fde FE01      		movw r30,r28
 2435 0fe0 E75B      		subi r30,lo8(-(329))
 2436 0fe2 FE4F      		sbci r31,hi8(-(329))
 2437 0fe4 6081      		ld r22,Z
 2438 0fe6 7181      		ldd r23,Z+1
 2439 0fe8 8281      		ldd r24,Z+2
 2440 0fea 9381      		ldd r25,Z+3
 2441 0fec 0E94 0000 		call __fixunssfsi
 2442 0ff0 DC01      		movw r26,r24
 2443 0ff2 CB01      		movw r24,r22
 2444 0ff4 F801      		movw r30,r16
 2445 0ff6 8083      		st Z,r24
 2446               	.L135:
 2447 0ff8 DE01      		movw r26,r28
 2448 0ffa A75C      		subi r26,lo8(-(313))
 2449 0ffc BE4F      		sbci r27,hi8(-(313))
 2450 0ffe FE01      		movw r30,r28
 2451 1000 E85B      		subi r30,lo8(-(328))
 2452 1002 FE4F      		sbci r31,hi8(-(328))
 2453 1004 8081      		ld r24,Z
 2454 1006 8C93      		st X,r24
 2455               	.LBB270:
 2456               	.LBB271:
 2457               	.LM157:
 2458 1008 FE01      		movw r30,r28
 2459 100a E75C      		subi r30,lo8(-(313))
 2460 100c FE4F      		sbci r31,hi8(-(313))
 2461 100e 8081      		ld r24,Z
 2462               	/* #APP */
 2463               	 ;  83 "d:/winavr-20100110/lib/gcc/../../avr/include/util/delay_basic.h" 1
 2464 1010 8A95      		1: dec r24
 2465 1012 01F4      		brne 1b
 2466               	 ;  0 "" 2
 2467               	/* #NOAPP */
 2468 1014 FE01      		movw r30,r28
 2469 1016 E75C      		subi r30,lo8(-(313))
 2470 1018 FE4F      		sbci r31,hi8(-(313))
 2471 101a 8083      		st Z,r24
 2472               	.L146:
 2473               	.LBE271:
 2474               	.LBE270:
 2475               	.LBE263:
 2476               	.LBE262:
 2477               	.LM158:
 2478 101c 1092 0000 		sts i,__zero_reg__
 2479 1020 00C0      		rjmp .L147
 2480               	.L148:
 2481               	.LM159:
 2482 1022 A5E3      		ldi r26,lo8(53)
 2483 1024 B0E0      		ldi r27,hi8(53)
 2484 1026 E5E3      		ldi r30,lo8(53)
 2485 1028 F0E0      		ldi r31,hi8(53)
 2486 102a 8081      		ld r24,Z
 2487 102c 8B7F      		andi r24,lo8(-5)
 2488 102e 8C93      		st X,r24
 2489               	.LM160:
 2490 1030 A5E3      		ldi r26,lo8(53)
 2491 1032 B0E0      		ldi r27,hi8(53)
 2492 1034 E5E3      		ldi r30,lo8(53)
 2493 1036 F0E0      		ldi r31,hi8(53)
 2494 1038 8081      		ld r24,Z
 2495 103a 8E7F      		andi r24,lo8(-2)
 2496 103c 8C93      		st X,r24
 2497               	.LM161:
 2498 103e A5E3      		ldi r26,lo8(53)
 2499 1040 B0E0      		ldi r27,hi8(53)
 2500 1042 E5E3      		ldi r30,lo8(53)
 2501 1044 F0E0      		ldi r31,hi8(53)
 2502 1046 8081      		ld r24,Z
 2503 1048 8160      		ori r24,lo8(1)
 2504 104a 8C93      		st X,r24
 2505               	.LM162:
 2506 104c 8091 0000 		lds r24,i
 2507 1050 8F5F      		subi r24,lo8(-(1))
 2508 1052 8093 0000 		sts i,r24
 2509               	.L147:
 2510 1056 8091 0000 		lds r24,i
 2511 105a 8830      		cpi r24,lo8(8)
 2512 105c 00F0      		brlo .L148
 2513               	.LM163:
 2514 105e A5E3      		ldi r26,lo8(53)
 2515 1060 B0E0      		ldi r27,hi8(53)
 2516 1062 E5E3      		ldi r30,lo8(53)
 2517 1064 F0E0      		ldi r31,hi8(53)
 2518 1066 8081      		ld r24,Z
 2519 1068 8460      		ori r24,lo8(4)
 2520 106a 8C93      		st X,r24
 2521 106c FE01      		movw r30,r28
 2522 106e EB5C      		subi r30,lo8(-(309))
 2523 1070 FE4F      		sbci r31,hi8(-(309))
 2524 1072 80E0      		ldi r24,lo8(0x3f800000)
 2525 1074 90E0      		ldi r25,hi8(0x3f800000)
 2526 1076 A0E8      		ldi r26,hlo8(0x3f800000)
 2527 1078 BFE3      		ldi r27,hhi8(0x3f800000)
 2528 107a 8083      		st Z,r24
 2529 107c 9183      		std Z+1,r25
 2530 107e A283      		std Z+2,r26
 2531 1080 B383      		std Z+3,r27
 2532               	.LBB272:
 2533               	.LBB273:
 2534               	.LM164:
 2535 1082 8E01      		movw r16,r28
 2536 1084 0F5C      		subi r16,lo8(-(305))
 2537 1086 1E4F      		sbci r17,hi8(-(305))
 2538 1088 FE01      		movw r30,r28
 2539 108a EB5C      		subi r30,lo8(-(309))
 2540 108c FE4F      		sbci r31,hi8(-(309))
 2541 108e 6081      		ld r22,Z
 2542 1090 7181      		ldd r23,Z+1
 2543 1092 8281      		ldd r24,Z+2
 2544 1094 9381      		ldd r25,Z+3
 2545 1096 2BEA      		ldi r18,lo8(0x40aaaaab)
 2546 1098 3AEA      		ldi r19,hi8(0x40aaaaab)
 2547 109a 4AEA      		ldi r20,hlo8(0x40aaaaab)
 2548 109c 50E4      		ldi r21,hhi8(0x40aaaaab)
 2549 109e 0E94 0000 		call __mulsf3
 2550 10a2 DC01      		movw r26,r24
 2551 10a4 CB01      		movw r24,r22
 2552 10a6 F801      		movw r30,r16
 2553 10a8 8083      		st Z,r24
 2554 10aa 9183      		std Z+1,r25
 2555 10ac A283      		std Z+2,r26
 2556 10ae B383      		std Z+3,r27
 2557               	.LM165:
 2558 10b0 FE01      		movw r30,r28
 2559 10b2 EF5C      		subi r30,lo8(-(305))
 2560 10b4 FE4F      		sbci r31,hi8(-(305))
 2561 10b6 6081      		ld r22,Z
 2562 10b8 7181      		ldd r23,Z+1
 2563 10ba 8281      		ldd r24,Z+2
 2564 10bc 9381      		ldd r25,Z+3
 2565 10be 20E0      		ldi r18,lo8(0x3f800000)
 2566 10c0 30E0      		ldi r19,hi8(0x3f800000)
 2567 10c2 40E8      		ldi r20,hlo8(0x3f800000)
 2568 10c4 5FE3      		ldi r21,hhi8(0x3f800000)
 2569 10c6 0E94 0000 		call __ltsf2
 2570 10ca 8823      		tst r24
 2571 10cc 04F4      		brge .L426
 2572               	.L362:
 2573               	.LM166:
 2574 10ce FE01      		movw r30,r28
 2575 10d0 E05D      		subi r30,lo8(-(304))
 2576 10d2 FE4F      		sbci r31,hi8(-(304))
 2577 10d4 81E0      		ldi r24,lo8(1)
 2578 10d6 8083      		st Z,r24
 2579 10d8 00C0      		rjmp .L151
 2580               	.L426:
 2581               	.LM167:
 2582 10da FE01      		movw r30,r28
 2583 10dc EF5C      		subi r30,lo8(-(305))
 2584 10de FE4F      		sbci r31,hi8(-(305))
 2585 10e0 6081      		ld r22,Z
 2586 10e2 7181      		ldd r23,Z+1
 2587 10e4 8281      		ldd r24,Z+2
 2588 10e6 9381      		ldd r25,Z+3
 2589 10e8 20E0      		ldi r18,lo8(0x437f0000)
 2590 10ea 30E0      		ldi r19,hi8(0x437f0000)
 2591 10ec 4FE7      		ldi r20,hlo8(0x437f0000)
 2592 10ee 53E4      		ldi r21,hhi8(0x437f0000)
 2593 10f0 0E94 0000 		call __gtsf2
 2594 10f4 1816      		cp __zero_reg__,r24
 2595 10f6 04F0      		brlt .+2
 2596 10f8 00C0      		rjmp .L427
 2597               	.L363:
 2598               	.LM168:
 2599 10fa FE01      		movw r30,r28
 2600 10fc EB5C      		subi r30,lo8(-(309))
 2601 10fe FE4F      		sbci r31,hi8(-(309))
 2602 1100 6081      		ld r22,Z
 2603 1102 7181      		ldd r23,Z+1
 2604 1104 8281      		ldd r24,Z+2
 2605 1106 9381      		ldd r25,Z+3
 2606 1108 20E0      		ldi r18,lo8(0x447a0000)
 2607 110a 30E0      		ldi r19,hi8(0x447a0000)
 2608 110c 4AE7      		ldi r20,hlo8(0x447a0000)
 2609 110e 54E4      		ldi r21,hhi8(0x447a0000)
 2610 1110 0E94 0000 		call __divsf3
 2611 1114 DC01      		movw r26,r24
 2612 1116 CB01      		movw r24,r22
 2613 1118 FE01      		movw r30,r28
 2614 111a E45D      		subi r30,lo8(-(300))
 2615 111c FE4F      		sbci r31,hi8(-(300))
 2616 111e 8083      		st Z,r24
 2617 1120 9183      		std Z+1,r25
 2618 1122 A283      		std Z+2,r26
 2619 1124 B383      		std Z+3,r27
 2620               	.LBB274:
 2621               	.LBB275:
 2622               	.LM169:
 2623 1126 8E01      		movw r16,r28
 2624 1128 085D      		subi r16,lo8(-(296))
 2625 112a 1E4F      		sbci r17,hi8(-(296))
 2626 112c FE01      		movw r30,r28
 2627 112e E45D      		subi r30,lo8(-(300))
 2628 1130 FE4F      		sbci r31,hi8(-(300))
 2629 1132 6081      		ld r22,Z
 2630 1134 7181      		ldd r23,Z+1
 2631 1136 8281      		ldd r24,Z+2
 2632 1138 9381      		ldd r25,Z+3
 2633 113a 20E0      		ldi r18,lo8(0x457a0000)
 2634 113c 30E0      		ldi r19,hi8(0x457a0000)
 2635 113e 4AE7      		ldi r20,hlo8(0x457a0000)
 2636 1140 55E4      		ldi r21,hhi8(0x457a0000)
 2637 1142 0E94 0000 		call __mulsf3
 2638 1146 DC01      		movw r26,r24
 2639 1148 CB01      		movw r24,r22
 2640 114a F801      		movw r30,r16
 2641 114c 8083      		st Z,r24
 2642 114e 9183      		std Z+1,r25
 2643 1150 A283      		std Z+2,r26
 2644 1152 B383      		std Z+3,r27
 2645               	.LM170:
 2646 1154 FE01      		movw r30,r28
 2647 1156 E85D      		subi r30,lo8(-(296))
 2648 1158 FE4F      		sbci r31,hi8(-(296))
 2649 115a 6081      		ld r22,Z
 2650 115c 7181      		ldd r23,Z+1
 2651 115e 8281      		ldd r24,Z+2
 2652 1160 9381      		ldd r25,Z+3
 2653 1162 20E0      		ldi r18,lo8(0x3f800000)
 2654 1164 30E0      		ldi r19,hi8(0x3f800000)
 2655 1166 40E8      		ldi r20,hlo8(0x3f800000)
 2656 1168 5FE3      		ldi r21,hhi8(0x3f800000)
 2657 116a 0E94 0000 		call __ltsf2
 2658 116e 8823      		tst r24
 2659 1170 04F4      		brge .L428
 2660               	.L364:
 2661               	.LM171:
 2662 1172 FE01      		movw r30,r28
 2663 1174 EA5D      		subi r30,lo8(-(294))
 2664 1176 FE4F      		sbci r31,hi8(-(294))
 2665 1178 81E0      		ldi r24,lo8(1)
 2666 117a 90E0      		ldi r25,hi8(1)
 2667 117c 9183      		std Z+1,r25
 2668 117e 8083      		st Z,r24
 2669 1180 00C0      		rjmp .L156
 2670               	.L428:
 2671               	.LM172:
 2672 1182 FE01      		movw r30,r28
 2673 1184 E85D      		subi r30,lo8(-(296))
 2674 1186 FE4F      		sbci r31,hi8(-(296))
 2675 1188 6081      		ld r22,Z
 2676 118a 7181      		ldd r23,Z+1
 2677 118c 8281      		ldd r24,Z+2
 2678 118e 9381      		ldd r25,Z+3
 2679 1190 20E0      		ldi r18,lo8(0x477fff00)
 2680 1192 3FEF      		ldi r19,hi8(0x477fff00)
 2681 1194 4FE7      		ldi r20,hlo8(0x477fff00)
 2682 1196 57E4      		ldi r21,hhi8(0x477fff00)
 2683 1198 0E94 0000 		call __gtsf2
 2684 119c 1816      		cp __zero_reg__,r24
 2685 119e 04F0      		brlt .+2
 2686 11a0 00C0      		rjmp .L429
 2687               	.L365:
 2688               	.LM173:
 2689 11a2 FE01      		movw r30,r28
 2690 11a4 E45D      		subi r30,lo8(-(300))
 2691 11a6 FE4F      		sbci r31,hi8(-(300))
 2692 11a8 6081      		ld r22,Z
 2693 11aa 7181      		ldd r23,Z+1
 2694 11ac 8281      		ldd r24,Z+2
 2695 11ae 9381      		ldd r25,Z+3
 2696 11b0 20E0      		ldi r18,lo8(0x41200000)
 2697 11b2 30E0      		ldi r19,hi8(0x41200000)
 2698 11b4 40E2      		ldi r20,hlo8(0x41200000)
 2699 11b6 51E4      		ldi r21,hhi8(0x41200000)
 2700 11b8 0E94 0000 		call __mulsf3
 2701 11bc DC01      		movw r26,r24
 2702 11be CB01      		movw r24,r22
 2703 11c0 8E01      		movw r16,r28
 2704 11c2 0A5D      		subi r16,lo8(-(294))
 2705 11c4 1E4F      		sbci r17,hi8(-(294))
 2706 11c6 BC01      		movw r22,r24
 2707 11c8 CD01      		movw r24,r26
 2708 11ca 0E94 0000 		call __fixunssfsi
 2709 11ce DC01      		movw r26,r24
 2710 11d0 CB01      		movw r24,r22
 2711 11d2 F801      		movw r30,r16
 2712 11d4 9183      		std Z+1,r25
 2713 11d6 8083      		st Z,r24
 2714 11d8 00C0      		rjmp .L159
 2715               	.L160:
 2716 11da FE01      		movw r30,r28
 2717 11dc EC5D      		subi r30,lo8(-(292))
 2718 11de FE4F      		sbci r31,hi8(-(292))
 2719 11e0 80E9      		ldi r24,lo8(400)
 2720 11e2 91E0      		ldi r25,hi8(400)
 2721 11e4 9183      		std Z+1,r25
 2722 11e6 8083      		st Z,r24
 2723               	.LBB276:
 2724               	.LBB277:
 2725               	.LM174:
 2726 11e8 FE01      		movw r30,r28
 2727 11ea EC5D      		subi r30,lo8(-(292))
 2728 11ec FE4F      		sbci r31,hi8(-(292))
 2729 11ee 8081      		ld r24,Z
 2730 11f0 9181      		ldd r25,Z+1
 2731               	/* #APP */
 2732               	 ;  105 "d:/winavr-20100110/lib/gcc/../../avr/include/util/delay_basic.h" 1
 2733 11f2 0197      		1: sbiw r24,1
 2734 11f4 01F4      		brne 1b
 2735               	 ;  0 "" 2
 2736               	/* #NOAPP */
 2737 11f6 FE01      		movw r30,r28
 2738 11f8 EC5D      		subi r30,lo8(-(292))
 2739 11fa FE4F      		sbci r31,hi8(-(292))
 2740 11fc 9183      		std Z+1,r25
 2741 11fe 8083      		st Z,r24
 2742               	.LBE277:
 2743               	.LBE276:
 2744               	.LM175:
 2745 1200 DE01      		movw r26,r28
 2746 1202 AA5D      		subi r26,lo8(-(294))
 2747 1204 BE4F      		sbci r27,hi8(-(294))
 2748 1206 FE01      		movw r30,r28
 2749 1208 EA5D      		subi r30,lo8(-(294))
 2750 120a FE4F      		sbci r31,hi8(-(294))
 2751 120c 8081      		ld r24,Z
 2752 120e 9181      		ldd r25,Z+1
 2753 1210 0197      		sbiw r24,1
 2754 1212 1196      		adiw r26,1
 2755 1214 9C93      		st X,r25
 2756 1216 8E93      		st -X,r24
 2757               	.L159:
 2758               	.LM176:
 2759 1218 FE01      		movw r30,r28
 2760 121a EA5D      		subi r30,lo8(-(294))
 2761 121c FE4F      		sbci r31,hi8(-(294))
 2762 121e 8081      		ld r24,Z
 2763 1220 9181      		ldd r25,Z+1
 2764 1222 0097      		sbiw r24,0
 2765 1224 01F4      		brne .L160
 2766 1226 00C0      		rjmp .L162
 2767               	.L429:
 2768               	.LM177:
 2769 1228 8E01      		movw r16,r28
 2770 122a 0A5D      		subi r16,lo8(-(294))
 2771 122c 1E4F      		sbci r17,hi8(-(294))
 2772 122e FE01      		movw r30,r28
 2773 1230 E85D      		subi r30,lo8(-(296))
 2774 1232 FE4F      		sbci r31,hi8(-(296))
 2775 1234 6081      		ld r22,Z
 2776 1236 7181      		ldd r23,Z+1
 2777 1238 8281      		ldd r24,Z+2
 2778 123a 9381      		ldd r25,Z+3
 2779 123c 0E94 0000 		call __fixunssfsi
 2780 1240 DC01      		movw r26,r24
 2781 1242 CB01      		movw r24,r22
 2782 1244 F801      		movw r30,r16
 2783 1246 9183      		std Z+1,r25
 2784 1248 8083      		st Z,r24
 2785               	.L156:
 2786 124a DE01      		movw r26,r28
 2787 124c AE5D      		subi r26,lo8(-(290))
 2788 124e BE4F      		sbci r27,hi8(-(290))
 2789 1250 FE01      		movw r30,r28
 2790 1252 EA5D      		subi r30,lo8(-(294))
 2791 1254 FE4F      		sbci r31,hi8(-(294))
 2792 1256 8081      		ld r24,Z
 2793 1258 9181      		ldd r25,Z+1
 2794 125a 1196      		adiw r26,1
 2795 125c 9C93      		st X,r25
 2796 125e 8E93      		st -X,r24
 2797               	.LBB278:
 2798               	.LBB279:
 2799               	.LM178:
 2800 1260 FE01      		movw r30,r28
 2801 1262 EE5D      		subi r30,lo8(-(290))
 2802 1264 FE4F      		sbci r31,hi8(-(290))
 2803 1266 8081      		ld r24,Z
 2804 1268 9181      		ldd r25,Z+1
 2805               	/* #APP */
 2806               	 ;  105 "d:/winavr-20100110/lib/gcc/../../avr/include/util/delay_basic.h" 1
 2807 126a 0197      		1: sbiw r24,1
 2808 126c 01F4      		brne 1b
 2809               	 ;  0 "" 2
 2810               	/* #NOAPP */
 2811 126e FE01      		movw r30,r28
 2812 1270 EE5D      		subi r30,lo8(-(290))
 2813 1272 FE4F      		sbci r31,hi8(-(290))
 2814 1274 9183      		std Z+1,r25
 2815 1276 8083      		st Z,r24
 2816 1278 00C0      		rjmp .L162
 2817               	.L427:
 2818               	.LBE279:
 2819               	.LBE278:
 2820               	.LBE275:
 2821               	.LBE274:
 2822               	.LM179:
 2823 127a 8E01      		movw r16,r28
 2824 127c 005D      		subi r16,lo8(-(304))
 2825 127e 1E4F      		sbci r17,hi8(-(304))
 2826 1280 FE01      		movw r30,r28
 2827 1282 EF5C      		subi r30,lo8(-(305))
 2828 1284 FE4F      		sbci r31,hi8(-(305))
 2829 1286 6081      		ld r22,Z
 2830 1288 7181      		ldd r23,Z+1
 2831 128a 8281      		ldd r24,Z+2
 2832 128c 9381      		ldd r25,Z+3
 2833 128e 0E94 0000 		call __fixunssfsi
 2834 1292 DC01      		movw r26,r24
 2835 1294 CB01      		movw r24,r22
 2836 1296 F801      		movw r30,r16
 2837 1298 8083      		st Z,r24
 2838               	.L151:
 2839 129a DE01      		movw r26,r28
 2840 129c AF5D      		subi r26,lo8(-(289))
 2841 129e BE4F      		sbci r27,hi8(-(289))
 2842 12a0 FE01      		movw r30,r28
 2843 12a2 E05D      		subi r30,lo8(-(304))
 2844 12a4 FE4F      		sbci r31,hi8(-(304))
 2845 12a6 8081      		ld r24,Z
 2846 12a8 8C93      		st X,r24
 2847               	.LBB280:
 2848               	.LBB281:
 2849               	.LM180:
 2850 12aa FE01      		movw r30,r28
 2851 12ac EF5D      		subi r30,lo8(-(289))
 2852 12ae FE4F      		sbci r31,hi8(-(289))
 2853 12b0 8081      		ld r24,Z
 2854               	/* #APP */
 2855               	 ;  83 "d:/winavr-20100110/lib/gcc/../../avr/include/util/delay_basic.h" 1
 2856 12b2 8A95      		1: dec r24
 2857 12b4 01F4      		brne 1b
 2858               	 ;  0 "" 2
 2859               	/* #NOAPP */
 2860 12b6 FE01      		movw r30,r28
 2861 12b8 EF5D      		subi r30,lo8(-(289))
 2862 12ba FE4F      		sbci r31,hi8(-(289))
 2863 12bc 8083      		st Z,r24
 2864               	.L162:
 2865               	.LBE281:
 2866               	.LBE280:
 2867               	.LBE273:
 2868               	.LBE272:
 2869               	.LM181:
 2870 12be 1092 0000 		sts PS2data4,__zero_reg__
 2871               	.LM182:
 2872 12c2 1092 0000 		sts i,__zero_reg__
 2873 12c6 00C0      		rjmp .L163
 2874               	.L179:
 2875               	.LM183:
 2876 12c8 A5E3      		ldi r26,lo8(53)
 2877 12ca B0E0      		ldi r27,hi8(53)
 2878 12cc E5E3      		ldi r30,lo8(53)
 2879 12ce F0E0      		ldi r31,hi8(53)
 2880 12d0 8081      		ld r24,Z
 2881 12d2 8B7F      		andi r24,lo8(-5)
 2882 12d4 8C93      		st X,r24
 2883               	.LM184:
 2884 12d6 A5E3      		ldi r26,lo8(53)
 2885 12d8 B0E0      		ldi r27,hi8(53)
 2886 12da E5E3      		ldi r30,lo8(53)
 2887 12dc F0E0      		ldi r31,hi8(53)
 2888 12de 8081      		ld r24,Z
 2889 12e0 8E7F      		andi r24,lo8(-2)
 2890 12e2 8C93      		st X,r24
 2891 12e4 FE01      		movw r30,r28
 2892 12e6 E35E      		subi r30,lo8(-(285))
 2893 12e8 FE4F      		sbci r31,hi8(-(285))
 2894 12ea 80E0      		ldi r24,lo8(0x3f800000)
 2895 12ec 90E0      		ldi r25,hi8(0x3f800000)
 2896 12ee A0E8      		ldi r26,hlo8(0x3f800000)
 2897 12f0 BFE3      		ldi r27,hhi8(0x3f800000)
 2898 12f2 8083      		st Z,r24
 2899 12f4 9183      		std Z+1,r25
 2900 12f6 A283      		std Z+2,r26
 2901 12f8 B383      		std Z+3,r27
 2902               	.LBB282:
 2903               	.LBB283:
 2904               	.LM185:
 2905 12fa 8E01      		movw r16,r28
 2906 12fc 075E      		subi r16,lo8(-(281))
 2907 12fe 1E4F      		sbci r17,hi8(-(281))
 2908 1300 FE01      		movw r30,r28
 2909 1302 E35E      		subi r30,lo8(-(285))
 2910 1304 FE4F      		sbci r31,hi8(-(285))
 2911 1306 6081      		ld r22,Z
 2912 1308 7181      		ldd r23,Z+1
 2913 130a 8281      		ldd r24,Z+2
 2914 130c 9381      		ldd r25,Z+3
 2915 130e 2BEA      		ldi r18,lo8(0x40aaaaab)
 2916 1310 3AEA      		ldi r19,hi8(0x40aaaaab)
 2917 1312 4AEA      		ldi r20,hlo8(0x40aaaaab)
 2918 1314 50E4      		ldi r21,hhi8(0x40aaaaab)
 2919 1316 0E94 0000 		call __mulsf3
 2920 131a DC01      		movw r26,r24
 2921 131c CB01      		movw r24,r22
 2922 131e F801      		movw r30,r16
 2923 1320 8083      		st Z,r24
 2924 1322 9183      		std Z+1,r25
 2925 1324 A283      		std Z+2,r26
 2926 1326 B383      		std Z+3,r27
 2927               	.LM186:
 2928 1328 FE01      		movw r30,r28
 2929 132a E75E      		subi r30,lo8(-(281))
 2930 132c FE4F      		sbci r31,hi8(-(281))
 2931 132e 6081      		ld r22,Z
 2932 1330 7181      		ldd r23,Z+1
 2933 1332 8281      		ldd r24,Z+2
 2934 1334 9381      		ldd r25,Z+3
 2935 1336 20E0      		ldi r18,lo8(0x3f800000)
 2936 1338 30E0      		ldi r19,hi8(0x3f800000)
 2937 133a 40E8      		ldi r20,hlo8(0x3f800000)
 2938 133c 5FE3      		ldi r21,hhi8(0x3f800000)
 2939 133e 0E94 0000 		call __ltsf2
 2940 1342 8823      		tst r24
 2941 1344 04F4      		brge .L430
 2942               	.L366:
 2943               	.LM187:
 2944 1346 FE01      		movw r30,r28
 2945 1348 E85E      		subi r30,lo8(-(280))
 2946 134a FE4F      		sbci r31,hi8(-(280))
 2947 134c 81E0      		ldi r24,lo8(1)
 2948 134e 8083      		st Z,r24
 2949 1350 00C0      		rjmp .L166
 2950               	.L430:
 2951               	.LM188:
 2952 1352 FE01      		movw r30,r28
 2953 1354 E75E      		subi r30,lo8(-(281))
 2954 1356 FE4F      		sbci r31,hi8(-(281))
 2955 1358 6081      		ld r22,Z
 2956 135a 7181      		ldd r23,Z+1
 2957 135c 8281      		ldd r24,Z+2
 2958 135e 9381      		ldd r25,Z+3
 2959 1360 20E0      		ldi r18,lo8(0x437f0000)
 2960 1362 30E0      		ldi r19,hi8(0x437f0000)
 2961 1364 4FE7      		ldi r20,hlo8(0x437f0000)
 2962 1366 53E4      		ldi r21,hhi8(0x437f0000)
 2963 1368 0E94 0000 		call __gtsf2
 2964 136c 1816      		cp __zero_reg__,r24
 2965 136e 04F0      		brlt .+2
 2966 1370 00C0      		rjmp .L431
 2967               	.L367:
 2968               	.LM189:
 2969 1372 FE01      		movw r30,r28
 2970 1374 E35E      		subi r30,lo8(-(285))
 2971 1376 FE4F      		sbci r31,hi8(-(285))
 2972 1378 6081      		ld r22,Z
 2973 137a 7181      		ldd r23,Z+1
 2974 137c 8281      		ldd r24,Z+2
 2975 137e 9381      		ldd r25,Z+3
 2976 1380 20E0      		ldi r18,lo8(0x447a0000)
 2977 1382 30E0      		ldi r19,hi8(0x447a0000)
 2978 1384 4AE7      		ldi r20,hlo8(0x447a0000)
 2979 1386 54E4      		ldi r21,hhi8(0x447a0000)
 2980 1388 0E94 0000 		call __divsf3
 2981 138c DC01      		movw r26,r24
 2982 138e CB01      		movw r24,r22
 2983 1390 FE01      		movw r30,r28
 2984 1392 EC5E      		subi r30,lo8(-(276))
 2985 1394 FE4F      		sbci r31,hi8(-(276))
 2986 1396 8083      		st Z,r24
 2987 1398 9183      		std Z+1,r25
 2988 139a A283      		std Z+2,r26
 2989 139c B383      		std Z+3,r27
 2990               	.LBB284:
 2991               	.LBB285:
 2992               	.LM190:
 2993 139e 8E01      		movw r16,r28
 2994 13a0 005F      		subi r16,lo8(-(272))
 2995 13a2 1E4F      		sbci r17,hi8(-(272))
 2996 13a4 FE01      		movw r30,r28
 2997 13a6 EC5E      		subi r30,lo8(-(276))
 2998 13a8 FE4F      		sbci r31,hi8(-(276))
 2999 13aa 6081      		ld r22,Z
 3000 13ac 7181      		ldd r23,Z+1
 3001 13ae 8281      		ldd r24,Z+2
 3002 13b0 9381      		ldd r25,Z+3
 3003 13b2 20E0      		ldi r18,lo8(0x457a0000)
 3004 13b4 30E0      		ldi r19,hi8(0x457a0000)
 3005 13b6 4AE7      		ldi r20,hlo8(0x457a0000)
 3006 13b8 55E4      		ldi r21,hhi8(0x457a0000)
 3007 13ba 0E94 0000 		call __mulsf3
 3008 13be DC01      		movw r26,r24
 3009 13c0 CB01      		movw r24,r22
 3010 13c2 F801      		movw r30,r16
 3011 13c4 8083      		st Z,r24
 3012 13c6 9183      		std Z+1,r25
 3013 13c8 A283      		std Z+2,r26
 3014 13ca B383      		std Z+3,r27
 3015               	.LM191:
 3016 13cc FE01      		movw r30,r28
 3017 13ce E05F      		subi r30,lo8(-(272))
 3018 13d0 FE4F      		sbci r31,hi8(-(272))
 3019 13d2 6081      		ld r22,Z
 3020 13d4 7181      		ldd r23,Z+1
 3021 13d6 8281      		ldd r24,Z+2
 3022 13d8 9381      		ldd r25,Z+3
 3023 13da 20E0      		ldi r18,lo8(0x3f800000)
 3024 13dc 30E0      		ldi r19,hi8(0x3f800000)
 3025 13de 40E8      		ldi r20,hlo8(0x3f800000)
 3026 13e0 5FE3      		ldi r21,hhi8(0x3f800000)
 3027 13e2 0E94 0000 		call __ltsf2
 3028 13e6 8823      		tst r24
 3029 13e8 04F4      		brge .L432
 3030               	.L368:
 3031               	.LM192:
 3032 13ea FE01      		movw r30,r28
 3033 13ec E25F      		subi r30,lo8(-(270))
 3034 13ee FE4F      		sbci r31,hi8(-(270))
 3035 13f0 81E0      		ldi r24,lo8(1)
 3036 13f2 90E0      		ldi r25,hi8(1)
 3037 13f4 9183      		std Z+1,r25
 3038 13f6 8083      		st Z,r24
 3039 13f8 00C0      		rjmp .L171
 3040               	.L432:
 3041               	.LM193:
 3042 13fa FE01      		movw r30,r28
 3043 13fc E05F      		subi r30,lo8(-(272))
 3044 13fe FE4F      		sbci r31,hi8(-(272))
 3045 1400 6081      		ld r22,Z
 3046 1402 7181      		ldd r23,Z+1
 3047 1404 8281      		ldd r24,Z+2
 3048 1406 9381      		ldd r25,Z+3
 3049 1408 20E0      		ldi r18,lo8(0x477fff00)
 3050 140a 3FEF      		ldi r19,hi8(0x477fff00)
 3051 140c 4FE7      		ldi r20,hlo8(0x477fff00)
 3052 140e 57E4      		ldi r21,hhi8(0x477fff00)
 3053 1410 0E94 0000 		call __gtsf2
 3054 1414 1816      		cp __zero_reg__,r24
 3055 1416 04F0      		brlt .+2
 3056 1418 00C0      		rjmp .L433
 3057               	.L369:
 3058               	.LM194:
 3059 141a FE01      		movw r30,r28
 3060 141c EC5E      		subi r30,lo8(-(276))
 3061 141e FE4F      		sbci r31,hi8(-(276))
 3062 1420 6081      		ld r22,Z
 3063 1422 7181      		ldd r23,Z+1
 3064 1424 8281      		ldd r24,Z+2
 3065 1426 9381      		ldd r25,Z+3
 3066 1428 20E0      		ldi r18,lo8(0x41200000)
 3067 142a 30E0      		ldi r19,hi8(0x41200000)
 3068 142c 40E2      		ldi r20,hlo8(0x41200000)
 3069 142e 51E4      		ldi r21,hhi8(0x41200000)
 3070 1430 0E94 0000 		call __mulsf3
 3071 1434 DC01      		movw r26,r24
 3072 1436 CB01      		movw r24,r22
 3073 1438 8E01      		movw r16,r28
 3074 143a 025F      		subi r16,lo8(-(270))
 3075 143c 1E4F      		sbci r17,hi8(-(270))
 3076 143e BC01      		movw r22,r24
 3077 1440 CD01      		movw r24,r26
 3078 1442 0E94 0000 		call __fixunssfsi
 3079 1446 DC01      		movw r26,r24
 3080 1448 CB01      		movw r24,r22
 3081 144a F801      		movw r30,r16
 3082 144c 9183      		std Z+1,r25
 3083 144e 8083      		st Z,r24
 3084 1450 00C0      		rjmp .L174
 3085               	.L175:
 3086 1452 FE01      		movw r30,r28
 3087 1454 E45F      		subi r30,lo8(-(268))
 3088 1456 FE4F      		sbci r31,hi8(-(268))
 3089 1458 80E9      		ldi r24,lo8(400)
 3090 145a 91E0      		ldi r25,hi8(400)
 3091 145c 9183      		std Z+1,r25
 3092 145e 8083      		st Z,r24
 3093               	.LBB286:
 3094               	.LBB287:
 3095               	.LM195:
 3096 1460 FE01      		movw r30,r28
 3097 1462 E45F      		subi r30,lo8(-(268))
 3098 1464 FE4F      		sbci r31,hi8(-(268))
 3099 1466 8081      		ld r24,Z
 3100 1468 9181      		ldd r25,Z+1
 3101               	/* #APP */
 3102               	 ;  105 "d:/winavr-20100110/lib/gcc/../../avr/include/util/delay_basic.h" 1
 3103 146a 0197      		1: sbiw r24,1
 3104 146c 01F4      		brne 1b
 3105               	 ;  0 "" 2
 3106               	/* #NOAPP */
 3107 146e FE01      		movw r30,r28
 3108 1470 E45F      		subi r30,lo8(-(268))
 3109 1472 FE4F      		sbci r31,hi8(-(268))
 3110 1474 9183      		std Z+1,r25
 3111 1476 8083      		st Z,r24
 3112               	.LBE287:
 3113               	.LBE286:
 3114               	.LM196:
 3115 1478 DE01      		movw r26,r28
 3116 147a A25F      		subi r26,lo8(-(270))
 3117 147c BE4F      		sbci r27,hi8(-(270))
 3118 147e FE01      		movw r30,r28
 3119 1480 E25F      		subi r30,lo8(-(270))
 3120 1482 FE4F      		sbci r31,hi8(-(270))
 3121 1484 8081      		ld r24,Z
 3122 1486 9181      		ldd r25,Z+1
 3123 1488 0197      		sbiw r24,1
 3124 148a 1196      		adiw r26,1
 3125 148c 9C93      		st X,r25
 3126 148e 8E93      		st -X,r24
 3127               	.L174:
 3128               	.LM197:
 3129 1490 FE01      		movw r30,r28
 3130 1492 E25F      		subi r30,lo8(-(270))
 3131 1494 FE4F      		sbci r31,hi8(-(270))
 3132 1496 8081      		ld r24,Z
 3133 1498 9181      		ldd r25,Z+1
 3134 149a 0097      		sbiw r24,0
 3135 149c 01F4      		brne .L175
 3136 149e 00C0      		rjmp .L177
 3137               	.L433:
 3138               	.LM198:
 3139 14a0 8E01      		movw r16,r28
 3140 14a2 025F      		subi r16,lo8(-(270))
 3141 14a4 1E4F      		sbci r17,hi8(-(270))
 3142 14a6 FE01      		movw r30,r28
 3143 14a8 E05F      		subi r30,lo8(-(272))
 3144 14aa FE4F      		sbci r31,hi8(-(272))
 3145 14ac 6081      		ld r22,Z
 3146 14ae 7181      		ldd r23,Z+1
 3147 14b0 8281      		ldd r24,Z+2
 3148 14b2 9381      		ldd r25,Z+3
 3149 14b4 0E94 0000 		call __fixunssfsi
 3150 14b8 DC01      		movw r26,r24
 3151 14ba CB01      		movw r24,r22
 3152 14bc F801      		movw r30,r16
 3153 14be 9183      		std Z+1,r25
 3154 14c0 8083      		st Z,r24
 3155               	.L171:
 3156 14c2 DE01      		movw r26,r28
 3157 14c4 A65F      		subi r26,lo8(-(266))
 3158 14c6 BE4F      		sbci r27,hi8(-(266))
 3159 14c8 FE01      		movw r30,r28
 3160 14ca E25F      		subi r30,lo8(-(270))
 3161 14cc FE4F      		sbci r31,hi8(-(270))
 3162 14ce 8081      		ld r24,Z
 3163 14d0 9181      		ldd r25,Z+1
 3164 14d2 1196      		adiw r26,1
 3165 14d4 9C93      		st X,r25
 3166 14d6 8E93      		st -X,r24
 3167               	.LBB288:
 3168               	.LBB289:
 3169               	.LM199:
 3170 14d8 FE01      		movw r30,r28
 3171 14da E65F      		subi r30,lo8(-(266))
 3172 14dc FE4F      		sbci r31,hi8(-(266))
 3173 14de 8081      		ld r24,Z
 3174 14e0 9181      		ldd r25,Z+1
 3175               	/* #APP */
 3176               	 ;  105 "d:/winavr-20100110/lib/gcc/../../avr/include/util/delay_basic.h" 1
 3177 14e2 0197      		1: sbiw r24,1
 3178 14e4 01F4      		brne 1b
 3179               	 ;  0 "" 2
 3180               	/* #NOAPP */
 3181 14e6 FE01      		movw r30,r28
 3182 14e8 E65F      		subi r30,lo8(-(266))
 3183 14ea FE4F      		sbci r31,hi8(-(266))
 3184 14ec 9183      		std Z+1,r25
 3185 14ee 8083      		st Z,r24
 3186 14f0 00C0      		rjmp .L177
 3187               	.L431:
 3188               	.LBE289:
 3189               	.LBE288:
 3190               	.LBE285:
 3191               	.LBE284:
 3192               	.LM200:
 3193 14f2 8E01      		movw r16,r28
 3194 14f4 085E      		subi r16,lo8(-(280))
 3195 14f6 1E4F      		sbci r17,hi8(-(280))
 3196 14f8 FE01      		movw r30,r28
 3197 14fa E75E      		subi r30,lo8(-(281))
 3198 14fc FE4F      		sbci r31,hi8(-(281))
 3199 14fe 6081      		ld r22,Z
 3200 1500 7181      		ldd r23,Z+1
 3201 1502 8281      		ldd r24,Z+2
 3202 1504 9381      		ldd r25,Z+3
 3203 1506 0E94 0000 		call __fixunssfsi
 3204 150a DC01      		movw r26,r24
 3205 150c CB01      		movw r24,r22
 3206 150e F801      		movw r30,r16
 3207 1510 8083      		st Z,r24
 3208               	.L166:
 3209 1512 DE01      		movw r26,r28
 3210 1514 A75F      		subi r26,lo8(-(265))
 3211 1516 BE4F      		sbci r27,hi8(-(265))
 3212 1518 FE01      		movw r30,r28
 3213 151a E85E      		subi r30,lo8(-(280))
 3214 151c FE4F      		sbci r31,hi8(-(280))
 3215 151e 8081      		ld r24,Z
 3216 1520 8C93      		st X,r24
 3217               	.LBB290:
 3218               	.LBB291:
 3219               	.LM201:
 3220 1522 FE01      		movw r30,r28
 3221 1524 E75F      		subi r30,lo8(-(265))
 3222 1526 FE4F      		sbci r31,hi8(-(265))
 3223 1528 8081      		ld r24,Z
 3224               	/* #APP */
 3225               	 ;  83 "d:/winavr-20100110/lib/gcc/../../avr/include/util/delay_basic.h" 1
 3226 152a 8A95      		1: dec r24
 3227 152c 01F4      		brne 1b
 3228               	 ;  0 "" 2
 3229               	/* #NOAPP */
 3230 152e FE01      		movw r30,r28
 3231 1530 E75F      		subi r30,lo8(-(265))
 3232 1532 FE4F      		sbci r31,hi8(-(265))
 3233 1534 8083      		st Z,r24
 3234               	.L177:
 3235               	.LBE291:
 3236               	.LBE290:
 3237               	.LBE283:
 3238               	.LBE282:
 3239               	.LM202:
 3240 1536 E3E3      		ldi r30,lo8(51)
 3241 1538 F0E0      		ldi r31,hi8(51)
 3242 153a 8081      		ld r24,Z
 3243 153c 882F      		mov r24,r24
 3244 153e 90E0      		ldi r25,lo8(0)
 3245 1540 8270      		andi r24,lo8(2)
 3246 1542 9070      		andi r25,hi8(2)
 3247 1544 0097      		sbiw r24,0
 3248 1546 01F0      		breq .L178
 3249 1548 8091 0000 		lds r24,i
 3250 154c 282F      		mov r18,r24
 3251 154e 30E0      		ldi r19,lo8(0)
 3252 1550 81E0      		ldi r24,lo8(1)
 3253 1552 90E0      		ldi r25,hi8(1)
 3254 1554 022E      		mov r0,r18
 3255 1556 00C0      		rjmp 2f
 3256 1558 880F      	1:	lsl r24
 3257 155a 991F      		rol r25
 3258 155c 0A94      	2:	dec r0
 3259 155e 02F4      		brpl 1b
 3260 1560 982F      		mov r25,r24
 3261 1562 8091 0000 		lds r24,PS2data4
 3262 1566 892B      		or r24,r25
 3263 1568 8093 0000 		sts PS2data4,r24
 3264               	.L178:
 3265               	.LM203:
 3266 156c A5E3      		ldi r26,lo8(53)
 3267 156e B0E0      		ldi r27,hi8(53)
 3268 1570 E5E3      		ldi r30,lo8(53)
 3269 1572 F0E0      		ldi r31,hi8(53)
 3270 1574 8081      		ld r24,Z
 3271 1576 8160      		ori r24,lo8(1)
 3272 1578 8C93      		st X,r24
 3273               	.LM204:
 3274 157a 8091 0000 		lds r24,i
 3275 157e 8F5F      		subi r24,lo8(-(1))
 3276 1580 8093 0000 		sts i,r24
 3277               	.L163:
 3278 1584 8091 0000 		lds r24,i
 3279 1588 8830      		cpi r24,lo8(8)
 3280 158a 00F4      		brsh .+2
 3281 158c 00C0      		rjmp .L179
 3282               	.LM205:
 3283 158e A5E3      		ldi r26,lo8(53)
 3284 1590 B0E0      		ldi r27,hi8(53)
 3285 1592 E5E3      		ldi r30,lo8(53)
 3286 1594 F0E0      		ldi r31,hi8(53)
 3287 1596 8081      		ld r24,Z
 3288 1598 8460      		ori r24,lo8(4)
 3289 159a 8C93      		st X,r24
 3290 159c FE01      		movw r30,r28
 3291 159e EB5F      		subi r30,lo8(-(261))
 3292 15a0 FE4F      		sbci r31,hi8(-(261))
 3293 15a2 80E0      		ldi r24,lo8(0x3f800000)
 3294 15a4 90E0      		ldi r25,hi8(0x3f800000)
 3295 15a6 A0E8      		ldi r26,hlo8(0x3f800000)
 3296 15a8 BFE3      		ldi r27,hhi8(0x3f800000)
 3297 15aa 8083      		st Z,r24
 3298 15ac 9183      		std Z+1,r25
 3299 15ae A283      		std Z+2,r26
 3300 15b0 B383      		std Z+3,r27
 3301               	.LBB292:
 3302               	.LBB293:
 3303               	.LM206:
 3304 15b2 8E01      		movw r16,r28
 3305 15b4 0F5F      		subi r16,lo8(-(257))
 3306 15b6 1E4F      		sbci r17,hi8(-(257))
 3307 15b8 FE01      		movw r30,r28
 3308 15ba EB5F      		subi r30,lo8(-(261))
 3309 15bc FE4F      		sbci r31,hi8(-(261))
 3310 15be 6081      		ld r22,Z
 3311 15c0 7181      		ldd r23,Z+1
 3312 15c2 8281      		ldd r24,Z+2
 3313 15c4 9381      		ldd r25,Z+3
 3314 15c6 2BEA      		ldi r18,lo8(0x40aaaaab)
 3315 15c8 3AEA      		ldi r19,hi8(0x40aaaaab)
 3316 15ca 4AEA      		ldi r20,hlo8(0x40aaaaab)
 3317 15cc 50E4      		ldi r21,hhi8(0x40aaaaab)
 3318 15ce 0E94 0000 		call __mulsf3
 3319 15d2 DC01      		movw r26,r24
 3320 15d4 CB01      		movw r24,r22
 3321 15d6 F801      		movw r30,r16
 3322 15d8 8083      		st Z,r24
 3323 15da 9183      		std Z+1,r25
 3324 15dc A283      		std Z+2,r26
 3325 15de B383      		std Z+3,r27
 3326               	.LM207:
 3327 15e0 FE01      		movw r30,r28
 3328 15e2 EF5F      		subi r30,lo8(-(257))
 3329 15e4 FE4F      		sbci r31,hi8(-(257))
 3330 15e6 6081      		ld r22,Z
 3331 15e8 7181      		ldd r23,Z+1
 3332 15ea 8281      		ldd r24,Z+2
 3333 15ec 9381      		ldd r25,Z+3
 3334 15ee 20E0      		ldi r18,lo8(0x3f800000)
 3335 15f0 30E0      		ldi r19,hi8(0x3f800000)
 3336 15f2 40E8      		ldi r20,hlo8(0x3f800000)
 3337 15f4 5FE3      		ldi r21,hhi8(0x3f800000)
 3338 15f6 0E94 0000 		call __ltsf2
 3339 15fa 8823      		tst r24
 3340 15fc 04F4      		brge .L434
 3341               	.L370:
 3342               	.LM208:
 3343 15fe FE01      		movw r30,r28
 3344 1600 E050      		subi r30,lo8(-(256))
 3345 1602 FF4F      		sbci r31,hi8(-(256))
 3346 1604 81E0      		ldi r24,lo8(1)
 3347 1606 8083      		st Z,r24
 3348 1608 00C0      		rjmp .L182
 3349               	.L434:
 3350               	.LM209:
 3351 160a FE01      		movw r30,r28
 3352 160c EF5F      		subi r30,lo8(-(257))
 3353 160e FE4F      		sbci r31,hi8(-(257))
 3354 1610 6081      		ld r22,Z
 3355 1612 7181      		ldd r23,Z+1
 3356 1614 8281      		ldd r24,Z+2
 3357 1616 9381      		ldd r25,Z+3
 3358 1618 20E0      		ldi r18,lo8(0x437f0000)
 3359 161a 30E0      		ldi r19,hi8(0x437f0000)
 3360 161c 4FE7      		ldi r20,hlo8(0x437f0000)
 3361 161e 53E4      		ldi r21,hhi8(0x437f0000)
 3362 1620 0E94 0000 		call __gtsf2
 3363 1624 1816      		cp __zero_reg__,r24
 3364 1626 04F0      		brlt .+2
 3365 1628 00C0      		rjmp .L435
 3366               	.L371:
 3367               	.LM210:
 3368 162a FE01      		movw r30,r28
 3369 162c EB5F      		subi r30,lo8(-(261))
 3370 162e FE4F      		sbci r31,hi8(-(261))
 3371 1630 6081      		ld r22,Z
 3372 1632 7181      		ldd r23,Z+1
 3373 1634 8281      		ldd r24,Z+2
 3374 1636 9381      		ldd r25,Z+3
 3375 1638 20E0      		ldi r18,lo8(0x447a0000)
 3376 163a 30E0      		ldi r19,hi8(0x447a0000)
 3377 163c 4AE7      		ldi r20,hlo8(0x447a0000)
 3378 163e 54E4      		ldi r21,hhi8(0x447a0000)
 3379 1640 0E94 0000 		call __divsf3
 3380 1644 DC01      		movw r26,r24
 3381 1646 CB01      		movw r24,r22
 3382 1648 FE01      		movw r30,r28
 3383 164a E450      		subi r30,lo8(-(252))
 3384 164c FF4F      		sbci r31,hi8(-(252))
 3385 164e 8083      		st Z,r24
 3386 1650 9183      		std Z+1,r25
 3387 1652 A283      		std Z+2,r26
 3388 1654 B383      		std Z+3,r27
 3389               	.LBB294:
 3390               	.LBB295:
 3391               	.LM211:
 3392 1656 8E01      		movw r16,r28
 3393 1658 0850      		subi r16,lo8(-(248))
 3394 165a 1F4F      		sbci r17,hi8(-(248))
 3395 165c FE01      		movw r30,r28
 3396 165e E450      		subi r30,lo8(-(252))
 3397 1660 FF4F      		sbci r31,hi8(-(252))
 3398 1662 6081      		ld r22,Z
 3399 1664 7181      		ldd r23,Z+1
 3400 1666 8281      		ldd r24,Z+2
 3401 1668 9381      		ldd r25,Z+3
 3402 166a 20E0      		ldi r18,lo8(0x457a0000)
 3403 166c 30E0      		ldi r19,hi8(0x457a0000)
 3404 166e 4AE7      		ldi r20,hlo8(0x457a0000)
 3405 1670 55E4      		ldi r21,hhi8(0x457a0000)
 3406 1672 0E94 0000 		call __mulsf3
 3407 1676 DC01      		movw r26,r24
 3408 1678 CB01      		movw r24,r22
 3409 167a F801      		movw r30,r16
 3410 167c 8083      		st Z,r24
 3411 167e 9183      		std Z+1,r25
 3412 1680 A283      		std Z+2,r26
 3413 1682 B383      		std Z+3,r27
 3414               	.LM212:
 3415 1684 FE01      		movw r30,r28
 3416 1686 E850      		subi r30,lo8(-(248))
 3417 1688 FF4F      		sbci r31,hi8(-(248))
 3418 168a 6081      		ld r22,Z
 3419 168c 7181      		ldd r23,Z+1
 3420 168e 8281      		ldd r24,Z+2
 3421 1690 9381      		ldd r25,Z+3
 3422 1692 20E0      		ldi r18,lo8(0x3f800000)
 3423 1694 30E0      		ldi r19,hi8(0x3f800000)
 3424 1696 40E8      		ldi r20,hlo8(0x3f800000)
 3425 1698 5FE3      		ldi r21,hhi8(0x3f800000)
 3426 169a 0E94 0000 		call __ltsf2
 3427 169e 8823      		tst r24
 3428 16a0 04F4      		brge .L436
 3429               	.L372:
 3430               	.LM213:
 3431 16a2 FE01      		movw r30,r28
 3432 16a4 EA50      		subi r30,lo8(-(246))
 3433 16a6 FF4F      		sbci r31,hi8(-(246))
 3434 16a8 81E0      		ldi r24,lo8(1)
 3435 16aa 90E0      		ldi r25,hi8(1)
 3436 16ac 9183      		std Z+1,r25
 3437 16ae 8083      		st Z,r24
 3438 16b0 00C0      		rjmp .L187
 3439               	.L436:
 3440               	.LM214:
 3441 16b2 FE01      		movw r30,r28
 3442 16b4 E850      		subi r30,lo8(-(248))
 3443 16b6 FF4F      		sbci r31,hi8(-(248))
 3444 16b8 6081      		ld r22,Z
 3445 16ba 7181      		ldd r23,Z+1
 3446 16bc 8281      		ldd r24,Z+2
 3447 16be 9381      		ldd r25,Z+3
 3448 16c0 20E0      		ldi r18,lo8(0x477fff00)
 3449 16c2 3FEF      		ldi r19,hi8(0x477fff00)
 3450 16c4 4FE7      		ldi r20,hlo8(0x477fff00)
 3451 16c6 57E4      		ldi r21,hhi8(0x477fff00)
 3452 16c8 0E94 0000 		call __gtsf2
 3453 16cc 1816      		cp __zero_reg__,r24
 3454 16ce 04F0      		brlt .+2
 3455 16d0 00C0      		rjmp .L437
 3456               	.L373:
 3457               	.LM215:
 3458 16d2 FE01      		movw r30,r28
 3459 16d4 E450      		subi r30,lo8(-(252))
 3460 16d6 FF4F      		sbci r31,hi8(-(252))
 3461 16d8 6081      		ld r22,Z
 3462 16da 7181      		ldd r23,Z+1
 3463 16dc 8281      		ldd r24,Z+2
 3464 16de 9381      		ldd r25,Z+3
 3465 16e0 20E0      		ldi r18,lo8(0x41200000)
 3466 16e2 30E0      		ldi r19,hi8(0x41200000)
 3467 16e4 40E2      		ldi r20,hlo8(0x41200000)
 3468 16e6 51E4      		ldi r21,hhi8(0x41200000)
 3469 16e8 0E94 0000 		call __mulsf3
 3470 16ec DC01      		movw r26,r24
 3471 16ee CB01      		movw r24,r22
 3472 16f0 8E01      		movw r16,r28
 3473 16f2 0A50      		subi r16,lo8(-(246))
 3474 16f4 1F4F      		sbci r17,hi8(-(246))
 3475 16f6 BC01      		movw r22,r24
 3476 16f8 CD01      		movw r24,r26
 3477 16fa 0E94 0000 		call __fixunssfsi
 3478 16fe DC01      		movw r26,r24
 3479 1700 CB01      		movw r24,r22
 3480 1702 F801      		movw r30,r16
 3481 1704 9183      		std Z+1,r25
 3482 1706 8083      		st Z,r24
 3483 1708 00C0      		rjmp .L190
 3484               	.L191:
 3485 170a FE01      		movw r30,r28
 3486 170c EC50      		subi r30,lo8(-(244))
 3487 170e FF4F      		sbci r31,hi8(-(244))
 3488 1710 80E9      		ldi r24,lo8(400)
 3489 1712 91E0      		ldi r25,hi8(400)
 3490 1714 9183      		std Z+1,r25
 3491 1716 8083      		st Z,r24
 3492               	.LBB296:
 3493               	.LBB297:
 3494               	.LM216:
 3495 1718 FE01      		movw r30,r28
 3496 171a EC50      		subi r30,lo8(-(244))
 3497 171c FF4F      		sbci r31,hi8(-(244))
 3498 171e 8081      		ld r24,Z
 3499 1720 9181      		ldd r25,Z+1
 3500               	/* #APP */
 3501               	 ;  105 "d:/winavr-20100110/lib/gcc/../../avr/include/util/delay_basic.h" 1
 3502 1722 0197      		1: sbiw r24,1
 3503 1724 01F4      		brne 1b
 3504               	 ;  0 "" 2
 3505               	/* #NOAPP */
 3506 1726 FE01      		movw r30,r28
 3507 1728 EC50      		subi r30,lo8(-(244))
 3508 172a FF4F      		sbci r31,hi8(-(244))
 3509 172c 9183      		std Z+1,r25
 3510 172e 8083      		st Z,r24
 3511               	.LBE297:
 3512               	.LBE296:
 3513               	.LM217:
 3514 1730 DE01      		movw r26,r28
 3515 1732 AA50      		subi r26,lo8(-(246))
 3516 1734 BF4F      		sbci r27,hi8(-(246))
 3517 1736 FE01      		movw r30,r28
 3518 1738 EA50      		subi r30,lo8(-(246))
 3519 173a FF4F      		sbci r31,hi8(-(246))
 3520 173c 8081      		ld r24,Z
 3521 173e 9181      		ldd r25,Z+1
 3522 1740 0197      		sbiw r24,1
 3523 1742 1196      		adiw r26,1
 3524 1744 9C93      		st X,r25
 3525 1746 8E93      		st -X,r24
 3526               	.L190:
 3527               	.LM218:
 3528 1748 FE01      		movw r30,r28
 3529 174a EA50      		subi r30,lo8(-(246))
 3530 174c FF4F      		sbci r31,hi8(-(246))
 3531 174e 8081      		ld r24,Z
 3532 1750 9181      		ldd r25,Z+1
 3533 1752 0097      		sbiw r24,0
 3534 1754 01F4      		brne .L191
 3535 1756 00C0      		rjmp .L193
 3536               	.L437:
 3537               	.LM219:
 3538 1758 8E01      		movw r16,r28
 3539 175a 0A50      		subi r16,lo8(-(246))
 3540 175c 1F4F      		sbci r17,hi8(-(246))
 3541 175e FE01      		movw r30,r28
 3542 1760 E850      		subi r30,lo8(-(248))
 3543 1762 FF4F      		sbci r31,hi8(-(248))
 3544 1764 6081      		ld r22,Z
 3545 1766 7181      		ldd r23,Z+1
 3546 1768 8281      		ldd r24,Z+2
 3547 176a 9381      		ldd r25,Z+3
 3548 176c 0E94 0000 		call __fixunssfsi
 3549 1770 DC01      		movw r26,r24
 3550 1772 CB01      		movw r24,r22
 3551 1774 F801      		movw r30,r16
 3552 1776 9183      		std Z+1,r25
 3553 1778 8083      		st Z,r24
 3554               	.L187:
 3555 177a DE01      		movw r26,r28
 3556 177c AE50      		subi r26,lo8(-(242))
 3557 177e BF4F      		sbci r27,hi8(-(242))
 3558 1780 FE01      		movw r30,r28
 3559 1782 EA50      		subi r30,lo8(-(246))
 3560 1784 FF4F      		sbci r31,hi8(-(246))
 3561 1786 8081      		ld r24,Z
 3562 1788 9181      		ldd r25,Z+1
 3563 178a 1196      		adiw r26,1
 3564 178c 9C93      		st X,r25
 3565 178e 8E93      		st -X,r24
 3566               	.LBB298:
 3567               	.LBB299:
 3568               	.LM220:
 3569 1790 FE01      		movw r30,r28
 3570 1792 EE50      		subi r30,lo8(-(242))
 3571 1794 FF4F      		sbci r31,hi8(-(242))
 3572 1796 8081      		ld r24,Z
 3573 1798 9181      		ldd r25,Z+1
 3574               	/* #APP */
 3575               	 ;  105 "d:/winavr-20100110/lib/gcc/../../avr/include/util/delay_basic.h" 1
 3576 179a 0197      		1: sbiw r24,1
 3577 179c 01F4      		brne 1b
 3578               	 ;  0 "" 2
 3579               	/* #NOAPP */
 3580 179e FE01      		movw r30,r28
 3581 17a0 EE50      		subi r30,lo8(-(242))
 3582 17a2 FF4F      		sbci r31,hi8(-(242))
 3583 17a4 9183      		std Z+1,r25
 3584 17a6 8083      		st Z,r24
 3585 17a8 00C0      		rjmp .L193
 3586               	.L435:
 3587               	.LBE299:
 3588               	.LBE298:
 3589               	.LBE295:
 3590               	.LBE294:
 3591               	.LM221:
 3592 17aa 8E01      		movw r16,r28
 3593 17ac 0050      		subi r16,lo8(-(256))
 3594 17ae 1F4F      		sbci r17,hi8(-(256))
 3595 17b0 FE01      		movw r30,r28
 3596 17b2 EF5F      		subi r30,lo8(-(257))
 3597 17b4 FE4F      		sbci r31,hi8(-(257))
 3598 17b6 6081      		ld r22,Z
 3599 17b8 7181      		ldd r23,Z+1
 3600 17ba 8281      		ldd r24,Z+2
 3601 17bc 9381      		ldd r25,Z+3
 3602 17be 0E94 0000 		call __fixunssfsi
 3603 17c2 DC01      		movw r26,r24
 3604 17c4 CB01      		movw r24,r22
 3605 17c6 F801      		movw r30,r16
 3606 17c8 8083      		st Z,r24
 3607               	.L182:
 3608 17ca DE01      		movw r26,r28
 3609 17cc AF50      		subi r26,lo8(-(241))
 3610 17ce BF4F      		sbci r27,hi8(-(241))
 3611 17d0 FE01      		movw r30,r28
 3612 17d2 E050      		subi r30,lo8(-(256))
 3613 17d4 FF4F      		sbci r31,hi8(-(256))
 3614 17d6 8081      		ld r24,Z
 3615 17d8 8C93      		st X,r24
 3616               	.LBB300:
 3617               	.LBB301:
 3618               	.LM222:
 3619 17da FE01      		movw r30,r28
 3620 17dc EF50      		subi r30,lo8(-(241))
 3621 17de FF4F      		sbci r31,hi8(-(241))
 3622 17e0 8081      		ld r24,Z
 3623               	/* #APP */
 3624               	 ;  83 "d:/winavr-20100110/lib/gcc/../../avr/include/util/delay_basic.h" 1
 3625 17e2 8A95      		1: dec r24
 3626 17e4 01F4      		brne 1b
 3627               	 ;  0 "" 2
 3628               	/* #NOAPP */
 3629 17e6 FE01      		movw r30,r28
 3630 17e8 EF50      		subi r30,lo8(-(241))
 3631 17ea FF4F      		sbci r31,hi8(-(241))
 3632 17ec 8083      		st Z,r24
 3633               	.L193:
 3634               	.LBE301:
 3635               	.LBE300:
 3636               	.LBE293:
 3637               	.LBE292:
 3638               	.LM223:
 3639 17ee 1092 0000 		sts PS2data5,__zero_reg__
 3640               	.LM224:
 3641 17f2 1092 0000 		sts i,__zero_reg__
 3642 17f6 00C0      		rjmp .L194
 3643               	.L210:
 3644               	.LM225:
 3645 17f8 A5E3      		ldi r26,lo8(53)
 3646 17fa B0E0      		ldi r27,hi8(53)
 3647 17fc E5E3      		ldi r30,lo8(53)
 3648 17fe F0E0      		ldi r31,hi8(53)
 3649 1800 8081      		ld r24,Z
 3650 1802 8B7F      		andi r24,lo8(-5)
 3651 1804 8C93      		st X,r24
 3652               	.LM226:
 3653 1806 A5E3      		ldi r26,lo8(53)
 3654 1808 B0E0      		ldi r27,hi8(53)
 3655 180a E5E3      		ldi r30,lo8(53)
 3656 180c F0E0      		ldi r31,hi8(53)
 3657 180e 8081      		ld r24,Z
 3658 1810 8E7F      		andi r24,lo8(-2)
 3659 1812 8C93      		st X,r24
 3660 1814 FE01      		movw r30,r28
 3661 1816 E351      		subi r30,lo8(-(237))
 3662 1818 FF4F      		sbci r31,hi8(-(237))
 3663 181a 80E0      		ldi r24,lo8(0x3f800000)
 3664 181c 90E0      		ldi r25,hi8(0x3f800000)
 3665 181e A0E8      		ldi r26,hlo8(0x3f800000)
 3666 1820 BFE3      		ldi r27,hhi8(0x3f800000)
 3667 1822 8083      		st Z,r24
 3668 1824 9183      		std Z+1,r25
 3669 1826 A283      		std Z+2,r26
 3670 1828 B383      		std Z+3,r27
 3671               	.LBB302:
 3672               	.LBB303:
 3673               	.LM227:
 3674 182a 8E01      		movw r16,r28
 3675 182c 0751      		subi r16,lo8(-(233))
 3676 182e 1F4F      		sbci r17,hi8(-(233))
 3677 1830 FE01      		movw r30,r28
 3678 1832 E351      		subi r30,lo8(-(237))
 3679 1834 FF4F      		sbci r31,hi8(-(237))
 3680 1836 6081      		ld r22,Z
 3681 1838 7181      		ldd r23,Z+1
 3682 183a 8281      		ldd r24,Z+2
 3683 183c 9381      		ldd r25,Z+3
 3684 183e 2BEA      		ldi r18,lo8(0x40aaaaab)
 3685 1840 3AEA      		ldi r19,hi8(0x40aaaaab)
 3686 1842 4AEA      		ldi r20,hlo8(0x40aaaaab)
 3687 1844 50E4      		ldi r21,hhi8(0x40aaaaab)
 3688 1846 0E94 0000 		call __mulsf3
 3689 184a DC01      		movw r26,r24
 3690 184c CB01      		movw r24,r22
 3691 184e F801      		movw r30,r16
 3692 1850 8083      		st Z,r24
 3693 1852 9183      		std Z+1,r25
 3694 1854 A283      		std Z+2,r26
 3695 1856 B383      		std Z+3,r27
 3696               	.LM228:
 3697 1858 FE01      		movw r30,r28
 3698 185a E751      		subi r30,lo8(-(233))
 3699 185c FF4F      		sbci r31,hi8(-(233))
 3700 185e 6081      		ld r22,Z
 3701 1860 7181      		ldd r23,Z+1
 3702 1862 8281      		ldd r24,Z+2
 3703 1864 9381      		ldd r25,Z+3
 3704 1866 20E0      		ldi r18,lo8(0x3f800000)
 3705 1868 30E0      		ldi r19,hi8(0x3f800000)
 3706 186a 40E8      		ldi r20,hlo8(0x3f800000)
 3707 186c 5FE3      		ldi r21,hhi8(0x3f800000)
 3708 186e 0E94 0000 		call __ltsf2
 3709 1872 8823      		tst r24
 3710 1874 04F4      		brge .L438
 3711               	.L374:
 3712               	.LM229:
 3713 1876 FE01      		movw r30,r28
 3714 1878 E851      		subi r30,lo8(-(232))
 3715 187a FF4F      		sbci r31,hi8(-(232))
 3716 187c 81E0      		ldi r24,lo8(1)
 3717 187e 8083      		st Z,r24
 3718 1880 00C0      		rjmp .L197
 3719               	.L438:
 3720               	.LM230:
 3721 1882 FE01      		movw r30,r28
 3722 1884 E751      		subi r30,lo8(-(233))
 3723 1886 FF4F      		sbci r31,hi8(-(233))
 3724 1888 6081      		ld r22,Z
 3725 188a 7181      		ldd r23,Z+1
 3726 188c 8281      		ldd r24,Z+2
 3727 188e 9381      		ldd r25,Z+3
 3728 1890 20E0      		ldi r18,lo8(0x437f0000)
 3729 1892 30E0      		ldi r19,hi8(0x437f0000)
 3730 1894 4FE7      		ldi r20,hlo8(0x437f0000)
 3731 1896 53E4      		ldi r21,hhi8(0x437f0000)
 3732 1898 0E94 0000 		call __gtsf2
 3733 189c 1816      		cp __zero_reg__,r24
 3734 189e 04F0      		brlt .+2
 3735 18a0 00C0      		rjmp .L439
 3736               	.L375:
 3737               	.LM231:
 3738 18a2 FE01      		movw r30,r28
 3739 18a4 E351      		subi r30,lo8(-(237))
 3740 18a6 FF4F      		sbci r31,hi8(-(237))
 3741 18a8 6081      		ld r22,Z
 3742 18aa 7181      		ldd r23,Z+1
 3743 18ac 8281      		ldd r24,Z+2
 3744 18ae 9381      		ldd r25,Z+3
 3745 18b0 20E0      		ldi r18,lo8(0x447a0000)
 3746 18b2 30E0      		ldi r19,hi8(0x447a0000)
 3747 18b4 4AE7      		ldi r20,hlo8(0x447a0000)
 3748 18b6 54E4      		ldi r21,hhi8(0x447a0000)
 3749 18b8 0E94 0000 		call __divsf3
 3750 18bc DC01      		movw r26,r24
 3751 18be CB01      		movw r24,r22
 3752 18c0 FE01      		movw r30,r28
 3753 18c2 EC51      		subi r30,lo8(-(228))
 3754 18c4 FF4F      		sbci r31,hi8(-(228))
 3755 18c6 8083      		st Z,r24
 3756 18c8 9183      		std Z+1,r25
 3757 18ca A283      		std Z+2,r26
 3758 18cc B383      		std Z+3,r27
 3759               	.LBB304:
 3760               	.LBB305:
 3761               	.LM232:
 3762 18ce 8E01      		movw r16,r28
 3763 18d0 0052      		subi r16,lo8(-(224))
 3764 18d2 1F4F      		sbci r17,hi8(-(224))
 3765 18d4 FE01      		movw r30,r28
 3766 18d6 EC51      		subi r30,lo8(-(228))
 3767 18d8 FF4F      		sbci r31,hi8(-(228))
 3768 18da 6081      		ld r22,Z
 3769 18dc 7181      		ldd r23,Z+1
 3770 18de 8281      		ldd r24,Z+2
 3771 18e0 9381      		ldd r25,Z+3
 3772 18e2 20E0      		ldi r18,lo8(0x457a0000)
 3773 18e4 30E0      		ldi r19,hi8(0x457a0000)
 3774 18e6 4AE7      		ldi r20,hlo8(0x457a0000)
 3775 18e8 55E4      		ldi r21,hhi8(0x457a0000)
 3776 18ea 0E94 0000 		call __mulsf3
 3777 18ee DC01      		movw r26,r24
 3778 18f0 CB01      		movw r24,r22
 3779 18f2 F801      		movw r30,r16
 3780 18f4 8083      		st Z,r24
 3781 18f6 9183      		std Z+1,r25
 3782 18f8 A283      		std Z+2,r26
 3783 18fa B383      		std Z+3,r27
 3784               	.LM233:
 3785 18fc FE01      		movw r30,r28
 3786 18fe E052      		subi r30,lo8(-(224))
 3787 1900 FF4F      		sbci r31,hi8(-(224))
 3788 1902 6081      		ld r22,Z
 3789 1904 7181      		ldd r23,Z+1
 3790 1906 8281      		ldd r24,Z+2
 3791 1908 9381      		ldd r25,Z+3
 3792 190a 20E0      		ldi r18,lo8(0x3f800000)
 3793 190c 30E0      		ldi r19,hi8(0x3f800000)
 3794 190e 40E8      		ldi r20,hlo8(0x3f800000)
 3795 1910 5FE3      		ldi r21,hhi8(0x3f800000)
 3796 1912 0E94 0000 		call __ltsf2
 3797 1916 8823      		tst r24
 3798 1918 04F4      		brge .L440
 3799               	.L376:
 3800               	.LM234:
 3801 191a FE01      		movw r30,r28
 3802 191c E252      		subi r30,lo8(-(222))
 3803 191e FF4F      		sbci r31,hi8(-(222))
 3804 1920 81E0      		ldi r24,lo8(1)
 3805 1922 90E0      		ldi r25,hi8(1)
 3806 1924 9183      		std Z+1,r25
 3807 1926 8083      		st Z,r24
 3808 1928 00C0      		rjmp .L202
 3809               	.L440:
 3810               	.LM235:
 3811 192a FE01      		movw r30,r28
 3812 192c E052      		subi r30,lo8(-(224))
 3813 192e FF4F      		sbci r31,hi8(-(224))
 3814 1930 6081      		ld r22,Z
 3815 1932 7181      		ldd r23,Z+1
 3816 1934 8281      		ldd r24,Z+2
 3817 1936 9381      		ldd r25,Z+3
 3818 1938 20E0      		ldi r18,lo8(0x477fff00)
 3819 193a 3FEF      		ldi r19,hi8(0x477fff00)
 3820 193c 4FE7      		ldi r20,hlo8(0x477fff00)
 3821 193e 57E4      		ldi r21,hhi8(0x477fff00)
 3822 1940 0E94 0000 		call __gtsf2
 3823 1944 1816      		cp __zero_reg__,r24
 3824 1946 04F0      		brlt .+2
 3825 1948 00C0      		rjmp .L441
 3826               	.L377:
 3827               	.LM236:
 3828 194a FE01      		movw r30,r28
 3829 194c EC51      		subi r30,lo8(-(228))
 3830 194e FF4F      		sbci r31,hi8(-(228))
 3831 1950 6081      		ld r22,Z
 3832 1952 7181      		ldd r23,Z+1
 3833 1954 8281      		ldd r24,Z+2
 3834 1956 9381      		ldd r25,Z+3
 3835 1958 20E0      		ldi r18,lo8(0x41200000)
 3836 195a 30E0      		ldi r19,hi8(0x41200000)
 3837 195c 40E2      		ldi r20,hlo8(0x41200000)
 3838 195e 51E4      		ldi r21,hhi8(0x41200000)
 3839 1960 0E94 0000 		call __mulsf3
 3840 1964 DC01      		movw r26,r24
 3841 1966 CB01      		movw r24,r22
 3842 1968 8E01      		movw r16,r28
 3843 196a 0252      		subi r16,lo8(-(222))
 3844 196c 1F4F      		sbci r17,hi8(-(222))
 3845 196e BC01      		movw r22,r24
 3846 1970 CD01      		movw r24,r26
 3847 1972 0E94 0000 		call __fixunssfsi
 3848 1976 DC01      		movw r26,r24
 3849 1978 CB01      		movw r24,r22
 3850 197a F801      		movw r30,r16
 3851 197c 9183      		std Z+1,r25
 3852 197e 8083      		st Z,r24
 3853 1980 00C0      		rjmp .L205
 3854               	.L206:
 3855 1982 FE01      		movw r30,r28
 3856 1984 E452      		subi r30,lo8(-(220))
 3857 1986 FF4F      		sbci r31,hi8(-(220))
 3858 1988 80E9      		ldi r24,lo8(400)
 3859 198a 91E0      		ldi r25,hi8(400)
 3860 198c 9183      		std Z+1,r25
 3861 198e 8083      		st Z,r24
 3862               	.LBB306:
 3863               	.LBB307:
 3864               	.LM237:
 3865 1990 FE01      		movw r30,r28
 3866 1992 E452      		subi r30,lo8(-(220))
 3867 1994 FF4F      		sbci r31,hi8(-(220))
 3868 1996 8081      		ld r24,Z
 3869 1998 9181      		ldd r25,Z+1
 3870               	/* #APP */
 3871               	 ;  105 "d:/winavr-20100110/lib/gcc/../../avr/include/util/delay_basic.h" 1
 3872 199a 0197      		1: sbiw r24,1
 3873 199c 01F4      		brne 1b
 3874               	 ;  0 "" 2
 3875               	/* #NOAPP */
 3876 199e FE01      		movw r30,r28
 3877 19a0 E452      		subi r30,lo8(-(220))
 3878 19a2 FF4F      		sbci r31,hi8(-(220))
 3879 19a4 9183      		std Z+1,r25
 3880 19a6 8083      		st Z,r24
 3881               	.LBE307:
 3882               	.LBE306:
 3883               	.LM238:
 3884 19a8 DE01      		movw r26,r28
 3885 19aa A252      		subi r26,lo8(-(222))
 3886 19ac BF4F      		sbci r27,hi8(-(222))
 3887 19ae FE01      		movw r30,r28
 3888 19b0 E252      		subi r30,lo8(-(222))
 3889 19b2 FF4F      		sbci r31,hi8(-(222))
 3890 19b4 8081      		ld r24,Z
 3891 19b6 9181      		ldd r25,Z+1
 3892 19b8 0197      		sbiw r24,1
 3893 19ba 1196      		adiw r26,1
 3894 19bc 9C93      		st X,r25
 3895 19be 8E93      		st -X,r24
 3896               	.L205:
 3897               	.LM239:
 3898 19c0 FE01      		movw r30,r28
 3899 19c2 E252      		subi r30,lo8(-(222))
 3900 19c4 FF4F      		sbci r31,hi8(-(222))
 3901 19c6 8081      		ld r24,Z
 3902 19c8 9181      		ldd r25,Z+1
 3903 19ca 0097      		sbiw r24,0
 3904 19cc 01F4      		brne .L206
 3905 19ce 00C0      		rjmp .L208
 3906               	.L441:
 3907               	.LM240:
 3908 19d0 8E01      		movw r16,r28
 3909 19d2 0252      		subi r16,lo8(-(222))
 3910 19d4 1F4F      		sbci r17,hi8(-(222))
 3911 19d6 FE01      		movw r30,r28
 3912 19d8 E052      		subi r30,lo8(-(224))
 3913 19da FF4F      		sbci r31,hi8(-(224))
 3914 19dc 6081      		ld r22,Z
 3915 19de 7181      		ldd r23,Z+1
 3916 19e0 8281      		ldd r24,Z+2
 3917 19e2 9381      		ldd r25,Z+3
 3918 19e4 0E94 0000 		call __fixunssfsi
 3919 19e8 DC01      		movw r26,r24
 3920 19ea CB01      		movw r24,r22
 3921 19ec F801      		movw r30,r16
 3922 19ee 9183      		std Z+1,r25
 3923 19f0 8083      		st Z,r24
 3924               	.L202:
 3925 19f2 DE01      		movw r26,r28
 3926 19f4 A652      		subi r26,lo8(-(218))
 3927 19f6 BF4F      		sbci r27,hi8(-(218))
 3928 19f8 FE01      		movw r30,r28
 3929 19fa E252      		subi r30,lo8(-(222))
 3930 19fc FF4F      		sbci r31,hi8(-(222))
 3931 19fe 8081      		ld r24,Z
 3932 1a00 9181      		ldd r25,Z+1
 3933 1a02 1196      		adiw r26,1
 3934 1a04 9C93      		st X,r25
 3935 1a06 8E93      		st -X,r24
 3936               	.LBB308:
 3937               	.LBB309:
 3938               	.LM241:
 3939 1a08 FE01      		movw r30,r28
 3940 1a0a E652      		subi r30,lo8(-(218))
 3941 1a0c FF4F      		sbci r31,hi8(-(218))
 3942 1a0e 8081      		ld r24,Z
 3943 1a10 9181      		ldd r25,Z+1
 3944               	/* #APP */
 3945               	 ;  105 "d:/winavr-20100110/lib/gcc/../../avr/include/util/delay_basic.h" 1
 3946 1a12 0197      		1: sbiw r24,1
 3947 1a14 01F4      		brne 1b
 3948               	 ;  0 "" 2
 3949               	/* #NOAPP */
 3950 1a16 FE01      		movw r30,r28
 3951 1a18 E652      		subi r30,lo8(-(218))
 3952 1a1a FF4F      		sbci r31,hi8(-(218))
 3953 1a1c 9183      		std Z+1,r25
 3954 1a1e 8083      		st Z,r24
 3955 1a20 00C0      		rjmp .L208
 3956               	.L439:
 3957               	.LBE309:
 3958               	.LBE308:
 3959               	.LBE305:
 3960               	.LBE304:
 3961               	.LM242:
 3962 1a22 8E01      		movw r16,r28
 3963 1a24 0851      		subi r16,lo8(-(232))
 3964 1a26 1F4F      		sbci r17,hi8(-(232))
 3965 1a28 FE01      		movw r30,r28
 3966 1a2a E751      		subi r30,lo8(-(233))
 3967 1a2c FF4F      		sbci r31,hi8(-(233))
 3968 1a2e 6081      		ld r22,Z
 3969 1a30 7181      		ldd r23,Z+1
 3970 1a32 8281      		ldd r24,Z+2
 3971 1a34 9381      		ldd r25,Z+3
 3972 1a36 0E94 0000 		call __fixunssfsi
 3973 1a3a DC01      		movw r26,r24
 3974 1a3c CB01      		movw r24,r22
 3975 1a3e F801      		movw r30,r16
 3976 1a40 8083      		st Z,r24
 3977               	.L197:
 3978 1a42 DE01      		movw r26,r28
 3979 1a44 A752      		subi r26,lo8(-(217))
 3980 1a46 BF4F      		sbci r27,hi8(-(217))
 3981 1a48 FE01      		movw r30,r28
 3982 1a4a E851      		subi r30,lo8(-(232))
 3983 1a4c FF4F      		sbci r31,hi8(-(232))
 3984 1a4e 8081      		ld r24,Z
 3985 1a50 8C93      		st X,r24
 3986               	.LBB310:
 3987               	.LBB311:
 3988               	.LM243:
 3989 1a52 FE01      		movw r30,r28
 3990 1a54 E752      		subi r30,lo8(-(217))
 3991 1a56 FF4F      		sbci r31,hi8(-(217))
 3992 1a58 8081      		ld r24,Z
 3993               	/* #APP */
 3994               	 ;  83 "d:/winavr-20100110/lib/gcc/../../avr/include/util/delay_basic.h" 1
 3995 1a5a 8A95      		1: dec r24
 3996 1a5c 01F4      		brne 1b
 3997               	 ;  0 "" 2
 3998               	/* #NOAPP */
 3999 1a5e FE01      		movw r30,r28
 4000 1a60 E752      		subi r30,lo8(-(217))
 4001 1a62 FF4F      		sbci r31,hi8(-(217))
 4002 1a64 8083      		st Z,r24
 4003               	.L208:
 4004               	.LBE311:
 4005               	.LBE310:
 4006               	.LBE303:
 4007               	.LBE302:
 4008               	.LM244:
 4009 1a66 E3E3      		ldi r30,lo8(51)
 4010 1a68 F0E0      		ldi r31,hi8(51)
 4011 1a6a 8081      		ld r24,Z
 4012 1a6c 882F      		mov r24,r24
 4013 1a6e 90E0      		ldi r25,lo8(0)
 4014 1a70 8270      		andi r24,lo8(2)
 4015 1a72 9070      		andi r25,hi8(2)
 4016 1a74 0097      		sbiw r24,0
 4017 1a76 01F0      		breq .L209
 4018 1a78 8091 0000 		lds r24,i
 4019 1a7c 282F      		mov r18,r24
 4020 1a7e 30E0      		ldi r19,lo8(0)
 4021 1a80 81E0      		ldi r24,lo8(1)
 4022 1a82 90E0      		ldi r25,hi8(1)
 4023 1a84 022E      		mov r0,r18
 4024 1a86 00C0      		rjmp 2f
 4025 1a88 880F      	1:	lsl r24
 4026 1a8a 991F      		rol r25
 4027 1a8c 0A94      	2:	dec r0
 4028 1a8e 02F4      		brpl 1b
 4029 1a90 982F      		mov r25,r24
 4030 1a92 8091 0000 		lds r24,PS2data5
 4031 1a96 892B      		or r24,r25
 4032 1a98 8093 0000 		sts PS2data5,r24
 4033               	.L209:
 4034               	.LM245:
 4035 1a9c A5E3      		ldi r26,lo8(53)
 4036 1a9e B0E0      		ldi r27,hi8(53)
 4037 1aa0 E5E3      		ldi r30,lo8(53)
 4038 1aa2 F0E0      		ldi r31,hi8(53)
 4039 1aa4 8081      		ld r24,Z
 4040 1aa6 8160      		ori r24,lo8(1)
 4041 1aa8 8C93      		st X,r24
 4042               	.LM246:
 4043 1aaa 8091 0000 		lds r24,i
 4044 1aae 8F5F      		subi r24,lo8(-(1))
 4045 1ab0 8093 0000 		sts i,r24
 4046               	.L194:
 4047 1ab4 8091 0000 		lds r24,i
 4048 1ab8 8830      		cpi r24,lo8(8)
 4049 1aba 00F4      		brsh .+2
 4050 1abc 00C0      		rjmp .L210
 4051               	.LM247:
 4052 1abe A5E3      		ldi r26,lo8(53)
 4053 1ac0 B0E0      		ldi r27,hi8(53)
 4054 1ac2 E5E3      		ldi r30,lo8(53)
 4055 1ac4 F0E0      		ldi r31,hi8(53)
 4056 1ac6 8081      		ld r24,Z
 4057 1ac8 8460      		ori r24,lo8(4)
 4058 1aca 8C93      		st X,r24
 4059 1acc FE01      		movw r30,r28
 4060 1ace EB52      		subi r30,lo8(-(213))
 4061 1ad0 FF4F      		sbci r31,hi8(-(213))
 4062 1ad2 80E0      		ldi r24,lo8(0x3f800000)
 4063 1ad4 90E0      		ldi r25,hi8(0x3f800000)
 4064 1ad6 A0E8      		ldi r26,hlo8(0x3f800000)
 4065 1ad8 BFE3      		ldi r27,hhi8(0x3f800000)
 4066 1ada 8083      		st Z,r24
 4067 1adc 9183      		std Z+1,r25
 4068 1ade A283      		std Z+2,r26
 4069 1ae0 B383      		std Z+3,r27
 4070               	.LBB312:
 4071               	.LBB313:
 4072               	.LM248:
 4073 1ae2 8E01      		movw r16,r28
 4074 1ae4 0F52      		subi r16,lo8(-(209))
 4075 1ae6 1F4F      		sbci r17,hi8(-(209))
 4076 1ae8 FE01      		movw r30,r28
 4077 1aea EB52      		subi r30,lo8(-(213))
 4078 1aec FF4F      		sbci r31,hi8(-(213))
 4079 1aee 6081      		ld r22,Z
 4080 1af0 7181      		ldd r23,Z+1
 4081 1af2 8281      		ldd r24,Z+2
 4082 1af4 9381      		ldd r25,Z+3
 4083 1af6 2BEA      		ldi r18,lo8(0x40aaaaab)
 4084 1af8 3AEA      		ldi r19,hi8(0x40aaaaab)
 4085 1afa 4AEA      		ldi r20,hlo8(0x40aaaaab)
 4086 1afc 50E4      		ldi r21,hhi8(0x40aaaaab)
 4087 1afe 0E94 0000 		call __mulsf3
 4088 1b02 DC01      		movw r26,r24
 4089 1b04 CB01      		movw r24,r22
 4090 1b06 F801      		movw r30,r16
 4091 1b08 8083      		st Z,r24
 4092 1b0a 9183      		std Z+1,r25
 4093 1b0c A283      		std Z+2,r26
 4094 1b0e B383      		std Z+3,r27
 4095               	.LM249:
 4096 1b10 FE01      		movw r30,r28
 4097 1b12 EF52      		subi r30,lo8(-(209))
 4098 1b14 FF4F      		sbci r31,hi8(-(209))
 4099 1b16 6081      		ld r22,Z
 4100 1b18 7181      		ldd r23,Z+1
 4101 1b1a 8281      		ldd r24,Z+2
 4102 1b1c 9381      		ldd r25,Z+3
 4103 1b1e 20E0      		ldi r18,lo8(0x3f800000)
 4104 1b20 30E0      		ldi r19,hi8(0x3f800000)
 4105 1b22 40E8      		ldi r20,hlo8(0x3f800000)
 4106 1b24 5FE3      		ldi r21,hhi8(0x3f800000)
 4107 1b26 0E94 0000 		call __ltsf2
 4108 1b2a 8823      		tst r24
 4109 1b2c 04F4      		brge .L442
 4110               	.L378:
 4111               	.LM250:
 4112 1b2e FE01      		movw r30,r28
 4113 1b30 E053      		subi r30,lo8(-(208))
 4114 1b32 FF4F      		sbci r31,hi8(-(208))
 4115 1b34 81E0      		ldi r24,lo8(1)
 4116 1b36 8083      		st Z,r24
 4117 1b38 00C0      		rjmp .L213
 4118               	.L442:
 4119               	.LM251:
 4120 1b3a FE01      		movw r30,r28
 4121 1b3c EF52      		subi r30,lo8(-(209))
 4122 1b3e FF4F      		sbci r31,hi8(-(209))
 4123 1b40 6081      		ld r22,Z
 4124 1b42 7181      		ldd r23,Z+1
 4125 1b44 8281      		ldd r24,Z+2
 4126 1b46 9381      		ldd r25,Z+3
 4127 1b48 20E0      		ldi r18,lo8(0x437f0000)
 4128 1b4a 30E0      		ldi r19,hi8(0x437f0000)
 4129 1b4c 4FE7      		ldi r20,hlo8(0x437f0000)
 4130 1b4e 53E4      		ldi r21,hhi8(0x437f0000)
 4131 1b50 0E94 0000 		call __gtsf2
 4132 1b54 1816      		cp __zero_reg__,r24
 4133 1b56 04F0      		brlt .+2
 4134 1b58 00C0      		rjmp .L443
 4135               	.L379:
 4136               	.LM252:
 4137 1b5a FE01      		movw r30,r28
 4138 1b5c EB52      		subi r30,lo8(-(213))
 4139 1b5e FF4F      		sbci r31,hi8(-(213))
 4140 1b60 6081      		ld r22,Z
 4141 1b62 7181      		ldd r23,Z+1
 4142 1b64 8281      		ldd r24,Z+2
 4143 1b66 9381      		ldd r25,Z+3
 4144 1b68 20E0      		ldi r18,lo8(0x447a0000)
 4145 1b6a 30E0      		ldi r19,hi8(0x447a0000)
 4146 1b6c 4AE7      		ldi r20,hlo8(0x447a0000)
 4147 1b6e 54E4      		ldi r21,hhi8(0x447a0000)
 4148 1b70 0E94 0000 		call __divsf3
 4149 1b74 DC01      		movw r26,r24
 4150 1b76 CB01      		movw r24,r22
 4151 1b78 FE01      		movw r30,r28
 4152 1b7a E453      		subi r30,lo8(-(204))
 4153 1b7c FF4F      		sbci r31,hi8(-(204))
 4154 1b7e 8083      		st Z,r24
 4155 1b80 9183      		std Z+1,r25
 4156 1b82 A283      		std Z+2,r26
 4157 1b84 B383      		std Z+3,r27
 4158               	.LBB314:
 4159               	.LBB315:
 4160               	.LM253:
 4161 1b86 8E01      		movw r16,r28
 4162 1b88 0853      		subi r16,lo8(-(200))
 4163 1b8a 1F4F      		sbci r17,hi8(-(200))
 4164 1b8c FE01      		movw r30,r28
 4165 1b8e E453      		subi r30,lo8(-(204))
 4166 1b90 FF4F      		sbci r31,hi8(-(204))
 4167 1b92 6081      		ld r22,Z
 4168 1b94 7181      		ldd r23,Z+1
 4169 1b96 8281      		ldd r24,Z+2
 4170 1b98 9381      		ldd r25,Z+3
 4171 1b9a 20E0      		ldi r18,lo8(0x457a0000)
 4172 1b9c 30E0      		ldi r19,hi8(0x457a0000)
 4173 1b9e 4AE7      		ldi r20,hlo8(0x457a0000)
 4174 1ba0 55E4      		ldi r21,hhi8(0x457a0000)
 4175 1ba2 0E94 0000 		call __mulsf3
 4176 1ba6 DC01      		movw r26,r24
 4177 1ba8 CB01      		movw r24,r22
 4178 1baa F801      		movw r30,r16
 4179 1bac 8083      		st Z,r24
 4180 1bae 9183      		std Z+1,r25
 4181 1bb0 A283      		std Z+2,r26
 4182 1bb2 B383      		std Z+3,r27
 4183               	.LM254:
 4184 1bb4 FE01      		movw r30,r28
 4185 1bb6 E853      		subi r30,lo8(-(200))
 4186 1bb8 FF4F      		sbci r31,hi8(-(200))
 4187 1bba 6081      		ld r22,Z
 4188 1bbc 7181      		ldd r23,Z+1
 4189 1bbe 8281      		ldd r24,Z+2
 4190 1bc0 9381      		ldd r25,Z+3
 4191 1bc2 20E0      		ldi r18,lo8(0x3f800000)
 4192 1bc4 30E0      		ldi r19,hi8(0x3f800000)
 4193 1bc6 40E8      		ldi r20,hlo8(0x3f800000)
 4194 1bc8 5FE3      		ldi r21,hhi8(0x3f800000)
 4195 1bca 0E94 0000 		call __ltsf2
 4196 1bce 8823      		tst r24
 4197 1bd0 04F4      		brge .L444
 4198               	.L380:
 4199               	.LM255:
 4200 1bd2 FE01      		movw r30,r28
 4201 1bd4 EA53      		subi r30,lo8(-(198))
 4202 1bd6 FF4F      		sbci r31,hi8(-(198))
 4203 1bd8 81E0      		ldi r24,lo8(1)
 4204 1bda 90E0      		ldi r25,hi8(1)
 4205 1bdc 9183      		std Z+1,r25
 4206 1bde 8083      		st Z,r24
 4207 1be0 00C0      		rjmp .L218
 4208               	.L444:
 4209               	.LM256:
 4210 1be2 FE01      		movw r30,r28
 4211 1be4 E853      		subi r30,lo8(-(200))
 4212 1be6 FF4F      		sbci r31,hi8(-(200))
 4213 1be8 6081      		ld r22,Z
 4214 1bea 7181      		ldd r23,Z+1
 4215 1bec 8281      		ldd r24,Z+2
 4216 1bee 9381      		ldd r25,Z+3
 4217 1bf0 20E0      		ldi r18,lo8(0x477fff00)
 4218 1bf2 3FEF      		ldi r19,hi8(0x477fff00)
 4219 1bf4 4FE7      		ldi r20,hlo8(0x477fff00)
 4220 1bf6 57E4      		ldi r21,hhi8(0x477fff00)
 4221 1bf8 0E94 0000 		call __gtsf2
 4222 1bfc 1816      		cp __zero_reg__,r24
 4223 1bfe 04F0      		brlt .+2
 4224 1c00 00C0      		rjmp .L445
 4225               	.L381:
 4226               	.LM257:
 4227 1c02 FE01      		movw r30,r28
 4228 1c04 E453      		subi r30,lo8(-(204))
 4229 1c06 FF4F      		sbci r31,hi8(-(204))
 4230 1c08 6081      		ld r22,Z
 4231 1c0a 7181      		ldd r23,Z+1
 4232 1c0c 8281      		ldd r24,Z+2
 4233 1c0e 9381      		ldd r25,Z+3
 4234 1c10 20E0      		ldi r18,lo8(0x41200000)
 4235 1c12 30E0      		ldi r19,hi8(0x41200000)
 4236 1c14 40E2      		ldi r20,hlo8(0x41200000)
 4237 1c16 51E4      		ldi r21,hhi8(0x41200000)
 4238 1c18 0E94 0000 		call __mulsf3
 4239 1c1c DC01      		movw r26,r24
 4240 1c1e CB01      		movw r24,r22
 4241 1c20 8E01      		movw r16,r28
 4242 1c22 0A53      		subi r16,lo8(-(198))
 4243 1c24 1F4F      		sbci r17,hi8(-(198))
 4244 1c26 BC01      		movw r22,r24
 4245 1c28 CD01      		movw r24,r26
 4246 1c2a 0E94 0000 		call __fixunssfsi
 4247 1c2e DC01      		movw r26,r24
 4248 1c30 CB01      		movw r24,r22
 4249 1c32 F801      		movw r30,r16
 4250 1c34 9183      		std Z+1,r25
 4251 1c36 8083      		st Z,r24
 4252 1c38 00C0      		rjmp .L221
 4253               	.L222:
 4254 1c3a FE01      		movw r30,r28
 4255 1c3c EC53      		subi r30,lo8(-(196))
 4256 1c3e FF4F      		sbci r31,hi8(-(196))
 4257 1c40 80E9      		ldi r24,lo8(400)
 4258 1c42 91E0      		ldi r25,hi8(400)
 4259 1c44 9183      		std Z+1,r25
 4260 1c46 8083      		st Z,r24
 4261               	.LBB316:
 4262               	.LBB317:
 4263               	.LM258:
 4264 1c48 FE01      		movw r30,r28
 4265 1c4a EC53      		subi r30,lo8(-(196))
 4266 1c4c FF4F      		sbci r31,hi8(-(196))
 4267 1c4e 8081      		ld r24,Z
 4268 1c50 9181      		ldd r25,Z+1
 4269               	/* #APP */
 4270               	 ;  105 "d:/winavr-20100110/lib/gcc/../../avr/include/util/delay_basic.h" 1
 4271 1c52 0197      		1: sbiw r24,1
 4272 1c54 01F4      		brne 1b
 4273               	 ;  0 "" 2
 4274               	/* #NOAPP */
 4275 1c56 FE01      		movw r30,r28
 4276 1c58 EC53      		subi r30,lo8(-(196))
 4277 1c5a FF4F      		sbci r31,hi8(-(196))
 4278 1c5c 9183      		std Z+1,r25
 4279 1c5e 8083      		st Z,r24
 4280               	.LBE317:
 4281               	.LBE316:
 4282               	.LM259:
 4283 1c60 DE01      		movw r26,r28
 4284 1c62 AA53      		subi r26,lo8(-(198))
 4285 1c64 BF4F      		sbci r27,hi8(-(198))
 4286 1c66 FE01      		movw r30,r28
 4287 1c68 EA53      		subi r30,lo8(-(198))
 4288 1c6a FF4F      		sbci r31,hi8(-(198))
 4289 1c6c 8081      		ld r24,Z
 4290 1c6e 9181      		ldd r25,Z+1
 4291 1c70 0197      		sbiw r24,1
 4292 1c72 1196      		adiw r26,1
 4293 1c74 9C93      		st X,r25
 4294 1c76 8E93      		st -X,r24
 4295               	.L221:
 4296               	.LM260:
 4297 1c78 FE01      		movw r30,r28
 4298 1c7a EA53      		subi r30,lo8(-(198))
 4299 1c7c FF4F      		sbci r31,hi8(-(198))
 4300 1c7e 8081      		ld r24,Z
 4301 1c80 9181      		ldd r25,Z+1
 4302 1c82 0097      		sbiw r24,0
 4303 1c84 01F4      		brne .L222
 4304 1c86 00C0      		rjmp .L224
 4305               	.L445:
 4306               	.LM261:
 4307 1c88 8E01      		movw r16,r28
 4308 1c8a 0A53      		subi r16,lo8(-(198))
 4309 1c8c 1F4F      		sbci r17,hi8(-(198))
 4310 1c8e FE01      		movw r30,r28
 4311 1c90 E853      		subi r30,lo8(-(200))
 4312 1c92 FF4F      		sbci r31,hi8(-(200))
 4313 1c94 6081      		ld r22,Z
 4314 1c96 7181      		ldd r23,Z+1
 4315 1c98 8281      		ldd r24,Z+2
 4316 1c9a 9381      		ldd r25,Z+3
 4317 1c9c 0E94 0000 		call __fixunssfsi
 4318 1ca0 DC01      		movw r26,r24
 4319 1ca2 CB01      		movw r24,r22
 4320 1ca4 F801      		movw r30,r16
 4321 1ca6 9183      		std Z+1,r25
 4322 1ca8 8083      		st Z,r24
 4323               	.L218:
 4324 1caa DE01      		movw r26,r28
 4325 1cac AE53      		subi r26,lo8(-(194))
 4326 1cae BF4F      		sbci r27,hi8(-(194))
 4327 1cb0 FE01      		movw r30,r28
 4328 1cb2 EA53      		subi r30,lo8(-(198))
 4329 1cb4 FF4F      		sbci r31,hi8(-(198))
 4330 1cb6 8081      		ld r24,Z
 4331 1cb8 9181      		ldd r25,Z+1
 4332 1cba 1196      		adiw r26,1
 4333 1cbc 9C93      		st X,r25
 4334 1cbe 8E93      		st -X,r24
 4335               	.LBB318:
 4336               	.LBB319:
 4337               	.LM262:
 4338 1cc0 FE01      		movw r30,r28
 4339 1cc2 EE53      		subi r30,lo8(-(194))
 4340 1cc4 FF4F      		sbci r31,hi8(-(194))
 4341 1cc6 8081      		ld r24,Z
 4342 1cc8 9181      		ldd r25,Z+1
 4343               	/* #APP */
 4344               	 ;  105 "d:/winavr-20100110/lib/gcc/../../avr/include/util/delay_basic.h" 1
 4345 1cca 0197      		1: sbiw r24,1
 4346 1ccc 01F4      		brne 1b
 4347               	 ;  0 "" 2
 4348               	/* #NOAPP */
 4349 1cce FE01      		movw r30,r28
 4350 1cd0 EE53      		subi r30,lo8(-(194))
 4351 1cd2 FF4F      		sbci r31,hi8(-(194))
 4352 1cd4 9183      		std Z+1,r25
 4353 1cd6 8083      		st Z,r24
 4354 1cd8 00C0      		rjmp .L224
 4355               	.L443:
 4356               	.LBE319:
 4357               	.LBE318:
 4358               	.LBE315:
 4359               	.LBE314:
 4360               	.LM263:
 4361 1cda 8E01      		movw r16,r28
 4362 1cdc 0053      		subi r16,lo8(-(208))
 4363 1cde 1F4F      		sbci r17,hi8(-(208))
 4364 1ce0 FE01      		movw r30,r28
 4365 1ce2 EF52      		subi r30,lo8(-(209))
 4366 1ce4 FF4F      		sbci r31,hi8(-(209))
 4367 1ce6 6081      		ld r22,Z
 4368 1ce8 7181      		ldd r23,Z+1
 4369 1cea 8281      		ldd r24,Z+2
 4370 1cec 9381      		ldd r25,Z+3
 4371 1cee 0E94 0000 		call __fixunssfsi
 4372 1cf2 DC01      		movw r26,r24
 4373 1cf4 CB01      		movw r24,r22
 4374 1cf6 F801      		movw r30,r16
 4375 1cf8 8083      		st Z,r24
 4376               	.L213:
 4377 1cfa DE01      		movw r26,r28
 4378 1cfc AF53      		subi r26,lo8(-(193))
 4379 1cfe BF4F      		sbci r27,hi8(-(193))
 4380 1d00 FE01      		movw r30,r28
 4381 1d02 E053      		subi r30,lo8(-(208))
 4382 1d04 FF4F      		sbci r31,hi8(-(208))
 4383 1d06 8081      		ld r24,Z
 4384 1d08 8C93      		st X,r24
 4385               	.LBB320:
 4386               	.LBB321:
 4387               	.LM264:
 4388 1d0a FE01      		movw r30,r28
 4389 1d0c EF53      		subi r30,lo8(-(193))
 4390 1d0e FF4F      		sbci r31,hi8(-(193))
 4391 1d10 8081      		ld r24,Z
 4392               	/* #APP */
 4393               	 ;  83 "d:/winavr-20100110/lib/gcc/../../avr/include/util/delay_basic.h" 1
 4394 1d12 8A95      		1: dec r24
 4395 1d14 01F4      		brne 1b
 4396               	 ;  0 "" 2
 4397               	/* #NOAPP */
 4398 1d16 FE01      		movw r30,r28
 4399 1d18 EF53      		subi r30,lo8(-(193))
 4400 1d1a FF4F      		sbci r31,hi8(-(193))
 4401 1d1c 8083      		st Z,r24
 4402               	.L224:
 4403               	.LBE321:
 4404               	.LBE320:
 4405               	.LBE313:
 4406               	.LBE312:
 4407               	.LM265:
 4408 1d1e 1092 0000 		sts PS2data6,__zero_reg__
 4409               	.LM266:
 4410 1d22 1092 0000 		sts i,__zero_reg__
 4411 1d26 00C0      		rjmp .L225
 4412               	.L241:
 4413               	.LM267:
 4414 1d28 A5E3      		ldi r26,lo8(53)
 4415 1d2a B0E0      		ldi r27,hi8(53)
 4416 1d2c E5E3      		ldi r30,lo8(53)
 4417 1d2e F0E0      		ldi r31,hi8(53)
 4418 1d30 8081      		ld r24,Z
 4419 1d32 8B7F      		andi r24,lo8(-5)
 4420 1d34 8C93      		st X,r24
 4421               	.LM268:
 4422 1d36 A5E3      		ldi r26,lo8(53)
 4423 1d38 B0E0      		ldi r27,hi8(53)
 4424 1d3a E5E3      		ldi r30,lo8(53)
 4425 1d3c F0E0      		ldi r31,hi8(53)
 4426 1d3e 8081      		ld r24,Z
 4427 1d40 8E7F      		andi r24,lo8(-2)
 4428 1d42 8C93      		st X,r24
 4429 1d44 FE01      		movw r30,r28
 4430 1d46 E354      		subi r30,lo8(-(189))
 4431 1d48 FF4F      		sbci r31,hi8(-(189))
 4432 1d4a 80E0      		ldi r24,lo8(0x3f800000)
 4433 1d4c 90E0      		ldi r25,hi8(0x3f800000)
 4434 1d4e A0E8      		ldi r26,hlo8(0x3f800000)
 4435 1d50 BFE3      		ldi r27,hhi8(0x3f800000)
 4436 1d52 8083      		st Z,r24
 4437 1d54 9183      		std Z+1,r25
 4438 1d56 A283      		std Z+2,r26
 4439 1d58 B383      		std Z+3,r27
 4440               	.LBB322:
 4441               	.LBB323:
 4442               	.LM269:
 4443 1d5a 8E01      		movw r16,r28
 4444 1d5c 0754      		subi r16,lo8(-(185))
 4445 1d5e 1F4F      		sbci r17,hi8(-(185))
 4446 1d60 FE01      		movw r30,r28
 4447 1d62 E354      		subi r30,lo8(-(189))
 4448 1d64 FF4F      		sbci r31,hi8(-(189))
 4449 1d66 6081      		ld r22,Z
 4450 1d68 7181      		ldd r23,Z+1
 4451 1d6a 8281      		ldd r24,Z+2
 4452 1d6c 9381      		ldd r25,Z+3
 4453 1d6e 2BEA      		ldi r18,lo8(0x40aaaaab)
 4454 1d70 3AEA      		ldi r19,hi8(0x40aaaaab)
 4455 1d72 4AEA      		ldi r20,hlo8(0x40aaaaab)
 4456 1d74 50E4      		ldi r21,hhi8(0x40aaaaab)
 4457 1d76 0E94 0000 		call __mulsf3
 4458 1d7a DC01      		movw r26,r24
 4459 1d7c CB01      		movw r24,r22
 4460 1d7e F801      		movw r30,r16
 4461 1d80 8083      		st Z,r24
 4462 1d82 9183      		std Z+1,r25
 4463 1d84 A283      		std Z+2,r26
 4464 1d86 B383      		std Z+3,r27
 4465               	.LM270:
 4466 1d88 FE01      		movw r30,r28
 4467 1d8a E754      		subi r30,lo8(-(185))
 4468 1d8c FF4F      		sbci r31,hi8(-(185))
 4469 1d8e 6081      		ld r22,Z
 4470 1d90 7181      		ldd r23,Z+1
 4471 1d92 8281      		ldd r24,Z+2
 4472 1d94 9381      		ldd r25,Z+3
 4473 1d96 20E0      		ldi r18,lo8(0x3f800000)
 4474 1d98 30E0      		ldi r19,hi8(0x3f800000)
 4475 1d9a 40E8      		ldi r20,hlo8(0x3f800000)
 4476 1d9c 5FE3      		ldi r21,hhi8(0x3f800000)
 4477 1d9e 0E94 0000 		call __ltsf2
 4478 1da2 8823      		tst r24
 4479 1da4 04F4      		brge .L446
 4480               	.L382:
 4481               	.LM271:
 4482 1da6 FE01      		movw r30,r28
 4483 1da8 E854      		subi r30,lo8(-(184))
 4484 1daa FF4F      		sbci r31,hi8(-(184))
 4485 1dac 81E0      		ldi r24,lo8(1)
 4486 1dae 8083      		st Z,r24
 4487 1db0 00C0      		rjmp .L228
 4488               	.L446:
 4489               	.LM272:
 4490 1db2 FE01      		movw r30,r28
 4491 1db4 E754      		subi r30,lo8(-(185))
 4492 1db6 FF4F      		sbci r31,hi8(-(185))
 4493 1db8 6081      		ld r22,Z
 4494 1dba 7181      		ldd r23,Z+1
 4495 1dbc 8281      		ldd r24,Z+2
 4496 1dbe 9381      		ldd r25,Z+3
 4497 1dc0 20E0      		ldi r18,lo8(0x437f0000)
 4498 1dc2 30E0      		ldi r19,hi8(0x437f0000)
 4499 1dc4 4FE7      		ldi r20,hlo8(0x437f0000)
 4500 1dc6 53E4      		ldi r21,hhi8(0x437f0000)
 4501 1dc8 0E94 0000 		call __gtsf2
 4502 1dcc 1816      		cp __zero_reg__,r24
 4503 1dce 04F0      		brlt .+2
 4504 1dd0 00C0      		rjmp .L447
 4505               	.L383:
 4506               	.LM273:
 4507 1dd2 FE01      		movw r30,r28
 4508 1dd4 E354      		subi r30,lo8(-(189))
 4509 1dd6 FF4F      		sbci r31,hi8(-(189))
 4510 1dd8 6081      		ld r22,Z
 4511 1dda 7181      		ldd r23,Z+1
 4512 1ddc 8281      		ldd r24,Z+2
 4513 1dde 9381      		ldd r25,Z+3
 4514 1de0 20E0      		ldi r18,lo8(0x447a0000)
 4515 1de2 30E0      		ldi r19,hi8(0x447a0000)
 4516 1de4 4AE7      		ldi r20,hlo8(0x447a0000)
 4517 1de6 54E4      		ldi r21,hhi8(0x447a0000)
 4518 1de8 0E94 0000 		call __divsf3
 4519 1dec DC01      		movw r26,r24
 4520 1dee CB01      		movw r24,r22
 4521 1df0 FE01      		movw r30,r28
 4522 1df2 EC54      		subi r30,lo8(-(180))
 4523 1df4 FF4F      		sbci r31,hi8(-(180))
 4524 1df6 8083      		st Z,r24
 4525 1df8 9183      		std Z+1,r25
 4526 1dfa A283      		std Z+2,r26
 4527 1dfc B383      		std Z+3,r27
 4528               	.LBB324:
 4529               	.LBB325:
 4530               	.LM274:
 4531 1dfe 8E01      		movw r16,r28
 4532 1e00 0055      		subi r16,lo8(-(176))
 4533 1e02 1F4F      		sbci r17,hi8(-(176))
 4534 1e04 FE01      		movw r30,r28
 4535 1e06 EC54      		subi r30,lo8(-(180))
 4536 1e08 FF4F      		sbci r31,hi8(-(180))
 4537 1e0a 6081      		ld r22,Z
 4538 1e0c 7181      		ldd r23,Z+1
 4539 1e0e 8281      		ldd r24,Z+2
 4540 1e10 9381      		ldd r25,Z+3
 4541 1e12 20E0      		ldi r18,lo8(0x457a0000)
 4542 1e14 30E0      		ldi r19,hi8(0x457a0000)
 4543 1e16 4AE7      		ldi r20,hlo8(0x457a0000)
 4544 1e18 55E4      		ldi r21,hhi8(0x457a0000)
 4545 1e1a 0E94 0000 		call __mulsf3
 4546 1e1e DC01      		movw r26,r24
 4547 1e20 CB01      		movw r24,r22
 4548 1e22 F801      		movw r30,r16
 4549 1e24 8083      		st Z,r24
 4550 1e26 9183      		std Z+1,r25
 4551 1e28 A283      		std Z+2,r26
 4552 1e2a B383      		std Z+3,r27
 4553               	.LM275:
 4554 1e2c FE01      		movw r30,r28
 4555 1e2e E055      		subi r30,lo8(-(176))
 4556 1e30 FF4F      		sbci r31,hi8(-(176))
 4557 1e32 6081      		ld r22,Z
 4558 1e34 7181      		ldd r23,Z+1
 4559 1e36 8281      		ldd r24,Z+2
 4560 1e38 9381      		ldd r25,Z+3
 4561 1e3a 20E0      		ldi r18,lo8(0x3f800000)
 4562 1e3c 30E0      		ldi r19,hi8(0x3f800000)
 4563 1e3e 40E8      		ldi r20,hlo8(0x3f800000)
 4564 1e40 5FE3      		ldi r21,hhi8(0x3f800000)
 4565 1e42 0E94 0000 		call __ltsf2
 4566 1e46 8823      		tst r24
 4567 1e48 04F4      		brge .L448
 4568               	.L384:
 4569               	.LM276:
 4570 1e4a FE01      		movw r30,r28
 4571 1e4c E255      		subi r30,lo8(-(174))
 4572 1e4e FF4F      		sbci r31,hi8(-(174))
 4573 1e50 81E0      		ldi r24,lo8(1)
 4574 1e52 90E0      		ldi r25,hi8(1)
 4575 1e54 9183      		std Z+1,r25
 4576 1e56 8083      		st Z,r24
 4577 1e58 00C0      		rjmp .L233
 4578               	.L448:
 4579               	.LM277:
 4580 1e5a FE01      		movw r30,r28
 4581 1e5c E055      		subi r30,lo8(-(176))
 4582 1e5e FF4F      		sbci r31,hi8(-(176))
 4583 1e60 6081      		ld r22,Z
 4584 1e62 7181      		ldd r23,Z+1
 4585 1e64 8281      		ldd r24,Z+2
 4586 1e66 9381      		ldd r25,Z+3
 4587 1e68 20E0      		ldi r18,lo8(0x477fff00)
 4588 1e6a 3FEF      		ldi r19,hi8(0x477fff00)
 4589 1e6c 4FE7      		ldi r20,hlo8(0x477fff00)
 4590 1e6e 57E4      		ldi r21,hhi8(0x477fff00)
 4591 1e70 0E94 0000 		call __gtsf2
 4592 1e74 1816      		cp __zero_reg__,r24
 4593 1e76 04F0      		brlt .+2
 4594 1e78 00C0      		rjmp .L449
 4595               	.L385:
 4596               	.LM278:
 4597 1e7a FE01      		movw r30,r28
 4598 1e7c EC54      		subi r30,lo8(-(180))
 4599 1e7e FF4F      		sbci r31,hi8(-(180))
 4600 1e80 6081      		ld r22,Z
 4601 1e82 7181      		ldd r23,Z+1
 4602 1e84 8281      		ldd r24,Z+2
 4603 1e86 9381      		ldd r25,Z+3
 4604 1e88 20E0      		ldi r18,lo8(0x41200000)
 4605 1e8a 30E0      		ldi r19,hi8(0x41200000)
 4606 1e8c 40E2      		ldi r20,hlo8(0x41200000)
 4607 1e8e 51E4      		ldi r21,hhi8(0x41200000)
 4608 1e90 0E94 0000 		call __mulsf3
 4609 1e94 DC01      		movw r26,r24
 4610 1e96 CB01      		movw r24,r22
 4611 1e98 8E01      		movw r16,r28
 4612 1e9a 0255      		subi r16,lo8(-(174))
 4613 1e9c 1F4F      		sbci r17,hi8(-(174))
 4614 1e9e BC01      		movw r22,r24
 4615 1ea0 CD01      		movw r24,r26
 4616 1ea2 0E94 0000 		call __fixunssfsi
 4617 1ea6 DC01      		movw r26,r24
 4618 1ea8 CB01      		movw r24,r22
 4619 1eaa F801      		movw r30,r16
 4620 1eac 9183      		std Z+1,r25
 4621 1eae 8083      		st Z,r24
 4622 1eb0 00C0      		rjmp .L236
 4623               	.L237:
 4624 1eb2 FE01      		movw r30,r28
 4625 1eb4 E455      		subi r30,lo8(-(172))
 4626 1eb6 FF4F      		sbci r31,hi8(-(172))
 4627 1eb8 80E9      		ldi r24,lo8(400)
 4628 1eba 91E0      		ldi r25,hi8(400)
 4629 1ebc 9183      		std Z+1,r25
 4630 1ebe 8083      		st Z,r24
 4631               	.LBB326:
 4632               	.LBB327:
 4633               	.LM279:
 4634 1ec0 FE01      		movw r30,r28
 4635 1ec2 E455      		subi r30,lo8(-(172))
 4636 1ec4 FF4F      		sbci r31,hi8(-(172))
 4637 1ec6 8081      		ld r24,Z
 4638 1ec8 9181      		ldd r25,Z+1
 4639               	/* #APP */
 4640               	 ;  105 "d:/winavr-20100110/lib/gcc/../../avr/include/util/delay_basic.h" 1
 4641 1eca 0197      		1: sbiw r24,1
 4642 1ecc 01F4      		brne 1b
 4643               	 ;  0 "" 2
 4644               	/* #NOAPP */
 4645 1ece FE01      		movw r30,r28
 4646 1ed0 E455      		subi r30,lo8(-(172))
 4647 1ed2 FF4F      		sbci r31,hi8(-(172))
 4648 1ed4 9183      		std Z+1,r25
 4649 1ed6 8083      		st Z,r24
 4650               	.LBE327:
 4651               	.LBE326:
 4652               	.LM280:
 4653 1ed8 DE01      		movw r26,r28
 4654 1eda A255      		subi r26,lo8(-(174))
 4655 1edc BF4F      		sbci r27,hi8(-(174))
 4656 1ede FE01      		movw r30,r28
 4657 1ee0 E255      		subi r30,lo8(-(174))
 4658 1ee2 FF4F      		sbci r31,hi8(-(174))
 4659 1ee4 8081      		ld r24,Z
 4660 1ee6 9181      		ldd r25,Z+1
 4661 1ee8 0197      		sbiw r24,1
 4662 1eea 1196      		adiw r26,1
 4663 1eec 9C93      		st X,r25
 4664 1eee 8E93      		st -X,r24
 4665               	.L236:
 4666               	.LM281:
 4667 1ef0 FE01      		movw r30,r28
 4668 1ef2 E255      		subi r30,lo8(-(174))
 4669 1ef4 FF4F      		sbci r31,hi8(-(174))
 4670 1ef6 8081      		ld r24,Z
 4671 1ef8 9181      		ldd r25,Z+1
 4672 1efa 0097      		sbiw r24,0
 4673 1efc 01F4      		brne .L237
 4674 1efe 00C0      		rjmp .L239
 4675               	.L449:
 4676               	.LM282:
 4677 1f00 8E01      		movw r16,r28
 4678 1f02 0255      		subi r16,lo8(-(174))
 4679 1f04 1F4F      		sbci r17,hi8(-(174))
 4680 1f06 FE01      		movw r30,r28
 4681 1f08 E055      		subi r30,lo8(-(176))
 4682 1f0a FF4F      		sbci r31,hi8(-(176))
 4683 1f0c 6081      		ld r22,Z
 4684 1f0e 7181      		ldd r23,Z+1
 4685 1f10 8281      		ldd r24,Z+2
 4686 1f12 9381      		ldd r25,Z+3
 4687 1f14 0E94 0000 		call __fixunssfsi
 4688 1f18 DC01      		movw r26,r24
 4689 1f1a CB01      		movw r24,r22
 4690 1f1c F801      		movw r30,r16
 4691 1f1e 9183      		std Z+1,r25
 4692 1f20 8083      		st Z,r24
 4693               	.L233:
 4694 1f22 DE01      		movw r26,r28
 4695 1f24 A655      		subi r26,lo8(-(170))
 4696 1f26 BF4F      		sbci r27,hi8(-(170))
 4697 1f28 FE01      		movw r30,r28
 4698 1f2a E255      		subi r30,lo8(-(174))
 4699 1f2c FF4F      		sbci r31,hi8(-(174))
 4700 1f2e 8081      		ld r24,Z
 4701 1f30 9181      		ldd r25,Z+1
 4702 1f32 1196      		adiw r26,1
 4703 1f34 9C93      		st X,r25
 4704 1f36 8E93      		st -X,r24
 4705               	.LBB328:
 4706               	.LBB329:
 4707               	.LM283:
 4708 1f38 FE01      		movw r30,r28
 4709 1f3a E655      		subi r30,lo8(-(170))
 4710 1f3c FF4F      		sbci r31,hi8(-(170))
 4711 1f3e 8081      		ld r24,Z
 4712 1f40 9181      		ldd r25,Z+1
 4713               	/* #APP */
 4714               	 ;  105 "d:/winavr-20100110/lib/gcc/../../avr/include/util/delay_basic.h" 1
 4715 1f42 0197      		1: sbiw r24,1
 4716 1f44 01F4      		brne 1b
 4717               	 ;  0 "" 2
 4718               	/* #NOAPP */
 4719 1f46 FE01      		movw r30,r28
 4720 1f48 E655      		subi r30,lo8(-(170))
 4721 1f4a FF4F      		sbci r31,hi8(-(170))
 4722 1f4c 9183      		std Z+1,r25
 4723 1f4e 8083      		st Z,r24
 4724 1f50 00C0      		rjmp .L239
 4725               	.L447:
 4726               	.LBE329:
 4727               	.LBE328:
 4728               	.LBE325:
 4729               	.LBE324:
 4730               	.LM284:
 4731 1f52 8E01      		movw r16,r28
 4732 1f54 0854      		subi r16,lo8(-(184))
 4733 1f56 1F4F      		sbci r17,hi8(-(184))
 4734 1f58 FE01      		movw r30,r28
 4735 1f5a E754      		subi r30,lo8(-(185))
 4736 1f5c FF4F      		sbci r31,hi8(-(185))
 4737 1f5e 6081      		ld r22,Z
 4738 1f60 7181      		ldd r23,Z+1
 4739 1f62 8281      		ldd r24,Z+2
 4740 1f64 9381      		ldd r25,Z+3
 4741 1f66 0E94 0000 		call __fixunssfsi
 4742 1f6a DC01      		movw r26,r24
 4743 1f6c CB01      		movw r24,r22
 4744 1f6e F801      		movw r30,r16
 4745 1f70 8083      		st Z,r24
 4746               	.L228:
 4747 1f72 DE01      		movw r26,r28
 4748 1f74 A755      		subi r26,lo8(-(169))
 4749 1f76 BF4F      		sbci r27,hi8(-(169))
 4750 1f78 FE01      		movw r30,r28
 4751 1f7a E854      		subi r30,lo8(-(184))
 4752 1f7c FF4F      		sbci r31,hi8(-(184))
 4753 1f7e 8081      		ld r24,Z
 4754 1f80 8C93      		st X,r24
 4755               	.LBB330:
 4756               	.LBB331:
 4757               	.LM285:
 4758 1f82 FE01      		movw r30,r28
 4759 1f84 E755      		subi r30,lo8(-(169))
 4760 1f86 FF4F      		sbci r31,hi8(-(169))
 4761 1f88 8081      		ld r24,Z
 4762               	/* #APP */
 4763               	 ;  83 "d:/winavr-20100110/lib/gcc/../../avr/include/util/delay_basic.h" 1
 4764 1f8a 8A95      		1: dec r24
 4765 1f8c 01F4      		brne 1b
 4766               	 ;  0 "" 2
 4767               	/* #NOAPP */
 4768 1f8e FE01      		movw r30,r28
 4769 1f90 E755      		subi r30,lo8(-(169))
 4770 1f92 FF4F      		sbci r31,hi8(-(169))
 4771 1f94 8083      		st Z,r24
 4772               	.L239:
 4773               	.LBE331:
 4774               	.LBE330:
 4775               	.LBE323:
 4776               	.LBE322:
 4777               	.LM286:
 4778 1f96 E3E3      		ldi r30,lo8(51)
 4779 1f98 F0E0      		ldi r31,hi8(51)
 4780 1f9a 8081      		ld r24,Z
 4781 1f9c 882F      		mov r24,r24
 4782 1f9e 90E0      		ldi r25,lo8(0)
 4783 1fa0 8270      		andi r24,lo8(2)
 4784 1fa2 9070      		andi r25,hi8(2)
 4785 1fa4 0097      		sbiw r24,0
 4786 1fa6 01F0      		breq .L240
 4787 1fa8 8091 0000 		lds r24,i
 4788 1fac 282F      		mov r18,r24
 4789 1fae 30E0      		ldi r19,lo8(0)
 4790 1fb0 81E0      		ldi r24,lo8(1)
 4791 1fb2 90E0      		ldi r25,hi8(1)
 4792 1fb4 022E      		mov r0,r18
 4793 1fb6 00C0      		rjmp 2f
 4794 1fb8 880F      	1:	lsl r24
 4795 1fba 991F      		rol r25
 4796 1fbc 0A94      	2:	dec r0
 4797 1fbe 02F4      		brpl 1b
 4798 1fc0 982F      		mov r25,r24
 4799 1fc2 8091 0000 		lds r24,PS2data6
 4800 1fc6 892B      		or r24,r25
 4801 1fc8 8093 0000 		sts PS2data6,r24
 4802               	.L240:
 4803               	.LM287:
 4804 1fcc A5E3      		ldi r26,lo8(53)
 4805 1fce B0E0      		ldi r27,hi8(53)
 4806 1fd0 E5E3      		ldi r30,lo8(53)
 4807 1fd2 F0E0      		ldi r31,hi8(53)
 4808 1fd4 8081      		ld r24,Z
 4809 1fd6 8160      		ori r24,lo8(1)
 4810 1fd8 8C93      		st X,r24
 4811               	.LM288:
 4812 1fda 8091 0000 		lds r24,i
 4813 1fde 8F5F      		subi r24,lo8(-(1))
 4814 1fe0 8093 0000 		sts i,r24
 4815               	.L225:
 4816 1fe4 8091 0000 		lds r24,i
 4817 1fe8 8830      		cpi r24,lo8(8)
 4818 1fea 00F4      		brsh .+2
 4819 1fec 00C0      		rjmp .L241
 4820               	.LM289:
 4821 1fee A5E3      		ldi r26,lo8(53)
 4822 1ff0 B0E0      		ldi r27,hi8(53)
 4823 1ff2 E5E3      		ldi r30,lo8(53)
 4824 1ff4 F0E0      		ldi r31,hi8(53)
 4825 1ff6 8081      		ld r24,Z
 4826 1ff8 8460      		ori r24,lo8(4)
 4827 1ffa 8C93      		st X,r24
 4828 1ffc FE01      		movw r30,r28
 4829 1ffe EB55      		subi r30,lo8(-(165))
 4830 2000 FF4F      		sbci r31,hi8(-(165))
 4831 2002 80E0      		ldi r24,lo8(0x3f800000)
 4832 2004 90E0      		ldi r25,hi8(0x3f800000)
 4833 2006 A0E8      		ldi r26,hlo8(0x3f800000)
 4834 2008 BFE3      		ldi r27,hhi8(0x3f800000)
 4835 200a 8083      		st Z,r24
 4836 200c 9183      		std Z+1,r25
 4837 200e A283      		std Z+2,r26
 4838 2010 B383      		std Z+3,r27
 4839               	.LBB332:
 4840               	.LBB333:
 4841               	.LM290:
 4842 2012 8E01      		movw r16,r28
 4843 2014 0F55      		subi r16,lo8(-(161))
 4844 2016 1F4F      		sbci r17,hi8(-(161))
 4845 2018 FE01      		movw r30,r28
 4846 201a EB55      		subi r30,lo8(-(165))
 4847 201c FF4F      		sbci r31,hi8(-(165))
 4848 201e 6081      		ld r22,Z
 4849 2020 7181      		ldd r23,Z+1
 4850 2022 8281      		ldd r24,Z+2
 4851 2024 9381      		ldd r25,Z+3
 4852 2026 2BEA      		ldi r18,lo8(0x40aaaaab)
 4853 2028 3AEA      		ldi r19,hi8(0x40aaaaab)
 4854 202a 4AEA      		ldi r20,hlo8(0x40aaaaab)
 4855 202c 50E4      		ldi r21,hhi8(0x40aaaaab)
 4856 202e 0E94 0000 		call __mulsf3
 4857 2032 DC01      		movw r26,r24
 4858 2034 CB01      		movw r24,r22
 4859 2036 F801      		movw r30,r16
 4860 2038 8083      		st Z,r24
 4861 203a 9183      		std Z+1,r25
 4862 203c A283      		std Z+2,r26
 4863 203e B383      		std Z+3,r27
 4864               	.LM291:
 4865 2040 FE01      		movw r30,r28
 4866 2042 EF55      		subi r30,lo8(-(161))
 4867 2044 FF4F      		sbci r31,hi8(-(161))
 4868 2046 6081      		ld r22,Z
 4869 2048 7181      		ldd r23,Z+1
 4870 204a 8281      		ldd r24,Z+2
 4871 204c 9381      		ldd r25,Z+3
 4872 204e 20E0      		ldi r18,lo8(0x3f800000)
 4873 2050 30E0      		ldi r19,hi8(0x3f800000)
 4874 2052 40E8      		ldi r20,hlo8(0x3f800000)
 4875 2054 5FE3      		ldi r21,hhi8(0x3f800000)
 4876 2056 0E94 0000 		call __ltsf2
 4877 205a 8823      		tst r24
 4878 205c 04F4      		brge .L450
 4879               	.L386:
 4880               	.LM292:
 4881 205e FE01      		movw r30,r28
 4882 2060 E056      		subi r30,lo8(-(160))
 4883 2062 FF4F      		sbci r31,hi8(-(160))
 4884 2064 81E0      		ldi r24,lo8(1)
 4885 2066 8083      		st Z,r24
 4886 2068 00C0      		rjmp .L244
 4887               	.L450:
 4888               	.LM293:
 4889 206a FE01      		movw r30,r28
 4890 206c EF55      		subi r30,lo8(-(161))
 4891 206e FF4F      		sbci r31,hi8(-(161))
 4892 2070 6081      		ld r22,Z
 4893 2072 7181      		ldd r23,Z+1
 4894 2074 8281      		ldd r24,Z+2
 4895 2076 9381      		ldd r25,Z+3
 4896 2078 20E0      		ldi r18,lo8(0x437f0000)
 4897 207a 30E0      		ldi r19,hi8(0x437f0000)
 4898 207c 4FE7      		ldi r20,hlo8(0x437f0000)
 4899 207e 53E4      		ldi r21,hhi8(0x437f0000)
 4900 2080 0E94 0000 		call __gtsf2
 4901 2084 1816      		cp __zero_reg__,r24
 4902 2086 04F0      		brlt .+2
 4903 2088 00C0      		rjmp .L451
 4904               	.L387:
 4905               	.LM294:
 4906 208a FE01      		movw r30,r28
 4907 208c EB55      		subi r30,lo8(-(165))
 4908 208e FF4F      		sbci r31,hi8(-(165))
 4909 2090 6081      		ld r22,Z
 4910 2092 7181      		ldd r23,Z+1
 4911 2094 8281      		ldd r24,Z+2
 4912 2096 9381      		ldd r25,Z+3
 4913 2098 20E0      		ldi r18,lo8(0x447a0000)
 4914 209a 30E0      		ldi r19,hi8(0x447a0000)
 4915 209c 4AE7      		ldi r20,hlo8(0x447a0000)
 4916 209e 54E4      		ldi r21,hhi8(0x447a0000)
 4917 20a0 0E94 0000 		call __divsf3
 4918 20a4 DC01      		movw r26,r24
 4919 20a6 CB01      		movw r24,r22
 4920 20a8 FE01      		movw r30,r28
 4921 20aa E456      		subi r30,lo8(-(156))
 4922 20ac FF4F      		sbci r31,hi8(-(156))
 4923 20ae 8083      		st Z,r24
 4924 20b0 9183      		std Z+1,r25
 4925 20b2 A283      		std Z+2,r26
 4926 20b4 B383      		std Z+3,r27
 4927               	.LBB334:
 4928               	.LBB335:
 4929               	.LM295:
 4930 20b6 8E01      		movw r16,r28
 4931 20b8 0856      		subi r16,lo8(-(152))
 4932 20ba 1F4F      		sbci r17,hi8(-(152))
 4933 20bc FE01      		movw r30,r28
 4934 20be E456      		subi r30,lo8(-(156))
 4935 20c0 FF4F      		sbci r31,hi8(-(156))
 4936 20c2 6081      		ld r22,Z
 4937 20c4 7181      		ldd r23,Z+1
 4938 20c6 8281      		ldd r24,Z+2
 4939 20c8 9381      		ldd r25,Z+3
 4940 20ca 20E0      		ldi r18,lo8(0x457a0000)
 4941 20cc 30E0      		ldi r19,hi8(0x457a0000)
 4942 20ce 4AE7      		ldi r20,hlo8(0x457a0000)
 4943 20d0 55E4      		ldi r21,hhi8(0x457a0000)
 4944 20d2 0E94 0000 		call __mulsf3
 4945 20d6 DC01      		movw r26,r24
 4946 20d8 CB01      		movw r24,r22
 4947 20da F801      		movw r30,r16
 4948 20dc 8083      		st Z,r24
 4949 20de 9183      		std Z+1,r25
 4950 20e0 A283      		std Z+2,r26
 4951 20e2 B383      		std Z+3,r27
 4952               	.LM296:
 4953 20e4 FE01      		movw r30,r28
 4954 20e6 E856      		subi r30,lo8(-(152))
 4955 20e8 FF4F      		sbci r31,hi8(-(152))
 4956 20ea 6081      		ld r22,Z
 4957 20ec 7181      		ldd r23,Z+1
 4958 20ee 8281      		ldd r24,Z+2
 4959 20f0 9381      		ldd r25,Z+3
 4960 20f2 20E0      		ldi r18,lo8(0x3f800000)
 4961 20f4 30E0      		ldi r19,hi8(0x3f800000)
 4962 20f6 40E8      		ldi r20,hlo8(0x3f800000)
 4963 20f8 5FE3      		ldi r21,hhi8(0x3f800000)
 4964 20fa 0E94 0000 		call __ltsf2
 4965 20fe 8823      		tst r24
 4966 2100 04F4      		brge .L452
 4967               	.L388:
 4968               	.LM297:
 4969 2102 FE01      		movw r30,r28
 4970 2104 EA56      		subi r30,lo8(-(150))
 4971 2106 FF4F      		sbci r31,hi8(-(150))
 4972 2108 81E0      		ldi r24,lo8(1)
 4973 210a 90E0      		ldi r25,hi8(1)
 4974 210c 9183      		std Z+1,r25
 4975 210e 8083      		st Z,r24
 4976 2110 00C0      		rjmp .L249
 4977               	.L452:
 4978               	.LM298:
 4979 2112 FE01      		movw r30,r28
 4980 2114 E856      		subi r30,lo8(-(152))
 4981 2116 FF4F      		sbci r31,hi8(-(152))
 4982 2118 6081      		ld r22,Z
 4983 211a 7181      		ldd r23,Z+1
 4984 211c 8281      		ldd r24,Z+2
 4985 211e 9381      		ldd r25,Z+3
 4986 2120 20E0      		ldi r18,lo8(0x477fff00)
 4987 2122 3FEF      		ldi r19,hi8(0x477fff00)
 4988 2124 4FE7      		ldi r20,hlo8(0x477fff00)
 4989 2126 57E4      		ldi r21,hhi8(0x477fff00)
 4990 2128 0E94 0000 		call __gtsf2
 4991 212c 1816      		cp __zero_reg__,r24
 4992 212e 04F0      		brlt .+2
 4993 2130 00C0      		rjmp .L453
 4994               	.L389:
 4995               	.LM299:
 4996 2132 FE01      		movw r30,r28
 4997 2134 E456      		subi r30,lo8(-(156))
 4998 2136 FF4F      		sbci r31,hi8(-(156))
 4999 2138 6081      		ld r22,Z
 5000 213a 7181      		ldd r23,Z+1
 5001 213c 8281      		ldd r24,Z+2
 5002 213e 9381      		ldd r25,Z+3
 5003 2140 20E0      		ldi r18,lo8(0x41200000)
 5004 2142 30E0      		ldi r19,hi8(0x41200000)
 5005 2144 40E2      		ldi r20,hlo8(0x41200000)
 5006 2146 51E4      		ldi r21,hhi8(0x41200000)
 5007 2148 0E94 0000 		call __mulsf3
 5008 214c DC01      		movw r26,r24
 5009 214e CB01      		movw r24,r22
 5010 2150 8E01      		movw r16,r28
 5011 2152 0A56      		subi r16,lo8(-(150))
 5012 2154 1F4F      		sbci r17,hi8(-(150))
 5013 2156 BC01      		movw r22,r24
 5014 2158 CD01      		movw r24,r26
 5015 215a 0E94 0000 		call __fixunssfsi
 5016 215e DC01      		movw r26,r24
 5017 2160 CB01      		movw r24,r22
 5018 2162 F801      		movw r30,r16
 5019 2164 9183      		std Z+1,r25
 5020 2166 8083      		st Z,r24
 5021 2168 00C0      		rjmp .L252
 5022               	.L253:
 5023 216a FE01      		movw r30,r28
 5024 216c EC56      		subi r30,lo8(-(148))
 5025 216e FF4F      		sbci r31,hi8(-(148))
 5026 2170 80E9      		ldi r24,lo8(400)
 5027 2172 91E0      		ldi r25,hi8(400)
 5028 2174 9183      		std Z+1,r25
 5029 2176 8083      		st Z,r24
 5030               	.LBB336:
 5031               	.LBB337:
 5032               	.LM300:
 5033 2178 FE01      		movw r30,r28
 5034 217a EC56      		subi r30,lo8(-(148))
 5035 217c FF4F      		sbci r31,hi8(-(148))
 5036 217e 8081      		ld r24,Z
 5037 2180 9181      		ldd r25,Z+1
 5038               	/* #APP */
 5039               	 ;  105 "d:/winavr-20100110/lib/gcc/../../avr/include/util/delay_basic.h" 1
 5040 2182 0197      		1: sbiw r24,1
 5041 2184 01F4      		brne 1b
 5042               	 ;  0 "" 2
 5043               	/* #NOAPP */
 5044 2186 FE01      		movw r30,r28
 5045 2188 EC56      		subi r30,lo8(-(148))
 5046 218a FF4F      		sbci r31,hi8(-(148))
 5047 218c 9183      		std Z+1,r25
 5048 218e 8083      		st Z,r24
 5049               	.LBE337:
 5050               	.LBE336:
 5051               	.LM301:
 5052 2190 DE01      		movw r26,r28
 5053 2192 AA56      		subi r26,lo8(-(150))
 5054 2194 BF4F      		sbci r27,hi8(-(150))
 5055 2196 FE01      		movw r30,r28
 5056 2198 EA56      		subi r30,lo8(-(150))
 5057 219a FF4F      		sbci r31,hi8(-(150))
 5058 219c 8081      		ld r24,Z
 5059 219e 9181      		ldd r25,Z+1
 5060 21a0 0197      		sbiw r24,1
 5061 21a2 1196      		adiw r26,1
 5062 21a4 9C93      		st X,r25
 5063 21a6 8E93      		st -X,r24
 5064               	.L252:
 5065               	.LM302:
 5066 21a8 FE01      		movw r30,r28
 5067 21aa EA56      		subi r30,lo8(-(150))
 5068 21ac FF4F      		sbci r31,hi8(-(150))
 5069 21ae 8081      		ld r24,Z
 5070 21b0 9181      		ldd r25,Z+1
 5071 21b2 0097      		sbiw r24,0
 5072 21b4 01F4      		brne .L253
 5073 21b6 00C0      		rjmp .L255
 5074               	.L453:
 5075               	.LM303:
 5076 21b8 8E01      		movw r16,r28
 5077 21ba 0A56      		subi r16,lo8(-(150))
 5078 21bc 1F4F      		sbci r17,hi8(-(150))
 5079 21be FE01      		movw r30,r28
 5080 21c0 E856      		subi r30,lo8(-(152))
 5081 21c2 FF4F      		sbci r31,hi8(-(152))
 5082 21c4 6081      		ld r22,Z
 5083 21c6 7181      		ldd r23,Z+1
 5084 21c8 8281      		ldd r24,Z+2
 5085 21ca 9381      		ldd r25,Z+3
 5086 21cc 0E94 0000 		call __fixunssfsi
 5087 21d0 DC01      		movw r26,r24
 5088 21d2 CB01      		movw r24,r22
 5089 21d4 F801      		movw r30,r16
 5090 21d6 9183      		std Z+1,r25
 5091 21d8 8083      		st Z,r24
 5092               	.L249:
 5093 21da DE01      		movw r26,r28
 5094 21dc AE56      		subi r26,lo8(-(146))
 5095 21de BF4F      		sbci r27,hi8(-(146))
 5096 21e0 FE01      		movw r30,r28
 5097 21e2 EA56      		subi r30,lo8(-(150))
 5098 21e4 FF4F      		sbci r31,hi8(-(150))
 5099 21e6 8081      		ld r24,Z
 5100 21e8 9181      		ldd r25,Z+1
 5101 21ea 1196      		adiw r26,1
 5102 21ec 9C93      		st X,r25
 5103 21ee 8E93      		st -X,r24
 5104               	.LBB338:
 5105               	.LBB339:
 5106               	.LM304:
 5107 21f0 FE01      		movw r30,r28
 5108 21f2 EE56      		subi r30,lo8(-(146))
 5109 21f4 FF4F      		sbci r31,hi8(-(146))
 5110 21f6 8081      		ld r24,Z
 5111 21f8 9181      		ldd r25,Z+1
 5112               	/* #APP */
 5113               	 ;  105 "d:/winavr-20100110/lib/gcc/../../avr/include/util/delay_basic.h" 1
 5114 21fa 0197      		1: sbiw r24,1
 5115 21fc 01F4      		brne 1b
 5116               	 ;  0 "" 2
 5117               	/* #NOAPP */
 5118 21fe FE01      		movw r30,r28
 5119 2200 EE56      		subi r30,lo8(-(146))
 5120 2202 FF4F      		sbci r31,hi8(-(146))
 5121 2204 9183      		std Z+1,r25
 5122 2206 8083      		st Z,r24
 5123 2208 00C0      		rjmp .L255
 5124               	.L451:
 5125               	.LBE339:
 5126               	.LBE338:
 5127               	.LBE335:
 5128               	.LBE334:
 5129               	.LM305:
 5130 220a 8E01      		movw r16,r28
 5131 220c 0056      		subi r16,lo8(-(160))
 5132 220e 1F4F      		sbci r17,hi8(-(160))
 5133 2210 FE01      		movw r30,r28
 5134 2212 EF55      		subi r30,lo8(-(161))
 5135 2214 FF4F      		sbci r31,hi8(-(161))
 5136 2216 6081      		ld r22,Z
 5137 2218 7181      		ldd r23,Z+1
 5138 221a 8281      		ldd r24,Z+2
 5139 221c 9381      		ldd r25,Z+3
 5140 221e 0E94 0000 		call __fixunssfsi
 5141 2222 DC01      		movw r26,r24
 5142 2224 CB01      		movw r24,r22
 5143 2226 F801      		movw r30,r16
 5144 2228 8083      		st Z,r24
 5145               	.L244:
 5146 222a DE01      		movw r26,r28
 5147 222c AF56      		subi r26,lo8(-(145))
 5148 222e BF4F      		sbci r27,hi8(-(145))
 5149 2230 FE01      		movw r30,r28
 5150 2232 E056      		subi r30,lo8(-(160))
 5151 2234 FF4F      		sbci r31,hi8(-(160))
 5152 2236 8081      		ld r24,Z
 5153 2238 8C93      		st X,r24
 5154               	.LBB340:
 5155               	.LBB341:
 5156               	.LM306:
 5157 223a FE01      		movw r30,r28
 5158 223c EF56      		subi r30,lo8(-(145))
 5159 223e FF4F      		sbci r31,hi8(-(145))
 5160 2240 8081      		ld r24,Z
 5161               	/* #APP */
 5162               	 ;  83 "d:/winavr-20100110/lib/gcc/../../avr/include/util/delay_basic.h" 1
 5163 2242 8A95      		1: dec r24
 5164 2244 01F4      		brne 1b
 5165               	 ;  0 "" 2
 5166               	/* #NOAPP */
 5167 2246 FE01      		movw r30,r28
 5168 2248 EF56      		subi r30,lo8(-(145))
 5169 224a FF4F      		sbci r31,hi8(-(145))
 5170 224c 8083      		st Z,r24
 5171               	.L255:
 5172               	.LBE341:
 5173               	.LBE340:
 5174               	.LBE333:
 5175               	.LBE332:
 5176               	.LM307:
 5177 224e 1092 0000 		sts PS2data7,__zero_reg__
 5178               	.LM308:
 5179 2252 1092 0000 		sts i,__zero_reg__
 5180 2256 00C0      		rjmp .L256
 5181               	.L272:
 5182               	.LM309:
 5183 2258 A5E3      		ldi r26,lo8(53)
 5184 225a B0E0      		ldi r27,hi8(53)
 5185 225c E5E3      		ldi r30,lo8(53)
 5186 225e F0E0      		ldi r31,hi8(53)
 5187 2260 8081      		ld r24,Z
 5188 2262 8B7F      		andi r24,lo8(-5)
 5189 2264 8C93      		st X,r24
 5190               	.LM310:
 5191 2266 A5E3      		ldi r26,lo8(53)
 5192 2268 B0E0      		ldi r27,hi8(53)
 5193 226a E5E3      		ldi r30,lo8(53)
 5194 226c F0E0      		ldi r31,hi8(53)
 5195 226e 8081      		ld r24,Z
 5196 2270 8E7F      		andi r24,lo8(-2)
 5197 2272 8C93      		st X,r24
 5198 2274 FE01      		movw r30,r28
 5199 2276 E357      		subi r30,lo8(-(141))
 5200 2278 FF4F      		sbci r31,hi8(-(141))
 5201 227a 80E0      		ldi r24,lo8(0x3f800000)
 5202 227c 90E0      		ldi r25,hi8(0x3f800000)
 5203 227e A0E8      		ldi r26,hlo8(0x3f800000)
 5204 2280 BFE3      		ldi r27,hhi8(0x3f800000)
 5205 2282 8083      		st Z,r24
 5206 2284 9183      		std Z+1,r25
 5207 2286 A283      		std Z+2,r26
 5208 2288 B383      		std Z+3,r27
 5209               	.LBB342:
 5210               	.LBB343:
 5211               	.LM311:
 5212 228a 8E01      		movw r16,r28
 5213 228c 0757      		subi r16,lo8(-(137))
 5214 228e 1F4F      		sbci r17,hi8(-(137))
 5215 2290 FE01      		movw r30,r28
 5216 2292 E357      		subi r30,lo8(-(141))
 5217 2294 FF4F      		sbci r31,hi8(-(141))
 5218 2296 6081      		ld r22,Z
 5219 2298 7181      		ldd r23,Z+1
 5220 229a 8281      		ldd r24,Z+2
 5221 229c 9381      		ldd r25,Z+3
 5222 229e 2BEA      		ldi r18,lo8(0x40aaaaab)
 5223 22a0 3AEA      		ldi r19,hi8(0x40aaaaab)
 5224 22a2 4AEA      		ldi r20,hlo8(0x40aaaaab)
 5225 22a4 50E4      		ldi r21,hhi8(0x40aaaaab)
 5226 22a6 0E94 0000 		call __mulsf3
 5227 22aa DC01      		movw r26,r24
 5228 22ac CB01      		movw r24,r22
 5229 22ae F801      		movw r30,r16
 5230 22b0 8083      		st Z,r24
 5231 22b2 9183      		std Z+1,r25
 5232 22b4 A283      		std Z+2,r26
 5233 22b6 B383      		std Z+3,r27
 5234               	.LM312:
 5235 22b8 FE01      		movw r30,r28
 5236 22ba E757      		subi r30,lo8(-(137))
 5237 22bc FF4F      		sbci r31,hi8(-(137))
 5238 22be 6081      		ld r22,Z
 5239 22c0 7181      		ldd r23,Z+1
 5240 22c2 8281      		ldd r24,Z+2
 5241 22c4 9381      		ldd r25,Z+3
 5242 22c6 20E0      		ldi r18,lo8(0x3f800000)
 5243 22c8 30E0      		ldi r19,hi8(0x3f800000)
 5244 22ca 40E8      		ldi r20,hlo8(0x3f800000)
 5245 22cc 5FE3      		ldi r21,hhi8(0x3f800000)
 5246 22ce 0E94 0000 		call __ltsf2
 5247 22d2 8823      		tst r24
 5248 22d4 04F4      		brge .L454
 5249               	.L390:
 5250               	.LM313:
 5251 22d6 FE01      		movw r30,r28
 5252 22d8 E857      		subi r30,lo8(-(136))
 5253 22da FF4F      		sbci r31,hi8(-(136))
 5254 22dc 81E0      		ldi r24,lo8(1)
 5255 22de 8083      		st Z,r24
 5256 22e0 00C0      		rjmp .L259
 5257               	.L454:
 5258               	.LM314:
 5259 22e2 FE01      		movw r30,r28
 5260 22e4 E757      		subi r30,lo8(-(137))
 5261 22e6 FF4F      		sbci r31,hi8(-(137))
 5262 22e8 6081      		ld r22,Z
 5263 22ea 7181      		ldd r23,Z+1
 5264 22ec 8281      		ldd r24,Z+2
 5265 22ee 9381      		ldd r25,Z+3
 5266 22f0 20E0      		ldi r18,lo8(0x437f0000)
 5267 22f2 30E0      		ldi r19,hi8(0x437f0000)
 5268 22f4 4FE7      		ldi r20,hlo8(0x437f0000)
 5269 22f6 53E4      		ldi r21,hhi8(0x437f0000)
 5270 22f8 0E94 0000 		call __gtsf2
 5271 22fc 1816      		cp __zero_reg__,r24
 5272 22fe 04F0      		brlt .+2
 5273 2300 00C0      		rjmp .L455
 5274               	.L391:
 5275               	.LM315:
 5276 2302 FE01      		movw r30,r28
 5277 2304 E357      		subi r30,lo8(-(141))
 5278 2306 FF4F      		sbci r31,hi8(-(141))
 5279 2308 6081      		ld r22,Z
 5280 230a 7181      		ldd r23,Z+1
 5281 230c 8281      		ldd r24,Z+2
 5282 230e 9381      		ldd r25,Z+3
 5283 2310 20E0      		ldi r18,lo8(0x447a0000)
 5284 2312 30E0      		ldi r19,hi8(0x447a0000)
 5285 2314 4AE7      		ldi r20,hlo8(0x447a0000)
 5286 2316 54E4      		ldi r21,hhi8(0x447a0000)
 5287 2318 0E94 0000 		call __divsf3
 5288 231c DC01      		movw r26,r24
 5289 231e CB01      		movw r24,r22
 5290 2320 FE01      		movw r30,r28
 5291 2322 EC57      		subi r30,lo8(-(132))
 5292 2324 FF4F      		sbci r31,hi8(-(132))
 5293 2326 8083      		st Z,r24
 5294 2328 9183      		std Z+1,r25
 5295 232a A283      		std Z+2,r26
 5296 232c B383      		std Z+3,r27
 5297               	.LBB344:
 5298               	.LBB345:
 5299               	.LM316:
 5300 232e 8E01      		movw r16,r28
 5301 2330 0058      		subi r16,lo8(-(128))
 5302 2332 1F4F      		sbci r17,hi8(-(128))
 5303 2334 FE01      		movw r30,r28
 5304 2336 EC57      		subi r30,lo8(-(132))
 5305 2338 FF4F      		sbci r31,hi8(-(132))
 5306 233a 6081      		ld r22,Z
 5307 233c 7181      		ldd r23,Z+1
 5308 233e 8281      		ldd r24,Z+2
 5309 2340 9381      		ldd r25,Z+3
 5310 2342 20E0      		ldi r18,lo8(0x457a0000)
 5311 2344 30E0      		ldi r19,hi8(0x457a0000)
 5312 2346 4AE7      		ldi r20,hlo8(0x457a0000)
 5313 2348 55E4      		ldi r21,hhi8(0x457a0000)
 5314 234a 0E94 0000 		call __mulsf3
 5315 234e DC01      		movw r26,r24
 5316 2350 CB01      		movw r24,r22
 5317 2352 F801      		movw r30,r16
 5318 2354 8083      		st Z,r24
 5319 2356 9183      		std Z+1,r25
 5320 2358 A283      		std Z+2,r26
 5321 235a B383      		std Z+3,r27
 5322               	.LM317:
 5323 235c FE01      		movw r30,r28
 5324 235e E058      		subi r30,lo8(-(128))
 5325 2360 FF4F      		sbci r31,hi8(-(128))
 5326 2362 6081      		ld r22,Z
 5327 2364 7181      		ldd r23,Z+1
 5328 2366 8281      		ldd r24,Z+2
 5329 2368 9381      		ldd r25,Z+3
 5330 236a 20E0      		ldi r18,lo8(0x3f800000)
 5331 236c 30E0      		ldi r19,hi8(0x3f800000)
 5332 236e 40E8      		ldi r20,hlo8(0x3f800000)
 5333 2370 5FE3      		ldi r21,hhi8(0x3f800000)
 5334 2372 0E94 0000 		call __ltsf2
 5335 2376 8823      		tst r24
 5336 2378 04F4      		brge .L456
 5337               	.L392:
 5338               	.LM318:
 5339 237a FE01      		movw r30,r28
 5340 237c E258      		subi r30,lo8(-(126))
 5341 237e FF4F      		sbci r31,hi8(-(126))
 5342 2380 81E0      		ldi r24,lo8(1)
 5343 2382 90E0      		ldi r25,hi8(1)
 5344 2384 9183      		std Z+1,r25
 5345 2386 8083      		st Z,r24
 5346 2388 00C0      		rjmp .L264
 5347               	.L456:
 5348               	.LM319:
 5349 238a FE01      		movw r30,r28
 5350 238c E058      		subi r30,lo8(-(128))
 5351 238e FF4F      		sbci r31,hi8(-(128))
 5352 2390 6081      		ld r22,Z
 5353 2392 7181      		ldd r23,Z+1
 5354 2394 8281      		ldd r24,Z+2
 5355 2396 9381      		ldd r25,Z+3
 5356 2398 20E0      		ldi r18,lo8(0x477fff00)
 5357 239a 3FEF      		ldi r19,hi8(0x477fff00)
 5358 239c 4FE7      		ldi r20,hlo8(0x477fff00)
 5359 239e 57E4      		ldi r21,hhi8(0x477fff00)
 5360 23a0 0E94 0000 		call __gtsf2
 5361 23a4 1816      		cp __zero_reg__,r24
 5362 23a6 04F0      		brlt .+2
 5363 23a8 00C0      		rjmp .L457
 5364               	.L393:
 5365               	.LM320:
 5366 23aa FE01      		movw r30,r28
 5367 23ac EC57      		subi r30,lo8(-(132))
 5368 23ae FF4F      		sbci r31,hi8(-(132))
 5369 23b0 6081      		ld r22,Z
 5370 23b2 7181      		ldd r23,Z+1
 5371 23b4 8281      		ldd r24,Z+2
 5372 23b6 9381      		ldd r25,Z+3
 5373 23b8 20E0      		ldi r18,lo8(0x41200000)
 5374 23ba 30E0      		ldi r19,hi8(0x41200000)
 5375 23bc 40E2      		ldi r20,hlo8(0x41200000)
 5376 23be 51E4      		ldi r21,hhi8(0x41200000)
 5377 23c0 0E94 0000 		call __mulsf3
 5378 23c4 DC01      		movw r26,r24
 5379 23c6 CB01      		movw r24,r22
 5380 23c8 8E01      		movw r16,r28
 5381 23ca 0258      		subi r16,lo8(-(126))
 5382 23cc 1F4F      		sbci r17,hi8(-(126))
 5383 23ce BC01      		movw r22,r24
 5384 23d0 CD01      		movw r24,r26
 5385 23d2 0E94 0000 		call __fixunssfsi
 5386 23d6 DC01      		movw r26,r24
 5387 23d8 CB01      		movw r24,r22
 5388 23da F801      		movw r30,r16
 5389 23dc 9183      		std Z+1,r25
 5390 23de 8083      		st Z,r24
 5391 23e0 00C0      		rjmp .L267
 5392               	.L268:
 5393 23e2 FE01      		movw r30,r28
 5394 23e4 E458      		subi r30,lo8(-(124))
 5395 23e6 FF4F      		sbci r31,hi8(-(124))
 5396 23e8 80E9      		ldi r24,lo8(400)
 5397 23ea 91E0      		ldi r25,hi8(400)
 5398 23ec 9183      		std Z+1,r25
 5399 23ee 8083      		st Z,r24
 5400               	.LBB346:
 5401               	.LBB347:
 5402               	.LM321:
 5403 23f0 FE01      		movw r30,r28
 5404 23f2 E458      		subi r30,lo8(-(124))
 5405 23f4 FF4F      		sbci r31,hi8(-(124))
 5406 23f6 8081      		ld r24,Z
 5407 23f8 9181      		ldd r25,Z+1
 5408               	/* #APP */
 5409               	 ;  105 "d:/winavr-20100110/lib/gcc/../../avr/include/util/delay_basic.h" 1
 5410 23fa 0197      		1: sbiw r24,1
 5411 23fc 01F4      		brne 1b
 5412               	 ;  0 "" 2
 5413               	/* #NOAPP */
 5414 23fe FE01      		movw r30,r28
 5415 2400 E458      		subi r30,lo8(-(124))
 5416 2402 FF4F      		sbci r31,hi8(-(124))
 5417 2404 9183      		std Z+1,r25
 5418 2406 8083      		st Z,r24
 5419               	.LBE347:
 5420               	.LBE346:
 5421               	.LM322:
 5422 2408 DE01      		movw r26,r28
 5423 240a A258      		subi r26,lo8(-(126))
 5424 240c BF4F      		sbci r27,hi8(-(126))
 5425 240e FE01      		movw r30,r28
 5426 2410 E258      		subi r30,lo8(-(126))
 5427 2412 FF4F      		sbci r31,hi8(-(126))
 5428 2414 8081      		ld r24,Z
 5429 2416 9181      		ldd r25,Z+1
 5430 2418 0197      		sbiw r24,1
 5431 241a 1196      		adiw r26,1
 5432 241c 9C93      		st X,r25
 5433 241e 8E93      		st -X,r24
 5434               	.L267:
 5435               	.LM323:
 5436 2420 FE01      		movw r30,r28
 5437 2422 E258      		subi r30,lo8(-(126))
 5438 2424 FF4F      		sbci r31,hi8(-(126))
 5439 2426 8081      		ld r24,Z
 5440 2428 9181      		ldd r25,Z+1
 5441 242a 0097      		sbiw r24,0
 5442 242c 01F4      		brne .L268
 5443 242e 00C0      		rjmp .L270
 5444               	.L457:
 5445               	.LM324:
 5446 2430 8E01      		movw r16,r28
 5447 2432 0258      		subi r16,lo8(-(126))
 5448 2434 1F4F      		sbci r17,hi8(-(126))
 5449 2436 FE01      		movw r30,r28
 5450 2438 E058      		subi r30,lo8(-(128))
 5451 243a FF4F      		sbci r31,hi8(-(128))
 5452 243c 6081      		ld r22,Z
 5453 243e 7181      		ldd r23,Z+1
 5454 2440 8281      		ldd r24,Z+2
 5455 2442 9381      		ldd r25,Z+3
 5456 2444 0E94 0000 		call __fixunssfsi
 5457 2448 DC01      		movw r26,r24
 5458 244a CB01      		movw r24,r22
 5459 244c F801      		movw r30,r16
 5460 244e 9183      		std Z+1,r25
 5461 2450 8083      		st Z,r24
 5462               	.L264:
 5463 2452 DE01      		movw r26,r28
 5464 2454 A658      		subi r26,lo8(-(122))
 5465 2456 BF4F      		sbci r27,hi8(-(122))
 5466 2458 FE01      		movw r30,r28
 5467 245a E258      		subi r30,lo8(-(126))
 5468 245c FF4F      		sbci r31,hi8(-(126))
 5469 245e 8081      		ld r24,Z
 5470 2460 9181      		ldd r25,Z+1
 5471 2462 1196      		adiw r26,1
 5472 2464 9C93      		st X,r25
 5473 2466 8E93      		st -X,r24
 5474               	.LBB348:
 5475               	.LBB349:
 5476               	.LM325:
 5477 2468 FE01      		movw r30,r28
 5478 246a E658      		subi r30,lo8(-(122))
 5479 246c FF4F      		sbci r31,hi8(-(122))
 5480 246e 8081      		ld r24,Z
 5481 2470 9181      		ldd r25,Z+1
 5482               	/* #APP */
 5483               	 ;  105 "d:/winavr-20100110/lib/gcc/../../avr/include/util/delay_basic.h" 1
 5484 2472 0197      		1: sbiw r24,1
 5485 2474 01F4      		brne 1b
 5486               	 ;  0 "" 2
 5487               	/* #NOAPP */
 5488 2476 FE01      		movw r30,r28
 5489 2478 E658      		subi r30,lo8(-(122))
 5490 247a FF4F      		sbci r31,hi8(-(122))
 5491 247c 9183      		std Z+1,r25
 5492 247e 8083      		st Z,r24
 5493 2480 00C0      		rjmp .L270
 5494               	.L455:
 5495               	.LBE349:
 5496               	.LBE348:
 5497               	.LBE345:
 5498               	.LBE344:
 5499               	.LM326:
 5500 2482 8E01      		movw r16,r28
 5501 2484 0857      		subi r16,lo8(-(136))
 5502 2486 1F4F      		sbci r17,hi8(-(136))
 5503 2488 FE01      		movw r30,r28
 5504 248a E757      		subi r30,lo8(-(137))
 5505 248c FF4F      		sbci r31,hi8(-(137))
 5506 248e 6081      		ld r22,Z
 5507 2490 7181      		ldd r23,Z+1
 5508 2492 8281      		ldd r24,Z+2
 5509 2494 9381      		ldd r25,Z+3
 5510 2496 0E94 0000 		call __fixunssfsi
 5511 249a DC01      		movw r26,r24
 5512 249c CB01      		movw r24,r22
 5513 249e F801      		movw r30,r16
 5514 24a0 8083      		st Z,r24
 5515               	.L259:
 5516 24a2 DE01      		movw r26,r28
 5517 24a4 A758      		subi r26,lo8(-(121))
 5518 24a6 BF4F      		sbci r27,hi8(-(121))
 5519 24a8 FE01      		movw r30,r28
 5520 24aa E857      		subi r30,lo8(-(136))
 5521 24ac FF4F      		sbci r31,hi8(-(136))
 5522 24ae 8081      		ld r24,Z
 5523 24b0 8C93      		st X,r24
 5524               	.LBB350:
 5525               	.LBB351:
 5526               	.LM327:
 5527 24b2 FE01      		movw r30,r28
 5528 24b4 E758      		subi r30,lo8(-(121))
 5529 24b6 FF4F      		sbci r31,hi8(-(121))
 5530 24b8 8081      		ld r24,Z
 5531               	/* #APP */
 5532               	 ;  83 "d:/winavr-20100110/lib/gcc/../../avr/include/util/delay_basic.h" 1
 5533 24ba 8A95      		1: dec r24
 5534 24bc 01F4      		brne 1b
 5535               	 ;  0 "" 2
 5536               	/* #NOAPP */
 5537 24be FE01      		movw r30,r28
 5538 24c0 E758      		subi r30,lo8(-(121))
 5539 24c2 FF4F      		sbci r31,hi8(-(121))
 5540 24c4 8083      		st Z,r24
 5541               	.L270:
 5542               	.LBE351:
 5543               	.LBE350:
 5544               	.LBE343:
 5545               	.LBE342:
 5546               	.LM328:
 5547 24c6 E3E3      		ldi r30,lo8(51)
 5548 24c8 F0E0      		ldi r31,hi8(51)
 5549 24ca 8081      		ld r24,Z
 5550 24cc 882F      		mov r24,r24
 5551 24ce 90E0      		ldi r25,lo8(0)
 5552 24d0 8270      		andi r24,lo8(2)
 5553 24d2 9070      		andi r25,hi8(2)
 5554 24d4 0097      		sbiw r24,0
 5555 24d6 01F0      		breq .L271
 5556 24d8 8091 0000 		lds r24,i
 5557 24dc 282F      		mov r18,r24
 5558 24de 30E0      		ldi r19,lo8(0)
 5559 24e0 81E0      		ldi r24,lo8(1)
 5560 24e2 90E0      		ldi r25,hi8(1)
 5561 24e4 022E      		mov r0,r18
 5562 24e6 00C0      		rjmp 2f
 5563 24e8 880F      	1:	lsl r24
 5564 24ea 991F      		rol r25
 5565 24ec 0A94      	2:	dec r0
 5566 24ee 02F4      		brpl 1b
 5567 24f0 982F      		mov r25,r24
 5568 24f2 8091 0000 		lds r24,PS2data7
 5569 24f6 892B      		or r24,r25
 5570 24f8 8093 0000 		sts PS2data7,r24
 5571               	.L271:
 5572               	.LM329:
 5573 24fc A5E3      		ldi r26,lo8(53)
 5574 24fe B0E0      		ldi r27,hi8(53)
 5575 2500 E5E3      		ldi r30,lo8(53)
 5576 2502 F0E0      		ldi r31,hi8(53)
 5577 2504 8081      		ld r24,Z
 5578 2506 8160      		ori r24,lo8(1)
 5579 2508 8C93      		st X,r24
 5580               	.LM330:
 5581 250a 8091 0000 		lds r24,i
 5582 250e 8F5F      		subi r24,lo8(-(1))
 5583 2510 8093 0000 		sts i,r24
 5584               	.L256:
 5585 2514 8091 0000 		lds r24,i
 5586 2518 8830      		cpi r24,lo8(8)
 5587 251a 00F4      		brsh .+2
 5588 251c 00C0      		rjmp .L272
 5589               	.LM331:
 5590 251e A5E3      		ldi r26,lo8(53)
 5591 2520 B0E0      		ldi r27,hi8(53)
 5592 2522 E5E3      		ldi r30,lo8(53)
 5593 2524 F0E0      		ldi r31,hi8(53)
 5594 2526 8081      		ld r24,Z
 5595 2528 8460      		ori r24,lo8(4)
 5596 252a 8C93      		st X,r24
 5597 252c FE01      		movw r30,r28
 5598 252e EB58      		subi r30,lo8(-(117))
 5599 2530 FF4F      		sbci r31,hi8(-(117))
 5600 2532 80E0      		ldi r24,lo8(0x3f800000)
 5601 2534 90E0      		ldi r25,hi8(0x3f800000)
 5602 2536 A0E8      		ldi r26,hlo8(0x3f800000)
 5603 2538 BFE3      		ldi r27,hhi8(0x3f800000)
 5604 253a 8083      		st Z,r24
 5605 253c 9183      		std Z+1,r25
 5606 253e A283      		std Z+2,r26
 5607 2540 B383      		std Z+3,r27
 5608               	.LBB352:
 5609               	.LBB353:
 5610               	.LM332:
 5611 2542 8E01      		movw r16,r28
 5612 2544 0F58      		subi r16,lo8(-(113))
 5613 2546 1F4F      		sbci r17,hi8(-(113))
 5614 2548 FE01      		movw r30,r28
 5615 254a EB58      		subi r30,lo8(-(117))
 5616 254c FF4F      		sbci r31,hi8(-(117))
 5617 254e 6081      		ld r22,Z
 5618 2550 7181      		ldd r23,Z+1
 5619 2552 8281      		ldd r24,Z+2
 5620 2554 9381      		ldd r25,Z+3
 5621 2556 2BEA      		ldi r18,lo8(0x40aaaaab)
 5622 2558 3AEA      		ldi r19,hi8(0x40aaaaab)
 5623 255a 4AEA      		ldi r20,hlo8(0x40aaaaab)
 5624 255c 50E4      		ldi r21,hhi8(0x40aaaaab)
 5625 255e 0E94 0000 		call __mulsf3
 5626 2562 DC01      		movw r26,r24
 5627 2564 CB01      		movw r24,r22
 5628 2566 F801      		movw r30,r16
 5629 2568 8083      		st Z,r24
 5630 256a 9183      		std Z+1,r25
 5631 256c A283      		std Z+2,r26
 5632 256e B383      		std Z+3,r27
 5633               	.LM333:
 5634 2570 FE01      		movw r30,r28
 5635 2572 EF58      		subi r30,lo8(-(113))
 5636 2574 FF4F      		sbci r31,hi8(-(113))
 5637 2576 6081      		ld r22,Z
 5638 2578 7181      		ldd r23,Z+1
 5639 257a 8281      		ldd r24,Z+2
 5640 257c 9381      		ldd r25,Z+3
 5641 257e 20E0      		ldi r18,lo8(0x3f800000)
 5642 2580 30E0      		ldi r19,hi8(0x3f800000)
 5643 2582 40E8      		ldi r20,hlo8(0x3f800000)
 5644 2584 5FE3      		ldi r21,hhi8(0x3f800000)
 5645 2586 0E94 0000 		call __ltsf2
 5646 258a 8823      		tst r24
 5647 258c 04F4      		brge .L458
 5648               	.L394:
 5649               	.LM334:
 5650 258e FE01      		movw r30,r28
 5651 2590 E059      		subi r30,lo8(-(112))
 5652 2592 FF4F      		sbci r31,hi8(-(112))
 5653 2594 81E0      		ldi r24,lo8(1)
 5654 2596 8083      		st Z,r24
 5655 2598 00C0      		rjmp .L275
 5656               	.L458:
 5657               	.LM335:
 5658 259a FE01      		movw r30,r28
 5659 259c EF58      		subi r30,lo8(-(113))
 5660 259e FF4F      		sbci r31,hi8(-(113))
 5661 25a0 6081      		ld r22,Z
 5662 25a2 7181      		ldd r23,Z+1
 5663 25a4 8281      		ldd r24,Z+2
 5664 25a6 9381      		ldd r25,Z+3
 5665 25a8 20E0      		ldi r18,lo8(0x437f0000)
 5666 25aa 30E0      		ldi r19,hi8(0x437f0000)
 5667 25ac 4FE7      		ldi r20,hlo8(0x437f0000)
 5668 25ae 53E4      		ldi r21,hhi8(0x437f0000)
 5669 25b0 0E94 0000 		call __gtsf2
 5670 25b4 1816      		cp __zero_reg__,r24
 5671 25b6 04F0      		brlt .+2
 5672 25b8 00C0      		rjmp .L459
 5673               	.L395:
 5674               	.LM336:
 5675 25ba FE01      		movw r30,r28
 5676 25bc EB58      		subi r30,lo8(-(117))
 5677 25be FF4F      		sbci r31,hi8(-(117))
 5678 25c0 6081      		ld r22,Z
 5679 25c2 7181      		ldd r23,Z+1
 5680 25c4 8281      		ldd r24,Z+2
 5681 25c6 9381      		ldd r25,Z+3
 5682 25c8 20E0      		ldi r18,lo8(0x447a0000)
 5683 25ca 30E0      		ldi r19,hi8(0x447a0000)
 5684 25cc 4AE7      		ldi r20,hlo8(0x447a0000)
 5685 25ce 54E4      		ldi r21,hhi8(0x447a0000)
 5686 25d0 0E94 0000 		call __divsf3
 5687 25d4 DC01      		movw r26,r24
 5688 25d6 CB01      		movw r24,r22
 5689 25d8 FE01      		movw r30,r28
 5690 25da E459      		subi r30,lo8(-(108))
 5691 25dc FF4F      		sbci r31,hi8(-(108))
 5692 25de 8083      		st Z,r24
 5693 25e0 9183      		std Z+1,r25
 5694 25e2 A283      		std Z+2,r26
 5695 25e4 B383      		std Z+3,r27
 5696               	.LBB354:
 5697               	.LBB355:
 5698               	.LM337:
 5699 25e6 8E01      		movw r16,r28
 5700 25e8 0859      		subi r16,lo8(-(104))
 5701 25ea 1F4F      		sbci r17,hi8(-(104))
 5702 25ec FE01      		movw r30,r28
 5703 25ee E459      		subi r30,lo8(-(108))
 5704 25f0 FF4F      		sbci r31,hi8(-(108))
 5705 25f2 6081      		ld r22,Z
 5706 25f4 7181      		ldd r23,Z+1
 5707 25f6 8281      		ldd r24,Z+2
 5708 25f8 9381      		ldd r25,Z+3
 5709 25fa 20E0      		ldi r18,lo8(0x457a0000)
 5710 25fc 30E0      		ldi r19,hi8(0x457a0000)
 5711 25fe 4AE7      		ldi r20,hlo8(0x457a0000)
 5712 2600 55E4      		ldi r21,hhi8(0x457a0000)
 5713 2602 0E94 0000 		call __mulsf3
 5714 2606 DC01      		movw r26,r24
 5715 2608 CB01      		movw r24,r22
 5716 260a F801      		movw r30,r16
 5717 260c 8083      		st Z,r24
 5718 260e 9183      		std Z+1,r25
 5719 2610 A283      		std Z+2,r26
 5720 2612 B383      		std Z+3,r27
 5721               	.LM338:
 5722 2614 FE01      		movw r30,r28
 5723 2616 E859      		subi r30,lo8(-(104))
 5724 2618 FF4F      		sbci r31,hi8(-(104))
 5725 261a 6081      		ld r22,Z
 5726 261c 7181      		ldd r23,Z+1
 5727 261e 8281      		ldd r24,Z+2
 5728 2620 9381      		ldd r25,Z+3
 5729 2622 20E0      		ldi r18,lo8(0x3f800000)
 5730 2624 30E0      		ldi r19,hi8(0x3f800000)
 5731 2626 40E8      		ldi r20,hlo8(0x3f800000)
 5732 2628 5FE3      		ldi r21,hhi8(0x3f800000)
 5733 262a 0E94 0000 		call __ltsf2
 5734 262e 8823      		tst r24
 5735 2630 04F4      		brge .L460
 5736               	.L396:
 5737               	.LM339:
 5738 2632 FE01      		movw r30,r28
 5739 2634 EA59      		subi r30,lo8(-(102))
 5740 2636 FF4F      		sbci r31,hi8(-(102))
 5741 2638 81E0      		ldi r24,lo8(1)
 5742 263a 90E0      		ldi r25,hi8(1)
 5743 263c 9183      		std Z+1,r25
 5744 263e 8083      		st Z,r24
 5745 2640 00C0      		rjmp .L280
 5746               	.L460:
 5747               	.LM340:
 5748 2642 FE01      		movw r30,r28
 5749 2644 E859      		subi r30,lo8(-(104))
 5750 2646 FF4F      		sbci r31,hi8(-(104))
 5751 2648 6081      		ld r22,Z
 5752 264a 7181      		ldd r23,Z+1
 5753 264c 8281      		ldd r24,Z+2
 5754 264e 9381      		ldd r25,Z+3
 5755 2650 20E0      		ldi r18,lo8(0x477fff00)
 5756 2652 3FEF      		ldi r19,hi8(0x477fff00)
 5757 2654 4FE7      		ldi r20,hlo8(0x477fff00)
 5758 2656 57E4      		ldi r21,hhi8(0x477fff00)
 5759 2658 0E94 0000 		call __gtsf2
 5760 265c 1816      		cp __zero_reg__,r24
 5761 265e 04F0      		brlt .+2
 5762 2660 00C0      		rjmp .L461
 5763               	.L397:
 5764               	.LM341:
 5765 2662 FE01      		movw r30,r28
 5766 2664 E459      		subi r30,lo8(-(108))
 5767 2666 FF4F      		sbci r31,hi8(-(108))
 5768 2668 6081      		ld r22,Z
 5769 266a 7181      		ldd r23,Z+1
 5770 266c 8281      		ldd r24,Z+2
 5771 266e 9381      		ldd r25,Z+3
 5772 2670 20E0      		ldi r18,lo8(0x41200000)
 5773 2672 30E0      		ldi r19,hi8(0x41200000)
 5774 2674 40E2      		ldi r20,hlo8(0x41200000)
 5775 2676 51E4      		ldi r21,hhi8(0x41200000)
 5776 2678 0E94 0000 		call __mulsf3
 5777 267c DC01      		movw r26,r24
 5778 267e CB01      		movw r24,r22
 5779 2680 8E01      		movw r16,r28
 5780 2682 0A59      		subi r16,lo8(-(102))
 5781 2684 1F4F      		sbci r17,hi8(-(102))
 5782 2686 BC01      		movw r22,r24
 5783 2688 CD01      		movw r24,r26
 5784 268a 0E94 0000 		call __fixunssfsi
 5785 268e DC01      		movw r26,r24
 5786 2690 CB01      		movw r24,r22
 5787 2692 F801      		movw r30,r16
 5788 2694 9183      		std Z+1,r25
 5789 2696 8083      		st Z,r24
 5790 2698 00C0      		rjmp .L283
 5791               	.L284:
 5792 269a FE01      		movw r30,r28
 5793 269c EC59      		subi r30,lo8(-(100))
 5794 269e FF4F      		sbci r31,hi8(-(100))
 5795 26a0 80E9      		ldi r24,lo8(400)
 5796 26a2 91E0      		ldi r25,hi8(400)
 5797 26a4 9183      		std Z+1,r25
 5798 26a6 8083      		st Z,r24
 5799               	.LBB356:
 5800               	.LBB357:
 5801               	.LM342:
 5802 26a8 FE01      		movw r30,r28
 5803 26aa EC59      		subi r30,lo8(-(100))
 5804 26ac FF4F      		sbci r31,hi8(-(100))
 5805 26ae 8081      		ld r24,Z
 5806 26b0 9181      		ldd r25,Z+1
 5807               	/* #APP */
 5808               	 ;  105 "d:/winavr-20100110/lib/gcc/../../avr/include/util/delay_basic.h" 1
 5809 26b2 0197      		1: sbiw r24,1
 5810 26b4 01F4      		brne 1b
 5811               	 ;  0 "" 2
 5812               	/* #NOAPP */
 5813 26b6 FE01      		movw r30,r28
 5814 26b8 EC59      		subi r30,lo8(-(100))
 5815 26ba FF4F      		sbci r31,hi8(-(100))
 5816 26bc 9183      		std Z+1,r25
 5817 26be 8083      		st Z,r24
 5818               	.LBE357:
 5819               	.LBE356:
 5820               	.LM343:
 5821 26c0 DE01      		movw r26,r28
 5822 26c2 AA59      		subi r26,lo8(-(102))
 5823 26c4 BF4F      		sbci r27,hi8(-(102))
 5824 26c6 FE01      		movw r30,r28
 5825 26c8 EA59      		subi r30,lo8(-(102))
 5826 26ca FF4F      		sbci r31,hi8(-(102))
 5827 26cc 8081      		ld r24,Z
 5828 26ce 9181      		ldd r25,Z+1
 5829 26d0 0197      		sbiw r24,1
 5830 26d2 1196      		adiw r26,1
 5831 26d4 9C93      		st X,r25
 5832 26d6 8E93      		st -X,r24
 5833               	.L283:
 5834               	.LM344:
 5835 26d8 FE01      		movw r30,r28
 5836 26da EA59      		subi r30,lo8(-(102))
 5837 26dc FF4F      		sbci r31,hi8(-(102))
 5838 26de 8081      		ld r24,Z
 5839 26e0 9181      		ldd r25,Z+1
 5840 26e2 0097      		sbiw r24,0
 5841 26e4 01F4      		brne .L284
 5842 26e6 00C0      		rjmp .L286
 5843               	.L461:
 5844               	.LM345:
 5845 26e8 8E01      		movw r16,r28
 5846 26ea 0A59      		subi r16,lo8(-(102))
 5847 26ec 1F4F      		sbci r17,hi8(-(102))
 5848 26ee FE01      		movw r30,r28
 5849 26f0 E859      		subi r30,lo8(-(104))
 5850 26f2 FF4F      		sbci r31,hi8(-(104))
 5851 26f4 6081      		ld r22,Z
 5852 26f6 7181      		ldd r23,Z+1
 5853 26f8 8281      		ldd r24,Z+2
 5854 26fa 9381      		ldd r25,Z+3
 5855 26fc 0E94 0000 		call __fixunssfsi
 5856 2700 DC01      		movw r26,r24
 5857 2702 CB01      		movw r24,r22
 5858 2704 F801      		movw r30,r16
 5859 2706 9183      		std Z+1,r25
 5860 2708 8083      		st Z,r24
 5861               	.L280:
 5862 270a DE01      		movw r26,r28
 5863 270c AE59      		subi r26,lo8(-(98))
 5864 270e BF4F      		sbci r27,hi8(-(98))
 5865 2710 FE01      		movw r30,r28
 5866 2712 EA59      		subi r30,lo8(-(102))
 5867 2714 FF4F      		sbci r31,hi8(-(102))
 5868 2716 8081      		ld r24,Z
 5869 2718 9181      		ldd r25,Z+1
 5870 271a 1196      		adiw r26,1
 5871 271c 9C93      		st X,r25
 5872 271e 8E93      		st -X,r24
 5873               	.LBB358:
 5874               	.LBB359:
 5875               	.LM346:
 5876 2720 FE01      		movw r30,r28
 5877 2722 EE59      		subi r30,lo8(-(98))
 5878 2724 FF4F      		sbci r31,hi8(-(98))
 5879 2726 8081      		ld r24,Z
 5880 2728 9181      		ldd r25,Z+1
 5881               	/* #APP */
 5882               	 ;  105 "d:/winavr-20100110/lib/gcc/../../avr/include/util/delay_basic.h" 1
 5883 272a 0197      		1: sbiw r24,1
 5884 272c 01F4      		brne 1b
 5885               	 ;  0 "" 2
 5886               	/* #NOAPP */
 5887 272e FE01      		movw r30,r28
 5888 2730 EE59      		subi r30,lo8(-(98))
 5889 2732 FF4F      		sbci r31,hi8(-(98))
 5890 2734 9183      		std Z+1,r25
 5891 2736 8083      		st Z,r24
 5892 2738 00C0      		rjmp .L286
 5893               	.L459:
 5894               	.LBE359:
 5895               	.LBE358:
 5896               	.LBE355:
 5897               	.LBE354:
 5898               	.LM347:
 5899 273a 8E01      		movw r16,r28
 5900 273c 0059      		subi r16,lo8(-(112))
 5901 273e 1F4F      		sbci r17,hi8(-(112))
 5902 2740 FE01      		movw r30,r28
 5903 2742 EF58      		subi r30,lo8(-(113))
 5904 2744 FF4F      		sbci r31,hi8(-(113))
 5905 2746 6081      		ld r22,Z
 5906 2748 7181      		ldd r23,Z+1
 5907 274a 8281      		ldd r24,Z+2
 5908 274c 9381      		ldd r25,Z+3
 5909 274e 0E94 0000 		call __fixunssfsi
 5910 2752 DC01      		movw r26,r24
 5911 2754 CB01      		movw r24,r22
 5912 2756 F801      		movw r30,r16
 5913 2758 8083      		st Z,r24
 5914               	.L275:
 5915 275a DE01      		movw r26,r28
 5916 275c AF59      		subi r26,lo8(-(97))
 5917 275e BF4F      		sbci r27,hi8(-(97))
 5918 2760 FE01      		movw r30,r28
 5919 2762 E059      		subi r30,lo8(-(112))
 5920 2764 FF4F      		sbci r31,hi8(-(112))
 5921 2766 8081      		ld r24,Z
 5922 2768 8C93      		st X,r24
 5923               	.LBB360:
 5924               	.LBB361:
 5925               	.LM348:
 5926 276a FE01      		movw r30,r28
 5927 276c EF59      		subi r30,lo8(-(97))
 5928 276e FF4F      		sbci r31,hi8(-(97))
 5929 2770 8081      		ld r24,Z
 5930               	/* #APP */
 5931               	 ;  83 "d:/winavr-20100110/lib/gcc/../../avr/include/util/delay_basic.h" 1
 5932 2772 8A95      		1: dec r24
 5933 2774 01F4      		brne 1b
 5934               	 ;  0 "" 2
 5935               	/* #NOAPP */
 5936 2776 FE01      		movw r30,r28
 5937 2778 EF59      		subi r30,lo8(-(97))
 5938 277a FF4F      		sbci r31,hi8(-(97))
 5939 277c 8083      		st Z,r24
 5940               	.L286:
 5941               	.LBE361:
 5942               	.LBE360:
 5943               	.LBE353:
 5944               	.LBE352:
 5945               	.LM349:
 5946 277e 1092 0000 		sts PS2data8,__zero_reg__
 5947               	.LM350:
 5948 2782 1092 0000 		sts i,__zero_reg__
 5949 2786 00C0      		rjmp .L287
 5950               	.L303:
 5951               	.LM351:
 5952 2788 A5E3      		ldi r26,lo8(53)
 5953 278a B0E0      		ldi r27,hi8(53)
 5954 278c E5E3      		ldi r30,lo8(53)
 5955 278e F0E0      		ldi r31,hi8(53)
 5956 2790 8081      		ld r24,Z
 5957 2792 8B7F      		andi r24,lo8(-5)
 5958 2794 8C93      		st X,r24
 5959               	.LM352:
 5960 2796 A5E3      		ldi r26,lo8(53)
 5961 2798 B0E0      		ldi r27,hi8(53)
 5962 279a E5E3      		ldi r30,lo8(53)
 5963 279c F0E0      		ldi r31,hi8(53)
 5964 279e 8081      		ld r24,Z
 5965 27a0 8E7F      		andi r24,lo8(-2)
 5966 27a2 8C93      		st X,r24
 5967 27a4 FE01      		movw r30,r28
 5968 27a6 E35A      		subi r30,lo8(-(93))
 5969 27a8 FF4F      		sbci r31,hi8(-(93))
 5970 27aa 80E0      		ldi r24,lo8(0x3f800000)
 5971 27ac 90E0      		ldi r25,hi8(0x3f800000)
 5972 27ae A0E8      		ldi r26,hlo8(0x3f800000)
 5973 27b0 BFE3      		ldi r27,hhi8(0x3f800000)
 5974 27b2 8083      		st Z,r24
 5975 27b4 9183      		std Z+1,r25
 5976 27b6 A283      		std Z+2,r26
 5977 27b8 B383      		std Z+3,r27
 5978               	.LBB362:
 5979               	.LBB363:
 5980               	.LM353:
 5981 27ba 8E01      		movw r16,r28
 5982 27bc 075A      		subi r16,lo8(-(89))
 5983 27be 1F4F      		sbci r17,hi8(-(89))
 5984 27c0 FE01      		movw r30,r28
 5985 27c2 E35A      		subi r30,lo8(-(93))
 5986 27c4 FF4F      		sbci r31,hi8(-(93))
 5987 27c6 6081      		ld r22,Z
 5988 27c8 7181      		ldd r23,Z+1
 5989 27ca 8281      		ldd r24,Z+2
 5990 27cc 9381      		ldd r25,Z+3
 5991 27ce 2BEA      		ldi r18,lo8(0x40aaaaab)
 5992 27d0 3AEA      		ldi r19,hi8(0x40aaaaab)
 5993 27d2 4AEA      		ldi r20,hlo8(0x40aaaaab)
 5994 27d4 50E4      		ldi r21,hhi8(0x40aaaaab)
 5995 27d6 0E94 0000 		call __mulsf3
 5996 27da DC01      		movw r26,r24
 5997 27dc CB01      		movw r24,r22
 5998 27de F801      		movw r30,r16
 5999 27e0 8083      		st Z,r24
 6000 27e2 9183      		std Z+1,r25
 6001 27e4 A283      		std Z+2,r26
 6002 27e6 B383      		std Z+3,r27
 6003               	.LM354:
 6004 27e8 FE01      		movw r30,r28
 6005 27ea E75A      		subi r30,lo8(-(89))
 6006 27ec FF4F      		sbci r31,hi8(-(89))
 6007 27ee 6081      		ld r22,Z
 6008 27f0 7181      		ldd r23,Z+1
 6009 27f2 8281      		ldd r24,Z+2
 6010 27f4 9381      		ldd r25,Z+3
 6011 27f6 20E0      		ldi r18,lo8(0x3f800000)
 6012 27f8 30E0      		ldi r19,hi8(0x3f800000)
 6013 27fa 40E8      		ldi r20,hlo8(0x3f800000)
 6014 27fc 5FE3      		ldi r21,hhi8(0x3f800000)
 6015 27fe 0E94 0000 		call __ltsf2
 6016 2802 8823      		tst r24
 6017 2804 04F4      		brge .L462
 6018               	.L398:
 6019               	.LM355:
 6020 2806 FE01      		movw r30,r28
 6021 2808 E85A      		subi r30,lo8(-(88))
 6022 280a FF4F      		sbci r31,hi8(-(88))
 6023 280c 81E0      		ldi r24,lo8(1)
 6024 280e 8083      		st Z,r24
 6025 2810 00C0      		rjmp .L290
 6026               	.L462:
 6027               	.LM356:
 6028 2812 FE01      		movw r30,r28
 6029 2814 E75A      		subi r30,lo8(-(89))
 6030 2816 FF4F      		sbci r31,hi8(-(89))
 6031 2818 6081      		ld r22,Z
 6032 281a 7181      		ldd r23,Z+1
 6033 281c 8281      		ldd r24,Z+2
 6034 281e 9381      		ldd r25,Z+3
 6035 2820 20E0      		ldi r18,lo8(0x437f0000)
 6036 2822 30E0      		ldi r19,hi8(0x437f0000)
 6037 2824 4FE7      		ldi r20,hlo8(0x437f0000)
 6038 2826 53E4      		ldi r21,hhi8(0x437f0000)
 6039 2828 0E94 0000 		call __gtsf2
 6040 282c 1816      		cp __zero_reg__,r24
 6041 282e 04F0      		brlt .+2
 6042 2830 00C0      		rjmp .L463
 6043               	.L399:
 6044               	.LM357:
 6045 2832 FE01      		movw r30,r28
 6046 2834 E35A      		subi r30,lo8(-(93))
 6047 2836 FF4F      		sbci r31,hi8(-(93))
 6048 2838 6081      		ld r22,Z
 6049 283a 7181      		ldd r23,Z+1
 6050 283c 8281      		ldd r24,Z+2
 6051 283e 9381      		ldd r25,Z+3
 6052 2840 20E0      		ldi r18,lo8(0x447a0000)
 6053 2842 30E0      		ldi r19,hi8(0x447a0000)
 6054 2844 4AE7      		ldi r20,hlo8(0x447a0000)
 6055 2846 54E4      		ldi r21,hhi8(0x447a0000)
 6056 2848 0E94 0000 		call __divsf3
 6057 284c DC01      		movw r26,r24
 6058 284e CB01      		movw r24,r22
 6059 2850 FE01      		movw r30,r28
 6060 2852 EC5A      		subi r30,lo8(-(84))
 6061 2854 FF4F      		sbci r31,hi8(-(84))
 6062 2856 8083      		st Z,r24
 6063 2858 9183      		std Z+1,r25
 6064 285a A283      		std Z+2,r26
 6065 285c B383      		std Z+3,r27
 6066               	.LBB364:
 6067               	.LBB365:
 6068               	.LM358:
 6069 285e 8E01      		movw r16,r28
 6070 2860 005B      		subi r16,lo8(-(80))
 6071 2862 1F4F      		sbci r17,hi8(-(80))
 6072 2864 FE01      		movw r30,r28
 6073 2866 EC5A      		subi r30,lo8(-(84))
 6074 2868 FF4F      		sbci r31,hi8(-(84))
 6075 286a 6081      		ld r22,Z
 6076 286c 7181      		ldd r23,Z+1
 6077 286e 8281      		ldd r24,Z+2
 6078 2870 9381      		ldd r25,Z+3
 6079 2872 20E0      		ldi r18,lo8(0x457a0000)
 6080 2874 30E0      		ldi r19,hi8(0x457a0000)
 6081 2876 4AE7      		ldi r20,hlo8(0x457a0000)
 6082 2878 55E4      		ldi r21,hhi8(0x457a0000)
 6083 287a 0E94 0000 		call __mulsf3
 6084 287e DC01      		movw r26,r24
 6085 2880 CB01      		movw r24,r22
 6086 2882 F801      		movw r30,r16
 6087 2884 8083      		st Z,r24
 6088 2886 9183      		std Z+1,r25
 6089 2888 A283      		std Z+2,r26
 6090 288a B383      		std Z+3,r27
 6091               	.LM359:
 6092 288c FE01      		movw r30,r28
 6093 288e E05B      		subi r30,lo8(-(80))
 6094 2890 FF4F      		sbci r31,hi8(-(80))
 6095 2892 6081      		ld r22,Z
 6096 2894 7181      		ldd r23,Z+1
 6097 2896 8281      		ldd r24,Z+2
 6098 2898 9381      		ldd r25,Z+3
 6099 289a 20E0      		ldi r18,lo8(0x3f800000)
 6100 289c 30E0      		ldi r19,hi8(0x3f800000)
 6101 289e 40E8      		ldi r20,hlo8(0x3f800000)
 6102 28a0 5FE3      		ldi r21,hhi8(0x3f800000)
 6103 28a2 0E94 0000 		call __ltsf2
 6104 28a6 8823      		tst r24
 6105 28a8 04F4      		brge .L464
 6106               	.L400:
 6107               	.LM360:
 6108 28aa FE01      		movw r30,r28
 6109 28ac E25B      		subi r30,lo8(-(78))
 6110 28ae FF4F      		sbci r31,hi8(-(78))
 6111 28b0 81E0      		ldi r24,lo8(1)
 6112 28b2 90E0      		ldi r25,hi8(1)
 6113 28b4 9183      		std Z+1,r25
 6114 28b6 8083      		st Z,r24
 6115 28b8 00C0      		rjmp .L295
 6116               	.L464:
 6117               	.LM361:
 6118 28ba FE01      		movw r30,r28
 6119 28bc E05B      		subi r30,lo8(-(80))
 6120 28be FF4F      		sbci r31,hi8(-(80))
 6121 28c0 6081      		ld r22,Z
 6122 28c2 7181      		ldd r23,Z+1
 6123 28c4 8281      		ldd r24,Z+2
 6124 28c6 9381      		ldd r25,Z+3
 6125 28c8 20E0      		ldi r18,lo8(0x477fff00)
 6126 28ca 3FEF      		ldi r19,hi8(0x477fff00)
 6127 28cc 4FE7      		ldi r20,hlo8(0x477fff00)
 6128 28ce 57E4      		ldi r21,hhi8(0x477fff00)
 6129 28d0 0E94 0000 		call __gtsf2
 6130 28d4 1816      		cp __zero_reg__,r24
 6131 28d6 04F0      		brlt .+2
 6132 28d8 00C0      		rjmp .L465
 6133               	.L401:
 6134               	.LM362:
 6135 28da FE01      		movw r30,r28
 6136 28dc EC5A      		subi r30,lo8(-(84))
 6137 28de FF4F      		sbci r31,hi8(-(84))
 6138 28e0 6081      		ld r22,Z
 6139 28e2 7181      		ldd r23,Z+1
 6140 28e4 8281      		ldd r24,Z+2
 6141 28e6 9381      		ldd r25,Z+3
 6142 28e8 20E0      		ldi r18,lo8(0x41200000)
 6143 28ea 30E0      		ldi r19,hi8(0x41200000)
 6144 28ec 40E2      		ldi r20,hlo8(0x41200000)
 6145 28ee 51E4      		ldi r21,hhi8(0x41200000)
 6146 28f0 0E94 0000 		call __mulsf3
 6147 28f4 DC01      		movw r26,r24
 6148 28f6 CB01      		movw r24,r22
 6149 28f8 8E01      		movw r16,r28
 6150 28fa 025B      		subi r16,lo8(-(78))
 6151 28fc 1F4F      		sbci r17,hi8(-(78))
 6152 28fe BC01      		movw r22,r24
 6153 2900 CD01      		movw r24,r26
 6154 2902 0E94 0000 		call __fixunssfsi
 6155 2906 DC01      		movw r26,r24
 6156 2908 CB01      		movw r24,r22
 6157 290a F801      		movw r30,r16
 6158 290c 9183      		std Z+1,r25
 6159 290e 8083      		st Z,r24
 6160 2910 00C0      		rjmp .L298
 6161               	.L299:
 6162 2912 FE01      		movw r30,r28
 6163 2914 E45B      		subi r30,lo8(-(76))
 6164 2916 FF4F      		sbci r31,hi8(-(76))
 6165 2918 80E9      		ldi r24,lo8(400)
 6166 291a 91E0      		ldi r25,hi8(400)
 6167 291c 9183      		std Z+1,r25
 6168 291e 8083      		st Z,r24
 6169               	.LBB366:
 6170               	.LBB367:
 6171               	.LM363:
 6172 2920 FE01      		movw r30,r28
 6173 2922 E45B      		subi r30,lo8(-(76))
 6174 2924 FF4F      		sbci r31,hi8(-(76))
 6175 2926 8081      		ld r24,Z
 6176 2928 9181      		ldd r25,Z+1
 6177               	/* #APP */
 6178               	 ;  105 "d:/winavr-20100110/lib/gcc/../../avr/include/util/delay_basic.h" 1
 6179 292a 0197      		1: sbiw r24,1
 6180 292c 01F4      		brne 1b
 6181               	 ;  0 "" 2
 6182               	/* #NOAPP */
 6183 292e FE01      		movw r30,r28
 6184 2930 E45B      		subi r30,lo8(-(76))
 6185 2932 FF4F      		sbci r31,hi8(-(76))
 6186 2934 9183      		std Z+1,r25
 6187 2936 8083      		st Z,r24
 6188               	.LBE367:
 6189               	.LBE366:
 6190               	.LM364:
 6191 2938 DE01      		movw r26,r28
 6192 293a A25B      		subi r26,lo8(-(78))
 6193 293c BF4F      		sbci r27,hi8(-(78))
 6194 293e FE01      		movw r30,r28
 6195 2940 E25B      		subi r30,lo8(-(78))
 6196 2942 FF4F      		sbci r31,hi8(-(78))
 6197 2944 8081      		ld r24,Z
 6198 2946 9181      		ldd r25,Z+1
 6199 2948 0197      		sbiw r24,1
 6200 294a 1196      		adiw r26,1
 6201 294c 9C93      		st X,r25
 6202 294e 8E93      		st -X,r24
 6203               	.L298:
 6204               	.LM365:
 6205 2950 FE01      		movw r30,r28
 6206 2952 E25B      		subi r30,lo8(-(78))
 6207 2954 FF4F      		sbci r31,hi8(-(78))
 6208 2956 8081      		ld r24,Z
 6209 2958 9181      		ldd r25,Z+1
 6210 295a 0097      		sbiw r24,0
 6211 295c 01F4      		brne .L299
 6212 295e 00C0      		rjmp .L301
 6213               	.L465:
 6214               	.LM366:
 6215 2960 8E01      		movw r16,r28
 6216 2962 025B      		subi r16,lo8(-(78))
 6217 2964 1F4F      		sbci r17,hi8(-(78))
 6218 2966 FE01      		movw r30,r28
 6219 2968 E05B      		subi r30,lo8(-(80))
 6220 296a FF4F      		sbci r31,hi8(-(80))
 6221 296c 6081      		ld r22,Z
 6222 296e 7181      		ldd r23,Z+1
 6223 2970 8281      		ldd r24,Z+2
 6224 2972 9381      		ldd r25,Z+3
 6225 2974 0E94 0000 		call __fixunssfsi
 6226 2978 DC01      		movw r26,r24
 6227 297a CB01      		movw r24,r22
 6228 297c F801      		movw r30,r16
 6229 297e 9183      		std Z+1,r25
 6230 2980 8083      		st Z,r24
 6231               	.L295:
 6232 2982 DE01      		movw r26,r28
 6233 2984 A65B      		subi r26,lo8(-(74))
 6234 2986 BF4F      		sbci r27,hi8(-(74))
 6235 2988 FE01      		movw r30,r28
 6236 298a E25B      		subi r30,lo8(-(78))
 6237 298c FF4F      		sbci r31,hi8(-(78))
 6238 298e 8081      		ld r24,Z
 6239 2990 9181      		ldd r25,Z+1
 6240 2992 1196      		adiw r26,1
 6241 2994 9C93      		st X,r25
 6242 2996 8E93      		st -X,r24
 6243               	.LBB368:
 6244               	.LBB369:
 6245               	.LM367:
 6246 2998 FE01      		movw r30,r28
 6247 299a E65B      		subi r30,lo8(-(74))
 6248 299c FF4F      		sbci r31,hi8(-(74))
 6249 299e 8081      		ld r24,Z
 6250 29a0 9181      		ldd r25,Z+1
 6251               	/* #APP */
 6252               	 ;  105 "d:/winavr-20100110/lib/gcc/../../avr/include/util/delay_basic.h" 1
 6253 29a2 0197      		1: sbiw r24,1
 6254 29a4 01F4      		brne 1b
 6255               	 ;  0 "" 2
 6256               	/* #NOAPP */
 6257 29a6 FE01      		movw r30,r28
 6258 29a8 E65B      		subi r30,lo8(-(74))
 6259 29aa FF4F      		sbci r31,hi8(-(74))
 6260 29ac 9183      		std Z+1,r25
 6261 29ae 8083      		st Z,r24
 6262 29b0 00C0      		rjmp .L301
 6263               	.L463:
 6264               	.LBE369:
 6265               	.LBE368:
 6266               	.LBE365:
 6267               	.LBE364:
 6268               	.LM368:
 6269 29b2 8E01      		movw r16,r28
 6270 29b4 085A      		subi r16,lo8(-(88))
 6271 29b6 1F4F      		sbci r17,hi8(-(88))
 6272 29b8 FE01      		movw r30,r28
 6273 29ba E75A      		subi r30,lo8(-(89))
 6274 29bc FF4F      		sbci r31,hi8(-(89))
 6275 29be 6081      		ld r22,Z
 6276 29c0 7181      		ldd r23,Z+1
 6277 29c2 8281      		ldd r24,Z+2
 6278 29c4 9381      		ldd r25,Z+3
 6279 29c6 0E94 0000 		call __fixunssfsi
 6280 29ca DC01      		movw r26,r24
 6281 29cc CB01      		movw r24,r22
 6282 29ce F801      		movw r30,r16
 6283 29d0 8083      		st Z,r24
 6284               	.L290:
 6285 29d2 DE01      		movw r26,r28
 6286 29d4 A75B      		subi r26,lo8(-(73))
 6287 29d6 BF4F      		sbci r27,hi8(-(73))
 6288 29d8 FE01      		movw r30,r28
 6289 29da E85A      		subi r30,lo8(-(88))
 6290 29dc FF4F      		sbci r31,hi8(-(88))
 6291 29de 8081      		ld r24,Z
 6292 29e0 8C93      		st X,r24
 6293               	.LBB370:
 6294               	.LBB371:
 6295               	.LM369:
 6296 29e2 FE01      		movw r30,r28
 6297 29e4 E75B      		subi r30,lo8(-(73))
 6298 29e6 FF4F      		sbci r31,hi8(-(73))
 6299 29e8 8081      		ld r24,Z
 6300               	/* #APP */
 6301               	 ;  83 "d:/winavr-20100110/lib/gcc/../../avr/include/util/delay_basic.h" 1
 6302 29ea 8A95      		1: dec r24
 6303 29ec 01F4      		brne 1b
 6304               	 ;  0 "" 2
 6305               	/* #NOAPP */
 6306 29ee FE01      		movw r30,r28
 6307 29f0 E75B      		subi r30,lo8(-(73))
 6308 29f2 FF4F      		sbci r31,hi8(-(73))
 6309 29f4 8083      		st Z,r24
 6310               	.L301:
 6311               	.LBE371:
 6312               	.LBE370:
 6313               	.LBE363:
 6314               	.LBE362:
 6315               	.LM370:
 6316 29f6 E3E3      		ldi r30,lo8(51)
 6317 29f8 F0E0      		ldi r31,hi8(51)
 6318 29fa 8081      		ld r24,Z
 6319 29fc 882F      		mov r24,r24
 6320 29fe 90E0      		ldi r25,lo8(0)
 6321 2a00 8270      		andi r24,lo8(2)
 6322 2a02 9070      		andi r25,hi8(2)
 6323 2a04 0097      		sbiw r24,0
 6324 2a06 01F0      		breq .L302
 6325 2a08 8091 0000 		lds r24,i
 6326 2a0c 282F      		mov r18,r24
 6327 2a0e 30E0      		ldi r19,lo8(0)
 6328 2a10 81E0      		ldi r24,lo8(1)
 6329 2a12 90E0      		ldi r25,hi8(1)
 6330 2a14 022E      		mov r0,r18
 6331 2a16 00C0      		rjmp 2f
 6332 2a18 880F      	1:	lsl r24
 6333 2a1a 991F      		rol r25
 6334 2a1c 0A94      	2:	dec r0
 6335 2a1e 02F4      		brpl 1b
 6336 2a20 982F      		mov r25,r24
 6337 2a22 8091 0000 		lds r24,PS2data8
 6338 2a26 892B      		or r24,r25
 6339 2a28 8093 0000 		sts PS2data8,r24
 6340               	.L302:
 6341               	.LM371:
 6342 2a2c A5E3      		ldi r26,lo8(53)
 6343 2a2e B0E0      		ldi r27,hi8(53)
 6344 2a30 E5E3      		ldi r30,lo8(53)
 6345 2a32 F0E0      		ldi r31,hi8(53)
 6346 2a34 8081      		ld r24,Z
 6347 2a36 8160      		ori r24,lo8(1)
 6348 2a38 8C93      		st X,r24
 6349               	.LM372:
 6350 2a3a 8091 0000 		lds r24,i
 6351 2a3e 8F5F      		subi r24,lo8(-(1))
 6352 2a40 8093 0000 		sts i,r24
 6353               	.L287:
 6354 2a44 8091 0000 		lds r24,i
 6355 2a48 8830      		cpi r24,lo8(8)
 6356 2a4a 00F4      		brsh .+2
 6357 2a4c 00C0      		rjmp .L303
 6358               	.LM373:
 6359 2a4e A5E3      		ldi r26,lo8(53)
 6360 2a50 B0E0      		ldi r27,hi8(53)
 6361 2a52 E5E3      		ldi r30,lo8(53)
 6362 2a54 F0E0      		ldi r31,hi8(53)
 6363 2a56 8081      		ld r24,Z
 6364 2a58 8460      		ori r24,lo8(4)
 6365 2a5a 8C93      		st X,r24
 6366 2a5c FE01      		movw r30,r28
 6367 2a5e EB5B      		subi r30,lo8(-(69))
 6368 2a60 FF4F      		sbci r31,hi8(-(69))
 6369 2a62 80E0      		ldi r24,lo8(0x3f800000)
 6370 2a64 90E0      		ldi r25,hi8(0x3f800000)
 6371 2a66 A0E8      		ldi r26,hlo8(0x3f800000)
 6372 2a68 BFE3      		ldi r27,hhi8(0x3f800000)
 6373 2a6a 8083      		st Z,r24
 6374 2a6c 9183      		std Z+1,r25
 6375 2a6e A283      		std Z+2,r26
 6376 2a70 B383      		std Z+3,r27
 6377               	.LBB372:
 6378               	.LBB373:
 6379               	.LM374:
 6380 2a72 8E01      		movw r16,r28
 6381 2a74 0F5B      		subi r16,lo8(-(65))
 6382 2a76 1F4F      		sbci r17,hi8(-(65))
 6383 2a78 FE01      		movw r30,r28
 6384 2a7a EB5B      		subi r30,lo8(-(69))
 6385 2a7c FF4F      		sbci r31,hi8(-(69))
 6386 2a7e 6081      		ld r22,Z
 6387 2a80 7181      		ldd r23,Z+1
 6388 2a82 8281      		ldd r24,Z+2
 6389 2a84 9381      		ldd r25,Z+3
 6390 2a86 2BEA      		ldi r18,lo8(0x40aaaaab)
 6391 2a88 3AEA      		ldi r19,hi8(0x40aaaaab)
 6392 2a8a 4AEA      		ldi r20,hlo8(0x40aaaaab)
 6393 2a8c 50E4      		ldi r21,hhi8(0x40aaaaab)
 6394 2a8e 0E94 0000 		call __mulsf3
 6395 2a92 DC01      		movw r26,r24
 6396 2a94 CB01      		movw r24,r22
 6397 2a96 F801      		movw r30,r16
 6398 2a98 8083      		st Z,r24
 6399 2a9a 9183      		std Z+1,r25
 6400 2a9c A283      		std Z+2,r26
 6401 2a9e B383      		std Z+3,r27
 6402               	.LM375:
 6403 2aa0 FE01      		movw r30,r28
 6404 2aa2 EF5B      		subi r30,lo8(-(65))
 6405 2aa4 FF4F      		sbci r31,hi8(-(65))
 6406 2aa6 6081      		ld r22,Z
 6407 2aa8 7181      		ldd r23,Z+1
 6408 2aaa 8281      		ldd r24,Z+2
 6409 2aac 9381      		ldd r25,Z+3
 6410 2aae 20E0      		ldi r18,lo8(0x3f800000)
 6411 2ab0 30E0      		ldi r19,hi8(0x3f800000)
 6412 2ab2 40E8      		ldi r20,hlo8(0x3f800000)
 6413 2ab4 5FE3      		ldi r21,hhi8(0x3f800000)
 6414 2ab6 0E94 0000 		call __ltsf2
 6415 2aba 8823      		tst r24
 6416 2abc 04F4      		brge .L466
 6417               	.L402:
 6418               	.LM376:
 6419 2abe 81E0      		ldi r24,lo8(1)
 6420 2ac0 FE01      		movw r30,r28
 6421 2ac2 E05C      		subi r30,lo8(-(64))
 6422 2ac4 FF4F      		sbci r31,hi8(-(64))
 6423 2ac6 8083      		st Z,r24
 6424 2ac8 00C0      		rjmp .L306
 6425               	.L466:
 6426               	.LM377:
 6427 2aca FE01      		movw r30,r28
 6428 2acc EF5B      		subi r30,lo8(-(65))
 6429 2ace FF4F      		sbci r31,hi8(-(65))
 6430 2ad0 6081      		ld r22,Z
 6431 2ad2 7181      		ldd r23,Z+1
 6432 2ad4 8281      		ldd r24,Z+2
 6433 2ad6 9381      		ldd r25,Z+3
 6434 2ad8 20E0      		ldi r18,lo8(0x437f0000)
 6435 2ada 30E0      		ldi r19,hi8(0x437f0000)
 6436 2adc 4FE7      		ldi r20,hlo8(0x437f0000)
 6437 2ade 53E4      		ldi r21,hhi8(0x437f0000)
 6438 2ae0 0E94 0000 		call __gtsf2
 6439 2ae4 1816      		cp __zero_reg__,r24
 6440 2ae6 04F0      		brlt .+2
 6441 2ae8 00C0      		rjmp .L467
 6442               	.L403:
 6443               	.LM378:
 6444 2aea FE01      		movw r30,r28
 6445 2aec EB5B      		subi r30,lo8(-(69))
 6446 2aee FF4F      		sbci r31,hi8(-(69))
 6447 2af0 6081      		ld r22,Z
 6448 2af2 7181      		ldd r23,Z+1
 6449 2af4 8281      		ldd r24,Z+2
 6450 2af6 9381      		ldd r25,Z+3
 6451 2af8 20E0      		ldi r18,lo8(0x447a0000)
 6452 2afa 30E0      		ldi r19,hi8(0x447a0000)
 6453 2afc 4AE7      		ldi r20,hlo8(0x447a0000)
 6454 2afe 54E4      		ldi r21,hhi8(0x447a0000)
 6455 2b00 0E94 0000 		call __divsf3
 6456 2b04 DC01      		movw r26,r24
 6457 2b06 CB01      		movw r24,r22
 6458 2b08 8CAF      		std Y+60,r24
 6459 2b0a 9DAF      		std Y+61,r25
 6460 2b0c AEAF      		std Y+62,r26
 6461 2b0e BFAF      		std Y+63,r27
 6462               	.LBB374:
 6463               	.LBB375:
 6464               	.LM379:
 6465 2b10 6CAD      		ldd r22,Y+60
 6466 2b12 7DAD      		ldd r23,Y+61
 6467 2b14 8EAD      		ldd r24,Y+62
 6468 2b16 9FAD      		ldd r25,Y+63
 6469 2b18 20E0      		ldi r18,lo8(0x457a0000)
 6470 2b1a 30E0      		ldi r19,hi8(0x457a0000)
 6471 2b1c 4AE7      		ldi r20,hlo8(0x457a0000)
 6472 2b1e 55E4      		ldi r21,hhi8(0x457a0000)
 6473 2b20 0E94 0000 		call __mulsf3
 6474 2b24 DC01      		movw r26,r24
 6475 2b26 CB01      		movw r24,r22
 6476 2b28 88AF      		std Y+56,r24
 6477 2b2a 99AF      		std Y+57,r25
 6478 2b2c AAAF      		std Y+58,r26
 6479 2b2e BBAF      		std Y+59,r27
 6480               	.LM380:
 6481 2b30 68AD      		ldd r22,Y+56
 6482 2b32 79AD      		ldd r23,Y+57
 6483 2b34 8AAD      		ldd r24,Y+58
 6484 2b36 9BAD      		ldd r25,Y+59
 6485 2b38 20E0      		ldi r18,lo8(0x3f800000)
 6486 2b3a 30E0      		ldi r19,hi8(0x3f800000)
 6487 2b3c 40E8      		ldi r20,hlo8(0x3f800000)
 6488 2b3e 5FE3      		ldi r21,hhi8(0x3f800000)
 6489 2b40 0E94 0000 		call __ltsf2
 6490 2b44 8823      		tst r24
 6491 2b46 04F4      		brge .L468
 6492               	.L404:
 6493               	.LM381:
 6494 2b48 81E0      		ldi r24,lo8(1)
 6495 2b4a 90E0      		ldi r25,hi8(1)
 6496 2b4c 9FAB      		std Y+55,r25
 6497 2b4e 8EAB      		std Y+54,r24
 6498 2b50 00C0      		rjmp .L311
 6499               	.L468:
 6500               	.LM382:
 6501 2b52 68AD      		ldd r22,Y+56
 6502 2b54 79AD      		ldd r23,Y+57
 6503 2b56 8AAD      		ldd r24,Y+58
 6504 2b58 9BAD      		ldd r25,Y+59
 6505 2b5a 20E0      		ldi r18,lo8(0x477fff00)
 6506 2b5c 3FEF      		ldi r19,hi8(0x477fff00)
 6507 2b5e 4FE7      		ldi r20,hlo8(0x477fff00)
 6508 2b60 57E4      		ldi r21,hhi8(0x477fff00)
 6509 2b62 0E94 0000 		call __gtsf2
 6510 2b66 1816      		cp __zero_reg__,r24
 6511 2b68 04F4      		brge .L469
 6512               	.L405:
 6513               	.LM383:
 6514 2b6a 6CAD      		ldd r22,Y+60
 6515 2b6c 7DAD      		ldd r23,Y+61
 6516 2b6e 8EAD      		ldd r24,Y+62
 6517 2b70 9FAD      		ldd r25,Y+63
 6518 2b72 20E0      		ldi r18,lo8(0x41200000)
 6519 2b74 30E0      		ldi r19,hi8(0x41200000)
 6520 2b76 40E2      		ldi r20,hlo8(0x41200000)
 6521 2b78 51E4      		ldi r21,hhi8(0x41200000)
 6522 2b7a 0E94 0000 		call __mulsf3
 6523 2b7e DC01      		movw r26,r24
 6524 2b80 CB01      		movw r24,r22
 6525 2b82 BC01      		movw r22,r24
 6526 2b84 CD01      		movw r24,r26
 6527 2b86 0E94 0000 		call __fixunssfsi
 6528 2b8a DC01      		movw r26,r24
 6529 2b8c CB01      		movw r24,r22
 6530 2b8e 9FAB      		std Y+55,r25
 6531 2b90 8EAB      		std Y+54,r24
 6532 2b92 00C0      		rjmp .L314
 6533               	.L315:
 6534 2b94 80E9      		ldi r24,lo8(400)
 6535 2b96 91E0      		ldi r25,hi8(400)
 6536 2b98 9DAB      		std Y+53,r25
 6537 2b9a 8CAB      		std Y+52,r24
 6538               	.LBB376:
 6539               	.LBB377:
 6540               	.LM384:
 6541 2b9c 8CA9      		ldd r24,Y+52
 6542 2b9e 9DA9      		ldd r25,Y+53
 6543               	/* #APP */
 6544               	 ;  105 "d:/winavr-20100110/lib/gcc/../../avr/include/util/delay_basic.h" 1
 6545 2ba0 0197      		1: sbiw r24,1
 6546 2ba2 01F4      		brne 1b
 6547               	 ;  0 "" 2
 6548               	/* #NOAPP */
 6549 2ba4 9DAB      		std Y+53,r25
 6550 2ba6 8CAB      		std Y+52,r24
 6551               	.LBE377:
 6552               	.LBE376:
 6553               	.LM385:
 6554 2ba8 8EA9      		ldd r24,Y+54
 6555 2baa 9FA9      		ldd r25,Y+55
 6556 2bac 0197      		sbiw r24,1
 6557 2bae 9FAB      		std Y+55,r25
 6558 2bb0 8EAB      		std Y+54,r24
 6559               	.L314:
 6560               	.LM386:
 6561 2bb2 8EA9      		ldd r24,Y+54
 6562 2bb4 9FA9      		ldd r25,Y+55
 6563 2bb6 0097      		sbiw r24,0
 6564 2bb8 01F4      		brne .L315
 6565 2bba 00C0      		rjmp .L317
 6566               	.L469:
 6567               	.LM387:
 6568 2bbc 68AD      		ldd r22,Y+56
 6569 2bbe 79AD      		ldd r23,Y+57
 6570 2bc0 8AAD      		ldd r24,Y+58
 6571 2bc2 9BAD      		ldd r25,Y+59
 6572 2bc4 0E94 0000 		call __fixunssfsi
 6573 2bc8 DC01      		movw r26,r24
 6574 2bca CB01      		movw r24,r22
 6575 2bcc 9FAB      		std Y+55,r25
 6576 2bce 8EAB      		std Y+54,r24
 6577               	.L311:
 6578 2bd0 8EA9      		ldd r24,Y+54
 6579 2bd2 9FA9      		ldd r25,Y+55
 6580 2bd4 9BAB      		std Y+51,r25
 6581 2bd6 8AAB      		std Y+50,r24
 6582               	.LBB378:
 6583               	.LBB379:
 6584               	.LM388:
 6585 2bd8 8AA9      		ldd r24,Y+50
 6586 2bda 9BA9      		ldd r25,Y+51
 6587               	/* #APP */
 6588               	 ;  105 "d:/winavr-20100110/lib/gcc/../../avr/include/util/delay_basic.h" 1
 6589 2bdc 0197      		1: sbiw r24,1
 6590 2bde 01F4      		brne 1b
 6591               	 ;  0 "" 2
 6592               	/* #NOAPP */
 6593 2be0 9BAB      		std Y+51,r25
 6594 2be2 8AAB      		std Y+50,r24
 6595 2be4 00C0      		rjmp .L317
 6596               	.L467:
 6597               	.LBE379:
 6598               	.LBE378:
 6599               	.LBE375:
 6600               	.LBE374:
 6601               	.LM389:
 6602 2be6 FE01      		movw r30,r28
 6603 2be8 EF5B      		subi r30,lo8(-(65))
 6604 2bea FF4F      		sbci r31,hi8(-(65))
 6605 2bec 6081      		ld r22,Z
 6606 2bee 7181      		ldd r23,Z+1
 6607 2bf0 8281      		ldd r24,Z+2
 6608 2bf2 9381      		ldd r25,Z+3
 6609 2bf4 0E94 0000 		call __fixunssfsi
 6610 2bf8 DC01      		movw r26,r24
 6611 2bfa CB01      		movw r24,r22
 6612 2bfc FE01      		movw r30,r28
 6613 2bfe E05C      		subi r30,lo8(-(64))
 6614 2c00 FF4F      		sbci r31,hi8(-(64))
 6615 2c02 8083      		st Z,r24
 6616               	.L306:
 6617 2c04 FE01      		movw r30,r28
 6618 2c06 E05C      		subi r30,lo8(-(64))
 6619 2c08 FF4F      		sbci r31,hi8(-(64))
 6620 2c0a 8081      		ld r24,Z
 6621 2c0c 89AB      		std Y+49,r24
 6622               	.LBB380:
 6623               	.LBB381:
 6624               	.LM390:
 6625 2c0e 89A9      		ldd r24,Y+49
 6626               	/* #APP */
 6627               	 ;  83 "d:/winavr-20100110/lib/gcc/../../avr/include/util/delay_basic.h" 1
 6628 2c10 8A95      		1: dec r24
 6629 2c12 01F4      		brne 1b
 6630               	 ;  0 "" 2
 6631               	/* #NOAPP */
 6632 2c14 89AB      		std Y+49,r24
 6633               	.L317:
 6634               	.LBE381:
 6635               	.LBE380:
 6636               	.LBE373:
 6637               	.LBE372:
 6638               	.LM391:
 6639 2c16 1092 0000 		sts PS2data9,__zero_reg__
 6640               	.LM392:
 6641 2c1a 1092 0000 		sts i,__zero_reg__
 6642 2c1e 00C0      		rjmp .L318
 6643               	.L334:
 6644               	.LM393:
 6645 2c20 A5E3      		ldi r26,lo8(53)
 6646 2c22 B0E0      		ldi r27,hi8(53)
 6647 2c24 E5E3      		ldi r30,lo8(53)
 6648 2c26 F0E0      		ldi r31,hi8(53)
 6649 2c28 8081      		ld r24,Z
 6650 2c2a 8B7F      		andi r24,lo8(-5)
 6651 2c2c 8C93      		st X,r24
 6652               	.LM394:
 6653 2c2e A5E3      		ldi r26,lo8(53)
 6654 2c30 B0E0      		ldi r27,hi8(53)
 6655 2c32 E5E3      		ldi r30,lo8(53)
 6656 2c34 F0E0      		ldi r31,hi8(53)
 6657 2c36 8081      		ld r24,Z
 6658 2c38 8E7F      		andi r24,lo8(-2)
 6659 2c3a 8C93      		st X,r24
 6660 2c3c 80E0      		ldi r24,lo8(0x3f800000)
 6661 2c3e 90E0      		ldi r25,hi8(0x3f800000)
 6662 2c40 A0E8      		ldi r26,hlo8(0x3f800000)
 6663 2c42 BFE3      		ldi r27,hhi8(0x3f800000)
 6664 2c44 8DA7      		std Y+45,r24
 6665 2c46 9EA7      		std Y+46,r25
 6666 2c48 AFA7      		std Y+47,r26
 6667 2c4a B8AB      		std Y+48,r27
 6668               	.LBB382:
 6669               	.LBB383:
 6670               	.LM395:
 6671 2c4c 6DA5      		ldd r22,Y+45
 6672 2c4e 7EA5      		ldd r23,Y+46
 6673 2c50 8FA5      		ldd r24,Y+47
 6674 2c52 98A9      		ldd r25,Y+48
 6675 2c54 2BEA      		ldi r18,lo8(0x40aaaaab)
 6676 2c56 3AEA      		ldi r19,hi8(0x40aaaaab)
 6677 2c58 4AEA      		ldi r20,hlo8(0x40aaaaab)
 6678 2c5a 50E4      		ldi r21,hhi8(0x40aaaaab)
 6679 2c5c 0E94 0000 		call __mulsf3
 6680 2c60 DC01      		movw r26,r24
 6681 2c62 CB01      		movw r24,r22
 6682 2c64 89A7      		std Y+41,r24
 6683 2c66 9AA7      		std Y+42,r25
 6684 2c68 ABA7      		std Y+43,r26
 6685 2c6a BCA7      		std Y+44,r27
 6686               	.LM396:
 6687 2c6c 69A5      		ldd r22,Y+41
 6688 2c6e 7AA5      		ldd r23,Y+42
 6689 2c70 8BA5      		ldd r24,Y+43
 6690 2c72 9CA5      		ldd r25,Y+44
 6691 2c74 20E0      		ldi r18,lo8(0x3f800000)
 6692 2c76 30E0      		ldi r19,hi8(0x3f800000)
 6693 2c78 40E8      		ldi r20,hlo8(0x3f800000)
 6694 2c7a 5FE3      		ldi r21,hhi8(0x3f800000)
 6695 2c7c 0E94 0000 		call __ltsf2
 6696 2c80 8823      		tst r24
 6697 2c82 04F4      		brge .L470
 6698               	.L406:
 6699               	.LM397:
 6700 2c84 81E0      		ldi r24,lo8(1)
 6701 2c86 88A7      		std Y+40,r24
 6702 2c88 00C0      		rjmp .L321
 6703               	.L470:
 6704               	.LM398:
 6705 2c8a 69A5      		ldd r22,Y+41
 6706 2c8c 7AA5      		ldd r23,Y+42
 6707 2c8e 8BA5      		ldd r24,Y+43
 6708 2c90 9CA5      		ldd r25,Y+44
 6709 2c92 20E0      		ldi r18,lo8(0x437f0000)
 6710 2c94 30E0      		ldi r19,hi8(0x437f0000)
 6711 2c96 4FE7      		ldi r20,hlo8(0x437f0000)
 6712 2c98 53E4      		ldi r21,hhi8(0x437f0000)
 6713 2c9a 0E94 0000 		call __gtsf2
 6714 2c9e 1816      		cp __zero_reg__,r24
 6715 2ca0 04F0      		brlt .+2
 6716 2ca2 00C0      		rjmp .L471
 6717               	.L407:
 6718               	.LM399:
 6719 2ca4 6DA5      		ldd r22,Y+45
 6720 2ca6 7EA5      		ldd r23,Y+46
 6721 2ca8 8FA5      		ldd r24,Y+47
 6722 2caa 98A9      		ldd r25,Y+48
 6723 2cac 20E0      		ldi r18,lo8(0x447a0000)
 6724 2cae 30E0      		ldi r19,hi8(0x447a0000)
 6725 2cb0 4AE7      		ldi r20,hlo8(0x447a0000)
 6726 2cb2 54E4      		ldi r21,hhi8(0x447a0000)
 6727 2cb4 0E94 0000 		call __divsf3
 6728 2cb8 DC01      		movw r26,r24
 6729 2cba CB01      		movw r24,r22
 6730 2cbc 8CA3      		std Y+36,r24
 6731 2cbe 9DA3      		std Y+37,r25
 6732 2cc0 AEA3      		std Y+38,r26
 6733 2cc2 BFA3      		std Y+39,r27
 6734               	.LBB384:
 6735               	.LBB385:
 6736               	.LM400:
 6737 2cc4 6CA1      		ldd r22,Y+36
 6738 2cc6 7DA1      		ldd r23,Y+37
 6739 2cc8 8EA1      		ldd r24,Y+38
 6740 2cca 9FA1      		ldd r25,Y+39
 6741 2ccc 20E0      		ldi r18,lo8(0x457a0000)
 6742 2cce 30E0      		ldi r19,hi8(0x457a0000)
 6743 2cd0 4AE7      		ldi r20,hlo8(0x457a0000)
 6744 2cd2 55E4      		ldi r21,hhi8(0x457a0000)
 6745 2cd4 0E94 0000 		call __mulsf3
 6746 2cd8 DC01      		movw r26,r24
 6747 2cda CB01      		movw r24,r22
 6748 2cdc 88A3      		std Y+32,r24
 6749 2cde 99A3      		std Y+33,r25
 6750 2ce0 AAA3      		std Y+34,r26
 6751 2ce2 BBA3      		std Y+35,r27
 6752               	.LM401:
 6753 2ce4 68A1      		ldd r22,Y+32
 6754 2ce6 79A1      		ldd r23,Y+33
 6755 2ce8 8AA1      		ldd r24,Y+34
 6756 2cea 9BA1      		ldd r25,Y+35
 6757 2cec 20E0      		ldi r18,lo8(0x3f800000)
 6758 2cee 30E0      		ldi r19,hi8(0x3f800000)
 6759 2cf0 40E8      		ldi r20,hlo8(0x3f800000)
 6760 2cf2 5FE3      		ldi r21,hhi8(0x3f800000)
 6761 2cf4 0E94 0000 		call __ltsf2
 6762 2cf8 8823      		tst r24
 6763 2cfa 04F4      		brge .L472
 6764               	.L408:
 6765               	.LM402:
 6766 2cfc 81E0      		ldi r24,lo8(1)
 6767 2cfe 90E0      		ldi r25,hi8(1)
 6768 2d00 9F8F      		std Y+31,r25
 6769 2d02 8E8F      		std Y+30,r24
 6770 2d04 00C0      		rjmp .L326
 6771               	.L472:
 6772               	.LM403:
 6773 2d06 68A1      		ldd r22,Y+32
 6774 2d08 79A1      		ldd r23,Y+33
 6775 2d0a 8AA1      		ldd r24,Y+34
 6776 2d0c 9BA1      		ldd r25,Y+35
 6777 2d0e 20E0      		ldi r18,lo8(0x477fff00)
 6778 2d10 3FEF      		ldi r19,hi8(0x477fff00)
 6779 2d12 4FE7      		ldi r20,hlo8(0x477fff00)
 6780 2d14 57E4      		ldi r21,hhi8(0x477fff00)
 6781 2d16 0E94 0000 		call __gtsf2
 6782 2d1a 1816      		cp __zero_reg__,r24
 6783 2d1c 04F4      		brge .L473
 6784               	.L409:
 6785               	.LM404:
 6786 2d1e 6CA1      		ldd r22,Y+36
 6787 2d20 7DA1      		ldd r23,Y+37
 6788 2d22 8EA1      		ldd r24,Y+38
 6789 2d24 9FA1      		ldd r25,Y+39
 6790 2d26 20E0      		ldi r18,lo8(0x41200000)
 6791 2d28 30E0      		ldi r19,hi8(0x41200000)
 6792 2d2a 40E2      		ldi r20,hlo8(0x41200000)
 6793 2d2c 51E4      		ldi r21,hhi8(0x41200000)
 6794 2d2e 0E94 0000 		call __mulsf3
 6795 2d32 DC01      		movw r26,r24
 6796 2d34 CB01      		movw r24,r22
 6797 2d36 BC01      		movw r22,r24
 6798 2d38 CD01      		movw r24,r26
 6799 2d3a 0E94 0000 		call __fixunssfsi
 6800 2d3e DC01      		movw r26,r24
 6801 2d40 CB01      		movw r24,r22
 6802 2d42 9F8F      		std Y+31,r25
 6803 2d44 8E8F      		std Y+30,r24
 6804 2d46 00C0      		rjmp .L329
 6805               	.L330:
 6806 2d48 80E9      		ldi r24,lo8(400)
 6807 2d4a 91E0      		ldi r25,hi8(400)
 6808 2d4c 9D8F      		std Y+29,r25
 6809 2d4e 8C8F      		std Y+28,r24
 6810               	.LBB386:
 6811               	.LBB387:
 6812               	.LM405:
 6813 2d50 8C8D      		ldd r24,Y+28
 6814 2d52 9D8D      		ldd r25,Y+29
 6815               	/* #APP */
 6816               	 ;  105 "d:/winavr-20100110/lib/gcc/../../avr/include/util/delay_basic.h" 1
 6817 2d54 0197      		1: sbiw r24,1
 6818 2d56 01F4      		brne 1b
 6819               	 ;  0 "" 2
 6820               	/* #NOAPP */
 6821 2d58 9D8F      		std Y+29,r25
 6822 2d5a 8C8F      		std Y+28,r24
 6823               	.LBE387:
 6824               	.LBE386:
 6825               	.LM406:
 6826 2d5c 8E8D      		ldd r24,Y+30
 6827 2d5e 9F8D      		ldd r25,Y+31
 6828 2d60 0197      		sbiw r24,1
 6829 2d62 9F8F      		std Y+31,r25
 6830 2d64 8E8F      		std Y+30,r24
 6831               	.L329:
 6832               	.LM407:
 6833 2d66 8E8D      		ldd r24,Y+30
 6834 2d68 9F8D      		ldd r25,Y+31
 6835 2d6a 0097      		sbiw r24,0
 6836 2d6c 01F4      		brne .L330
 6837 2d6e 00C0      		rjmp .L332
 6838               	.L473:
 6839               	.LM408:
 6840 2d70 68A1      		ldd r22,Y+32
 6841 2d72 79A1      		ldd r23,Y+33
 6842 2d74 8AA1      		ldd r24,Y+34
 6843 2d76 9BA1      		ldd r25,Y+35
 6844 2d78 0E94 0000 		call __fixunssfsi
 6845 2d7c DC01      		movw r26,r24
 6846 2d7e CB01      		movw r24,r22
 6847 2d80 9F8F      		std Y+31,r25
 6848 2d82 8E8F      		std Y+30,r24
 6849               	.L326:
 6850 2d84 8E8D      		ldd r24,Y+30
 6851 2d86 9F8D      		ldd r25,Y+31
 6852 2d88 9B8F      		std Y+27,r25
 6853 2d8a 8A8F      		std Y+26,r24
 6854               	.LBB388:
 6855               	.LBB389:
 6856               	.LM409:
 6857 2d8c 8A8D      		ldd r24,Y+26
 6858 2d8e 9B8D      		ldd r25,Y+27
 6859               	/* #APP */
 6860               	 ;  105 "d:/winavr-20100110/lib/gcc/../../avr/include/util/delay_basic.h" 1
 6861 2d90 0197      		1: sbiw r24,1
 6862 2d92 01F4      		brne 1b
 6863               	 ;  0 "" 2
 6864               	/* #NOAPP */
 6865 2d94 9B8F      		std Y+27,r25
 6866 2d96 8A8F      		std Y+26,r24
 6867 2d98 00C0      		rjmp .L332
 6868               	.L471:
 6869               	.LBE389:
 6870               	.LBE388:
 6871               	.LBE385:
 6872               	.LBE384:
 6873               	.LM410:
 6874 2d9a 69A5      		ldd r22,Y+41
 6875 2d9c 7AA5      		ldd r23,Y+42
 6876 2d9e 8BA5      		ldd r24,Y+43
 6877 2da0 9CA5      		ldd r25,Y+44
 6878 2da2 0E94 0000 		call __fixunssfsi
 6879 2da6 DC01      		movw r26,r24
 6880 2da8 CB01      		movw r24,r22
 6881 2daa 88A7      		std Y+40,r24
 6882               	.L321:
 6883 2dac 88A5      		ldd r24,Y+40
 6884 2dae 898F      		std Y+25,r24
 6885               	.LBB390:
 6886               	.LBB391:
 6887               	.LM411:
 6888 2db0 898D      		ldd r24,Y+25
 6889               	/* #APP */
 6890               	 ;  83 "d:/winavr-20100110/lib/gcc/../../avr/include/util/delay_basic.h" 1
 6891 2db2 8A95      		1: dec r24
 6892 2db4 01F4      		brne 1b
 6893               	 ;  0 "" 2
 6894               	/* #NOAPP */
 6895 2db6 898F      		std Y+25,r24
 6896               	.L332:
 6897               	.LBE391:
 6898               	.LBE390:
 6899               	.LBE383:
 6900               	.LBE382:
 6901               	.LM412:
 6902 2db8 E3E3      		ldi r30,lo8(51)
 6903 2dba F0E0      		ldi r31,hi8(51)
 6904 2dbc 8081      		ld r24,Z
 6905 2dbe 882F      		mov r24,r24
 6906 2dc0 90E0      		ldi r25,lo8(0)
 6907 2dc2 8270      		andi r24,lo8(2)
 6908 2dc4 9070      		andi r25,hi8(2)
 6909 2dc6 0097      		sbiw r24,0
 6910 2dc8 01F0      		breq .L333
 6911 2dca 8091 0000 		lds r24,i
 6912 2dce 282F      		mov r18,r24
 6913 2dd0 30E0      		ldi r19,lo8(0)
 6914 2dd2 81E0      		ldi r24,lo8(1)
 6915 2dd4 90E0      		ldi r25,hi8(1)
 6916 2dd6 022E      		mov r0,r18
 6917 2dd8 00C0      		rjmp 2f
 6918 2dda 880F      	1:	lsl r24
 6919 2ddc 991F      		rol r25
 6920 2dde 0A94      	2:	dec r0
 6921 2de0 02F4      		brpl 1b
 6922 2de2 982F      		mov r25,r24
 6923 2de4 8091 0000 		lds r24,PS2data9
 6924 2de8 892B      		or r24,r25
 6925 2dea 8093 0000 		sts PS2data9,r24
 6926               	.L333:
 6927               	.LM413:
 6928 2dee A5E3      		ldi r26,lo8(53)
 6929 2df0 B0E0      		ldi r27,hi8(53)
 6930 2df2 E5E3      		ldi r30,lo8(53)
 6931 2df4 F0E0      		ldi r31,hi8(53)
 6932 2df6 8081      		ld r24,Z
 6933 2df8 8160      		ori r24,lo8(1)
 6934 2dfa 8C93      		st X,r24
 6935               	.LM414:
 6936 2dfc 8091 0000 		lds r24,i
 6937 2e00 8F5F      		subi r24,lo8(-(1))
 6938 2e02 8093 0000 		sts i,r24
 6939               	.L318:
 6940 2e06 8091 0000 		lds r24,i
 6941 2e0a 8830      		cpi r24,lo8(8)
 6942 2e0c 00F4      		brsh .+2
 6943 2e0e 00C0      		rjmp .L334
 6944               	.LM415:
 6945 2e10 A5E3      		ldi r26,lo8(53)
 6946 2e12 B0E0      		ldi r27,hi8(53)
 6947 2e14 E5E3      		ldi r30,lo8(53)
 6948 2e16 F0E0      		ldi r31,hi8(53)
 6949 2e18 8081      		ld r24,Z
 6950 2e1a 8460      		ori r24,lo8(4)
 6951 2e1c 8C93      		st X,r24
 6952 2e1e 80E0      		ldi r24,lo8(0x3f800000)
 6953 2e20 90E0      		ldi r25,hi8(0x3f800000)
 6954 2e22 A0E8      		ldi r26,hlo8(0x3f800000)
 6955 2e24 BFE3      		ldi r27,hhi8(0x3f800000)
 6956 2e26 8D8B      		std Y+21,r24
 6957 2e28 9E8B      		std Y+22,r25
 6958 2e2a AF8B      		std Y+23,r26
 6959 2e2c B88F      		std Y+24,r27
 6960               	.LBB392:
 6961               	.LBB393:
 6962               	.LM416:
 6963 2e2e 6D89      		ldd r22,Y+21
 6964 2e30 7E89      		ldd r23,Y+22
 6965 2e32 8F89      		ldd r24,Y+23
 6966 2e34 988D      		ldd r25,Y+24
 6967 2e36 2BEA      		ldi r18,lo8(0x40aaaaab)
 6968 2e38 3AEA      		ldi r19,hi8(0x40aaaaab)
 6969 2e3a 4AEA      		ldi r20,hlo8(0x40aaaaab)
 6970 2e3c 50E4      		ldi r21,hhi8(0x40aaaaab)
 6971 2e3e 0E94 0000 		call __mulsf3
 6972 2e42 DC01      		movw r26,r24
 6973 2e44 CB01      		movw r24,r22
 6974 2e46 898B      		std Y+17,r24
 6975 2e48 9A8B      		std Y+18,r25
 6976 2e4a AB8B      		std Y+19,r26
 6977 2e4c BC8B      		std Y+20,r27
 6978               	.LM417:
 6979 2e4e 6989      		ldd r22,Y+17
 6980 2e50 7A89      		ldd r23,Y+18
 6981 2e52 8B89      		ldd r24,Y+19
 6982 2e54 9C89      		ldd r25,Y+20
 6983 2e56 20E0      		ldi r18,lo8(0x3f800000)
 6984 2e58 30E0      		ldi r19,hi8(0x3f800000)
 6985 2e5a 40E8      		ldi r20,hlo8(0x3f800000)
 6986 2e5c 5FE3      		ldi r21,hhi8(0x3f800000)
 6987 2e5e 0E94 0000 		call __ltsf2
 6988 2e62 8823      		tst r24
 6989 2e64 04F4      		brge .L474
 6990               	.L410:
 6991               	.LM418:
 6992 2e66 81E0      		ldi r24,lo8(1)
 6993 2e68 888B      		std Y+16,r24
 6994 2e6a 00C0      		rjmp .L337
 6995               	.L474:
 6996               	.LM419:
 6997 2e6c 6989      		ldd r22,Y+17
 6998 2e6e 7A89      		ldd r23,Y+18
 6999 2e70 8B89      		ldd r24,Y+19
 7000 2e72 9C89      		ldd r25,Y+20
 7001 2e74 20E0      		ldi r18,lo8(0x437f0000)
 7002 2e76 30E0      		ldi r19,hi8(0x437f0000)
 7003 2e78 4FE7      		ldi r20,hlo8(0x437f0000)
 7004 2e7a 53E4      		ldi r21,hhi8(0x437f0000)
 7005 2e7c 0E94 0000 		call __gtsf2
 7006 2e80 1816      		cp __zero_reg__,r24
 7007 2e82 04F0      		brlt .+2
 7008 2e84 00C0      		rjmp .L475
 7009               	.L411:
 7010               	.LM420:
 7011 2e86 6D89      		ldd r22,Y+21
 7012 2e88 7E89      		ldd r23,Y+22
 7013 2e8a 8F89      		ldd r24,Y+23
 7014 2e8c 988D      		ldd r25,Y+24
 7015 2e8e 20E0      		ldi r18,lo8(0x447a0000)
 7016 2e90 30E0      		ldi r19,hi8(0x447a0000)
 7017 2e92 4AE7      		ldi r20,hlo8(0x447a0000)
 7018 2e94 54E4      		ldi r21,hhi8(0x447a0000)
 7019 2e96 0E94 0000 		call __divsf3
 7020 2e9a DC01      		movw r26,r24
 7021 2e9c CB01      		movw r24,r22
 7022 2e9e 8C87      		std Y+12,r24
 7023 2ea0 9D87      		std Y+13,r25
 7024 2ea2 AE87      		std Y+14,r26
 7025 2ea4 BF87      		std Y+15,r27
 7026               	.LBB394:
 7027               	.LBB395:
 7028               	.LM421:
 7029 2ea6 6C85      		ldd r22,Y+12
 7030 2ea8 7D85      		ldd r23,Y+13
 7031 2eaa 8E85      		ldd r24,Y+14
 7032 2eac 9F85      		ldd r25,Y+15
 7033 2eae 20E0      		ldi r18,lo8(0x457a0000)
 7034 2eb0 30E0      		ldi r19,hi8(0x457a0000)
 7035 2eb2 4AE7      		ldi r20,hlo8(0x457a0000)
 7036 2eb4 55E4      		ldi r21,hhi8(0x457a0000)
 7037 2eb6 0E94 0000 		call __mulsf3
 7038 2eba DC01      		movw r26,r24
 7039 2ebc CB01      		movw r24,r22
 7040 2ebe 8887      		std Y+8,r24
 7041 2ec0 9987      		std Y+9,r25
 7042 2ec2 AA87      		std Y+10,r26
 7043 2ec4 BB87      		std Y+11,r27
 7044               	.LM422:
 7045 2ec6 6885      		ldd r22,Y+8
 7046 2ec8 7985      		ldd r23,Y+9
 7047 2eca 8A85      		ldd r24,Y+10
 7048 2ecc 9B85      		ldd r25,Y+11
 7049 2ece 20E0      		ldi r18,lo8(0x3f800000)
 7050 2ed0 30E0      		ldi r19,hi8(0x3f800000)
 7051 2ed2 40E8      		ldi r20,hlo8(0x3f800000)
 7052 2ed4 5FE3      		ldi r21,hhi8(0x3f800000)
 7053 2ed6 0E94 0000 		call __ltsf2
 7054 2eda 8823      		tst r24
 7055 2edc 04F4      		brge .L476
 7056               	.L412:
 7057               	.LM423:
 7058 2ede 81E0      		ldi r24,lo8(1)
 7059 2ee0 90E0      		ldi r25,hi8(1)
 7060 2ee2 9F83      		std Y+7,r25
 7061 2ee4 8E83      		std Y+6,r24
 7062 2ee6 00C0      		rjmp .L342
 7063               	.L476:
 7064               	.LM424:
 7065 2ee8 6885      		ldd r22,Y+8
 7066 2eea 7985      		ldd r23,Y+9
 7067 2eec 8A85      		ldd r24,Y+10
 7068 2eee 9B85      		ldd r25,Y+11
 7069 2ef0 20E0      		ldi r18,lo8(0x477fff00)
 7070 2ef2 3FEF      		ldi r19,hi8(0x477fff00)
 7071 2ef4 4FE7      		ldi r20,hlo8(0x477fff00)
 7072 2ef6 57E4      		ldi r21,hhi8(0x477fff00)
 7073 2ef8 0E94 0000 		call __gtsf2
 7074 2efc 1816      		cp __zero_reg__,r24
 7075 2efe 04F4      		brge .L477
 7076               	.L413:
 7077               	.LM425:
 7078 2f00 6C85      		ldd r22,Y+12
 7079 2f02 7D85      		ldd r23,Y+13
 7080 2f04 8E85      		ldd r24,Y+14
 7081 2f06 9F85      		ldd r25,Y+15
 7082 2f08 20E0      		ldi r18,lo8(0x41200000)
 7083 2f0a 30E0      		ldi r19,hi8(0x41200000)
 7084 2f0c 40E2      		ldi r20,hlo8(0x41200000)
 7085 2f0e 51E4      		ldi r21,hhi8(0x41200000)
 7086 2f10 0E94 0000 		call __mulsf3
 7087 2f14 DC01      		movw r26,r24
 7088 2f16 CB01      		movw r24,r22
 7089 2f18 BC01      		movw r22,r24
 7090 2f1a CD01      		movw r24,r26
 7091 2f1c 0E94 0000 		call __fixunssfsi
 7092 2f20 DC01      		movw r26,r24
 7093 2f22 CB01      		movw r24,r22
 7094 2f24 9F83      		std Y+7,r25
 7095 2f26 8E83      		std Y+6,r24
 7096 2f28 00C0      		rjmp .L345
 7097               	.L346:
 7098 2f2a 80E9      		ldi r24,lo8(400)
 7099 2f2c 91E0      		ldi r25,hi8(400)
 7100 2f2e 9D83      		std Y+5,r25
 7101 2f30 8C83      		std Y+4,r24
 7102               	.LBB396:
 7103               	.LBB397:
 7104               	.LM426:
 7105 2f32 8C81      		ldd r24,Y+4
 7106 2f34 9D81      		ldd r25,Y+5
 7107               	/* #APP */
 7108               	 ;  105 "d:/winavr-20100110/lib/gcc/../../avr/include/util/delay_basic.h" 1
 7109 2f36 0197      		1: sbiw r24,1
 7110 2f38 01F4      		brne 1b
 7111               	 ;  0 "" 2
 7112               	/* #NOAPP */
 7113 2f3a 9D83      		std Y+5,r25
 7114 2f3c 8C83      		std Y+4,r24
 7115               	.LBE397:
 7116               	.LBE396:
 7117               	.LM427:
 7118 2f3e 8E81      		ldd r24,Y+6
 7119 2f40 9F81      		ldd r25,Y+7
 7120 2f42 0197      		sbiw r24,1
 7121 2f44 9F83      		std Y+7,r25
 7122 2f46 8E83      		std Y+6,r24
 7123               	.L345:
 7124               	.LM428:
 7125 2f48 8E81      		ldd r24,Y+6
 7126 2f4a 9F81      		ldd r25,Y+7
 7127 2f4c 0097      		sbiw r24,0
 7128 2f4e 01F4      		brne .L346
 7129 2f50 00C0      		rjmp .L348
 7130               	.L477:
 7131               	.LM429:
 7132 2f52 6885      		ldd r22,Y+8
 7133 2f54 7985      		ldd r23,Y+9
 7134 2f56 8A85      		ldd r24,Y+10
 7135 2f58 9B85      		ldd r25,Y+11
 7136 2f5a 0E94 0000 		call __fixunssfsi
 7137 2f5e DC01      		movw r26,r24
 7138 2f60 CB01      		movw r24,r22
 7139 2f62 9F83      		std Y+7,r25
 7140 2f64 8E83      		std Y+6,r24
 7141               	.L342:
 7142 2f66 8E81      		ldd r24,Y+6
 7143 2f68 9F81      		ldd r25,Y+7
 7144 2f6a 9B83      		std Y+3,r25
 7145 2f6c 8A83      		std Y+2,r24
 7146               	.LBB398:
 7147               	.LBB399:
 7148               	.LM430:
 7149 2f6e 8A81      		ldd r24,Y+2
 7150 2f70 9B81      		ldd r25,Y+3
 7151               	/* #APP */
 7152               	 ;  105 "d:/winavr-20100110/lib/gcc/../../avr/include/util/delay_basic.h" 1
 7153 2f72 0197      		1: sbiw r24,1
 7154 2f74 01F4      		brne 1b
 7155               	 ;  0 "" 2
 7156               	/* #NOAPP */
 7157 2f76 9B83      		std Y+3,r25
 7158 2f78 8A83      		std Y+2,r24
 7159 2f7a 00C0      		rjmp .L348
 7160               	.L475:
 7161               	.LBE399:
 7162               	.LBE398:
 7163               	.LBE395:
 7164               	.LBE394:
 7165               	.LM431:
 7166 2f7c 6989      		ldd r22,Y+17
 7167 2f7e 7A89      		ldd r23,Y+18
 7168 2f80 8B89      		ldd r24,Y+19
 7169 2f82 9C89      		ldd r25,Y+20
 7170 2f84 0E94 0000 		call __fixunssfsi
 7171 2f88 DC01      		movw r26,r24
 7172 2f8a CB01      		movw r24,r22
 7173 2f8c 888B      		std Y+16,r24
 7174               	.L337:
 7175 2f8e 8889      		ldd r24,Y+16
 7176 2f90 8983      		std Y+1,r24
 7177               	.LBB400:
 7178               	.LBB401:
 7179               	.LM432:
 7180 2f92 8981      		ldd r24,Y+1
 7181               	/* #APP */
 7182               	 ;  83 "d:/winavr-20100110/lib/gcc/../../avr/include/util/delay_basic.h" 1
 7183 2f94 8A95      		1: dec r24
 7184 2f96 01F4      		brne 1b
 7185               	 ;  0 "" 2
 7186               	/* #NOAPP */
 7187 2f98 8983      		std Y+1,r24
 7188               	.L348:
 7189               	.LBE401:
 7190               	.LBE400:
 7191               	.LBE393:
 7192               	.LBE392:
 7193               	.LM433:
 7194 2f9a A5E3      		ldi r26,lo8(53)
 7195 2f9c B0E0      		ldi r27,hi8(53)
 7196 2f9e E5E3      		ldi r30,lo8(53)
 7197 2fa0 F0E0      		ldi r31,hi8(53)
 7198 2fa2 8081      		ld r24,Z
 7199 2fa4 8061      		ori r24,lo8(16)
 7200 2fa6 8C93      		st X,r24
 7201               	/* epilogue start */
 7202               	.LM434:
 7203 2fa8 C058      		subi r28,lo8(-(384))
 7204 2faa DE4F      		sbci r29,hi8(-(384))
 7205 2fac 0FB6      		in __tmp_reg__,__SREG__
 7206 2fae F894      		cli
 7207 2fb0 DEBF      		out __SP_H__,r29
 7208 2fb2 0FBE      		out __SREG__,__tmp_reg__
 7209 2fb4 CDBF      		out __SP_L__,r28
 7210 2fb6 CF91      		pop r28
 7211 2fb8 DF91      		pop r29
 7212 2fba 1F91      		pop r17
 7213 2fbc 0F91      		pop r16
 7214 2fbe 0895      		ret
 7215               	.LFE7:
 7217               	.global	config
 7219               	config:
 7220               	.LFB8:
 7221               	.LM435:
 7222 2fc0 0F93      		push r16
 7223 2fc2 1F93      		push r17
 7224 2fc4 DF93      		push r29
 7225 2fc6 CF93      		push r28
 7226 2fc8 CDB7      		in r28,__SP_L__
 7227 2fca DEB7      		in r29,__SP_H__
 7228 2fcc C857      		subi r28,lo8(-(-120))
 7229 2fce D040      		sbci r29,hi8(-(-120))
 7230 2fd0 0FB6      		in __tmp_reg__,__SREG__
 7231 2fd2 F894      		cli
 7232 2fd4 DEBF      		out __SP_H__,r29
 7233 2fd6 0FBE      		out __SREG__,__tmp_reg__
 7234 2fd8 CDBF      		out __SP_L__,r28
 7235               	/* prologue: function */
 7236               	/* frame size = 120 */
 7237               	.LM436:
 7238 2fda A5E3      		ldi r26,lo8(53)
 7239 2fdc B0E0      		ldi r27,hi8(53)
 7240 2fde E5E3      		ldi r30,lo8(53)
 7241 2fe0 F0E0      		ldi r31,hi8(53)
 7242 2fe2 8081      		ld r24,Z
 7243 2fe4 8460      		ori r24,lo8(4)
 7244 2fe6 8C93      		st X,r24
 7245               	.LM437:
 7246 2fe8 A5E3      		ldi r26,lo8(53)
 7247 2fea B0E0      		ldi r27,hi8(53)
 7248 2fec E5E3      		ldi r30,lo8(53)
 7249 2fee F0E0      		ldi r31,hi8(53)
 7250 2ff0 8081      		ld r24,Z
 7251 2ff2 8160      		ori r24,lo8(1)
 7252 2ff4 8C93      		st X,r24
 7253               	.LM438:
 7254 2ff6 A5E3      		ldi r26,lo8(53)
 7255 2ff8 B0E0      		ldi r27,hi8(53)
 7256 2ffa E5E3      		ldi r30,lo8(53)
 7257 2ffc F0E0      		ldi r31,hi8(53)
 7258 2ffe 8081      		ld r24,Z
 7259 3000 8F7E      		andi r24,lo8(-17)
 7260 3002 8C93      		st X,r24
 7261 3004 FE01      		movw r30,r28
 7262 3006 EB58      		subi r30,lo8(-(117))
 7263 3008 FF4F      		sbci r31,hi8(-(117))
 7264 300a 80E0      		ldi r24,lo8(0x3f800000)
 7265 300c 90E0      		ldi r25,hi8(0x3f800000)
 7266 300e A0E8      		ldi r26,hlo8(0x3f800000)
 7267 3010 BFE3      		ldi r27,hhi8(0x3f800000)
 7268 3012 8083      		st Z,r24
 7269 3014 9183      		std Z+1,r25
 7270 3016 A283      		std Z+2,r26
 7271 3018 B383      		std Z+3,r27
 7272               	.LBB452:
 7273               	.LBB453:
 7274               	.LM439:
 7275 301a 8E01      		movw r16,r28
 7276 301c 0F58      		subi r16,lo8(-(113))
 7277 301e 1F4F      		sbci r17,hi8(-(113))
 7278 3020 FE01      		movw r30,r28
 7279 3022 EB58      		subi r30,lo8(-(117))
 7280 3024 FF4F      		sbci r31,hi8(-(117))
 7281 3026 6081      		ld r22,Z
 7282 3028 7181      		ldd r23,Z+1
 7283 302a 8281      		ldd r24,Z+2
 7284 302c 9381      		ldd r25,Z+3
 7285 302e 2BEA      		ldi r18,lo8(0x40aaaaab)
 7286 3030 3AEA      		ldi r19,hi8(0x40aaaaab)
 7287 3032 4AEA      		ldi r20,hlo8(0x40aaaaab)
 7288 3034 50E4      		ldi r21,hhi8(0x40aaaaab)
 7289 3036 0E94 0000 		call __mulsf3
 7290 303a DC01      		movw r26,r24
 7291 303c CB01      		movw r24,r22
 7292 303e F801      		movw r30,r16
 7293 3040 8083      		st Z,r24
 7294 3042 9183      		std Z+1,r25
 7295 3044 A283      		std Z+2,r26
 7296 3046 B383      		std Z+3,r27
 7297               	.LM440:
 7298 3048 FE01      		movw r30,r28
 7299 304a EF58      		subi r30,lo8(-(113))
 7300 304c FF4F      		sbci r31,hi8(-(113))
 7301 304e 6081      		ld r22,Z
 7302 3050 7181      		ldd r23,Z+1
 7303 3052 8281      		ldd r24,Z+2
 7304 3054 9381      		ldd r25,Z+3
 7305 3056 20E0      		ldi r18,lo8(0x3f800000)
 7306 3058 30E0      		ldi r19,hi8(0x3f800000)
 7307 305a 40E8      		ldi r20,hlo8(0x3f800000)
 7308 305c 5FE3      		ldi r21,hhi8(0x3f800000)
 7309 305e 0E94 0000 		call __ltsf2
 7310 3062 8823      		tst r24
 7311 3064 04F4      		brge .L586
 7312               	.L566:
 7313               	.LM441:
 7314 3066 FE01      		movw r30,r28
 7315 3068 E059      		subi r30,lo8(-(112))
 7316 306a FF4F      		sbci r31,hi8(-(112))
 7317 306c 81E0      		ldi r24,lo8(1)
 7318 306e 8083      		st Z,r24
 7319 3070 00C0      		rjmp .L481
 7320               	.L586:
 7321               	.LM442:
 7322 3072 FE01      		movw r30,r28
 7323 3074 EF58      		subi r30,lo8(-(113))
 7324 3076 FF4F      		sbci r31,hi8(-(113))
 7325 3078 6081      		ld r22,Z
 7326 307a 7181      		ldd r23,Z+1
 7327 307c 8281      		ldd r24,Z+2
 7328 307e 9381      		ldd r25,Z+3
 7329 3080 20E0      		ldi r18,lo8(0x437f0000)
 7330 3082 30E0      		ldi r19,hi8(0x437f0000)
 7331 3084 4FE7      		ldi r20,hlo8(0x437f0000)
 7332 3086 53E4      		ldi r21,hhi8(0x437f0000)
 7333 3088 0E94 0000 		call __gtsf2
 7334 308c 1816      		cp __zero_reg__,r24
 7335 308e 04F0      		brlt .+2
 7336 3090 00C0      		rjmp .L587
 7337               	.L567:
 7338               	.LM443:
 7339 3092 FE01      		movw r30,r28
 7340 3094 EB58      		subi r30,lo8(-(117))
 7341 3096 FF4F      		sbci r31,hi8(-(117))
 7342 3098 6081      		ld r22,Z
 7343 309a 7181      		ldd r23,Z+1
 7344 309c 8281      		ldd r24,Z+2
 7345 309e 9381      		ldd r25,Z+3
 7346 30a0 20E0      		ldi r18,lo8(0x447a0000)
 7347 30a2 30E0      		ldi r19,hi8(0x447a0000)
 7348 30a4 4AE7      		ldi r20,hlo8(0x447a0000)
 7349 30a6 54E4      		ldi r21,hhi8(0x447a0000)
 7350 30a8 0E94 0000 		call __divsf3
 7351 30ac DC01      		movw r26,r24
 7352 30ae CB01      		movw r24,r22
 7353 30b0 FE01      		movw r30,r28
 7354 30b2 E459      		subi r30,lo8(-(108))
 7355 30b4 FF4F      		sbci r31,hi8(-(108))
 7356 30b6 8083      		st Z,r24
 7357 30b8 9183      		std Z+1,r25
 7358 30ba A283      		std Z+2,r26
 7359 30bc B383      		std Z+3,r27
 7360               	.LBB454:
 7361               	.LBB455:
 7362               	.LM444:
 7363 30be 8E01      		movw r16,r28
 7364 30c0 0859      		subi r16,lo8(-(104))
 7365 30c2 1F4F      		sbci r17,hi8(-(104))
 7366 30c4 FE01      		movw r30,r28
 7367 30c6 E459      		subi r30,lo8(-(108))
 7368 30c8 FF4F      		sbci r31,hi8(-(108))
 7369 30ca 6081      		ld r22,Z
 7370 30cc 7181      		ldd r23,Z+1
 7371 30ce 8281      		ldd r24,Z+2
 7372 30d0 9381      		ldd r25,Z+3
 7373 30d2 20E0      		ldi r18,lo8(0x457a0000)
 7374 30d4 30E0      		ldi r19,hi8(0x457a0000)
 7375 30d6 4AE7      		ldi r20,hlo8(0x457a0000)
 7376 30d8 55E4      		ldi r21,hhi8(0x457a0000)
 7377 30da 0E94 0000 		call __mulsf3
 7378 30de DC01      		movw r26,r24
 7379 30e0 CB01      		movw r24,r22
 7380 30e2 F801      		movw r30,r16
 7381 30e4 8083      		st Z,r24
 7382 30e6 9183      		std Z+1,r25
 7383 30e8 A283      		std Z+2,r26
 7384 30ea B383      		std Z+3,r27
 7385               	.LM445:
 7386 30ec FE01      		movw r30,r28
 7387 30ee E859      		subi r30,lo8(-(104))
 7388 30f0 FF4F      		sbci r31,hi8(-(104))
 7389 30f2 6081      		ld r22,Z
 7390 30f4 7181      		ldd r23,Z+1
 7391 30f6 8281      		ldd r24,Z+2
 7392 30f8 9381      		ldd r25,Z+3
 7393 30fa 20E0      		ldi r18,lo8(0x3f800000)
 7394 30fc 30E0      		ldi r19,hi8(0x3f800000)
 7395 30fe 40E8      		ldi r20,hlo8(0x3f800000)
 7396 3100 5FE3      		ldi r21,hhi8(0x3f800000)
 7397 3102 0E94 0000 		call __ltsf2
 7398 3106 8823      		tst r24
 7399 3108 04F4      		brge .L588
 7400               	.L568:
 7401               	.LM446:
 7402 310a FE01      		movw r30,r28
 7403 310c EA59      		subi r30,lo8(-(102))
 7404 310e FF4F      		sbci r31,hi8(-(102))
 7405 3110 81E0      		ldi r24,lo8(1)
 7406 3112 90E0      		ldi r25,hi8(1)
 7407 3114 9183      		std Z+1,r25
 7408 3116 8083      		st Z,r24
 7409 3118 00C0      		rjmp .L486
 7410               	.L588:
 7411               	.LM447:
 7412 311a FE01      		movw r30,r28
 7413 311c E859      		subi r30,lo8(-(104))
 7414 311e FF4F      		sbci r31,hi8(-(104))
 7415 3120 6081      		ld r22,Z
 7416 3122 7181      		ldd r23,Z+1
 7417 3124 8281      		ldd r24,Z+2
 7418 3126 9381      		ldd r25,Z+3
 7419 3128 20E0      		ldi r18,lo8(0x477fff00)
 7420 312a 3FEF      		ldi r19,hi8(0x477fff00)
 7421 312c 4FE7      		ldi r20,hlo8(0x477fff00)
 7422 312e 57E4      		ldi r21,hhi8(0x477fff00)
 7423 3130 0E94 0000 		call __gtsf2
 7424 3134 1816      		cp __zero_reg__,r24
 7425 3136 04F0      		brlt .+2
 7426 3138 00C0      		rjmp .L589
 7427               	.L569:
 7428               	.LM448:
 7429 313a FE01      		movw r30,r28
 7430 313c E459      		subi r30,lo8(-(108))
 7431 313e FF4F      		sbci r31,hi8(-(108))
 7432 3140 6081      		ld r22,Z
 7433 3142 7181      		ldd r23,Z+1
 7434 3144 8281      		ldd r24,Z+2
 7435 3146 9381      		ldd r25,Z+3
 7436 3148 20E0      		ldi r18,lo8(0x41200000)
 7437 314a 30E0      		ldi r19,hi8(0x41200000)
 7438 314c 40E2      		ldi r20,hlo8(0x41200000)
 7439 314e 51E4      		ldi r21,hhi8(0x41200000)
 7440 3150 0E94 0000 		call __mulsf3
 7441 3154 DC01      		movw r26,r24
 7442 3156 CB01      		movw r24,r22
 7443 3158 8E01      		movw r16,r28
 7444 315a 0A59      		subi r16,lo8(-(102))
 7445 315c 1F4F      		sbci r17,hi8(-(102))
 7446 315e BC01      		movw r22,r24
 7447 3160 CD01      		movw r24,r26
 7448 3162 0E94 0000 		call __fixunssfsi
 7449 3166 DC01      		movw r26,r24
 7450 3168 CB01      		movw r24,r22
 7451 316a F801      		movw r30,r16
 7452 316c 9183      		std Z+1,r25
 7453 316e 8083      		st Z,r24
 7454 3170 00C0      		rjmp .L489
 7455               	.L490:
 7456 3172 FE01      		movw r30,r28
 7457 3174 EC59      		subi r30,lo8(-(100))
 7458 3176 FF4F      		sbci r31,hi8(-(100))
 7459 3178 80E9      		ldi r24,lo8(400)
 7460 317a 91E0      		ldi r25,hi8(400)
 7461 317c 9183      		std Z+1,r25
 7462 317e 8083      		st Z,r24
 7463               	.LBB456:
 7464               	.LBB457:
 7465               	.LM449:
 7466 3180 FE01      		movw r30,r28
 7467 3182 EC59      		subi r30,lo8(-(100))
 7468 3184 FF4F      		sbci r31,hi8(-(100))
 7469 3186 8081      		ld r24,Z
 7470 3188 9181      		ldd r25,Z+1
 7471               	/* #APP */
 7472               	 ;  105 "d:/winavr-20100110/lib/gcc/../../avr/include/util/delay_basic.h" 1
 7473 318a 0197      		1: sbiw r24,1
 7474 318c 01F4      		brne 1b
 7475               	 ;  0 "" 2
 7476               	/* #NOAPP */
 7477 318e FE01      		movw r30,r28
 7478 3190 EC59      		subi r30,lo8(-(100))
 7479 3192 FF4F      		sbci r31,hi8(-(100))
 7480 3194 9183      		std Z+1,r25
 7481 3196 8083      		st Z,r24
 7482               	.LBE457:
 7483               	.LBE456:
 7484               	.LM450:
 7485 3198 DE01      		movw r26,r28
 7486 319a AA59      		subi r26,lo8(-(102))
 7487 319c BF4F      		sbci r27,hi8(-(102))
 7488 319e FE01      		movw r30,r28
 7489 31a0 EA59      		subi r30,lo8(-(102))
 7490 31a2 FF4F      		sbci r31,hi8(-(102))
 7491 31a4 8081      		ld r24,Z
 7492 31a6 9181      		ldd r25,Z+1
 7493 31a8 0197      		sbiw r24,1
 7494 31aa 1196      		adiw r26,1
 7495 31ac 9C93      		st X,r25
 7496 31ae 8E93      		st -X,r24
 7497               	.L489:
 7498               	.LM451:
 7499 31b0 FE01      		movw r30,r28
 7500 31b2 EA59      		subi r30,lo8(-(102))
 7501 31b4 FF4F      		sbci r31,hi8(-(102))
 7502 31b6 8081      		ld r24,Z
 7503 31b8 9181      		ldd r25,Z+1
 7504 31ba 0097      		sbiw r24,0
 7505 31bc 01F4      		brne .L490
 7506 31be 00C0      		rjmp .L492
 7507               	.L589:
 7508               	.LM452:
 7509 31c0 8E01      		movw r16,r28
 7510 31c2 0A59      		subi r16,lo8(-(102))
 7511 31c4 1F4F      		sbci r17,hi8(-(102))
 7512 31c6 FE01      		movw r30,r28
 7513 31c8 E859      		subi r30,lo8(-(104))
 7514 31ca FF4F      		sbci r31,hi8(-(104))
 7515 31cc 6081      		ld r22,Z
 7516 31ce 7181      		ldd r23,Z+1
 7517 31d0 8281      		ldd r24,Z+2
 7518 31d2 9381      		ldd r25,Z+3
 7519 31d4 0E94 0000 		call __fixunssfsi
 7520 31d8 DC01      		movw r26,r24
 7521 31da CB01      		movw r24,r22
 7522 31dc F801      		movw r30,r16
 7523 31de 9183      		std Z+1,r25
 7524 31e0 8083      		st Z,r24
 7525               	.L486:
 7526 31e2 DE01      		movw r26,r28
 7527 31e4 AE59      		subi r26,lo8(-(98))
 7528 31e6 BF4F      		sbci r27,hi8(-(98))
 7529 31e8 FE01      		movw r30,r28
 7530 31ea EA59      		subi r30,lo8(-(102))
 7531 31ec FF4F      		sbci r31,hi8(-(102))
 7532 31ee 8081      		ld r24,Z
 7533 31f0 9181      		ldd r25,Z+1
 7534 31f2 1196      		adiw r26,1
 7535 31f4 9C93      		st X,r25
 7536 31f6 8E93      		st -X,r24
 7537               	.LBB458:
 7538               	.LBB459:
 7539               	.LM453:
 7540 31f8 FE01      		movw r30,r28
 7541 31fa EE59      		subi r30,lo8(-(98))
 7542 31fc FF4F      		sbci r31,hi8(-(98))
 7543 31fe 8081      		ld r24,Z
 7544 3200 9181      		ldd r25,Z+1
 7545               	/* #APP */
 7546               	 ;  105 "d:/winavr-20100110/lib/gcc/../../avr/include/util/delay_basic.h" 1
 7547 3202 0197      		1: sbiw r24,1
 7548 3204 01F4      		brne 1b
 7549               	 ;  0 "" 2
 7550               	/* #NOAPP */
 7551 3206 FE01      		movw r30,r28
 7552 3208 EE59      		subi r30,lo8(-(98))
 7553 320a FF4F      		sbci r31,hi8(-(98))
 7554 320c 9183      		std Z+1,r25
 7555 320e 8083      		st Z,r24
 7556 3210 00C0      		rjmp .L492
 7557               	.L587:
 7558               	.LBE459:
 7559               	.LBE458:
 7560               	.LBE455:
 7561               	.LBE454:
 7562               	.LM454:
 7563 3212 8E01      		movw r16,r28
 7564 3214 0059      		subi r16,lo8(-(112))
 7565 3216 1F4F      		sbci r17,hi8(-(112))
 7566 3218 FE01      		movw r30,r28
 7567 321a EF58      		subi r30,lo8(-(113))
 7568 321c FF4F      		sbci r31,hi8(-(113))
 7569 321e 6081      		ld r22,Z
 7570 3220 7181      		ldd r23,Z+1
 7571 3222 8281      		ldd r24,Z+2
 7572 3224 9381      		ldd r25,Z+3
 7573 3226 0E94 0000 		call __fixunssfsi
 7574 322a DC01      		movw r26,r24
 7575 322c CB01      		movw r24,r22
 7576 322e F801      		movw r30,r16
 7577 3230 8083      		st Z,r24
 7578               	.L481:
 7579 3232 DE01      		movw r26,r28
 7580 3234 AF59      		subi r26,lo8(-(97))
 7581 3236 BF4F      		sbci r27,hi8(-(97))
 7582 3238 FE01      		movw r30,r28
 7583 323a E059      		subi r30,lo8(-(112))
 7584 323c FF4F      		sbci r31,hi8(-(112))
 7585 323e 8081      		ld r24,Z
 7586 3240 8C93      		st X,r24
 7587               	.LBB460:
 7588               	.LBB461:
 7589               	.LM455:
 7590 3242 FE01      		movw r30,r28
 7591 3244 EF59      		subi r30,lo8(-(97))
 7592 3246 FF4F      		sbci r31,hi8(-(97))
 7593 3248 8081      		ld r24,Z
 7594               	/* #APP */
 7595               	 ;  83 "d:/winavr-20100110/lib/gcc/../../avr/include/util/delay_basic.h" 1
 7596 324a 8A95      		1: dec r24
 7597 324c 01F4      		brne 1b
 7598               	 ;  0 "" 2
 7599               	/* #NOAPP */
 7600 324e FE01      		movw r30,r28
 7601 3250 EF59      		subi r30,lo8(-(97))
 7602 3252 FF4F      		sbci r31,hi8(-(97))
 7603 3254 8083      		st Z,r24
 7604               	.L492:
 7605               	.LBE461:
 7606               	.LBE460:
 7607               	.LBE453:
 7608               	.LBE452:
 7609               	.LM456:
 7610 3256 81E0      		ldi r24,lo8(1)
 7611 3258 8093 0000 		sts PS2byte,r24
 7612               	.LM457:
 7613 325c 1092 0000 		sts i,__zero_reg__
 7614 3260 00C0      		rjmp .L493
 7615               	.L496:
 7616               	.LM458:
 7617 3262 8091 0000 		lds r24,PS2byte
 7618 3266 282F      		mov r18,r24
 7619 3268 30E0      		ldi r19,lo8(0)
 7620 326a 8091 0000 		lds r24,i
 7621 326e 882F      		mov r24,r24
 7622 3270 90E0      		ldi r25,lo8(0)
 7623 3272 A901      		movw r20,r18
 7624 3274 00C0      		rjmp 2f
 7625 3276 5595      	1:	asr r21
 7626 3278 4795      		ror r20
 7627 327a 8A95      	2:	dec r24
 7628 327c 02F4      		brpl 1b
 7629 327e CA01      		movw r24,r20
 7630 3280 8170      		andi r24,lo8(1)
 7631 3282 9070      		andi r25,hi8(1)
 7632 3284 8823      		tst r24
 7633 3286 01F0      		breq .L494
 7634 3288 A5E3      		ldi r26,lo8(53)
 7635 328a B0E0      		ldi r27,hi8(53)
 7636 328c E5E3      		ldi r30,lo8(53)
 7637 328e F0E0      		ldi r31,hi8(53)
 7638 3290 8081      		ld r24,Z
 7639 3292 8460      		ori r24,lo8(4)
 7640 3294 8C93      		st X,r24
 7641 3296 00C0      		rjmp .L495
 7642               	.L494:
 7643               	.LM459:
 7644 3298 A5E3      		ldi r26,lo8(53)
 7645 329a B0E0      		ldi r27,hi8(53)
 7646 329c E5E3      		ldi r30,lo8(53)
 7647 329e F0E0      		ldi r31,hi8(53)
 7648 32a0 8081      		ld r24,Z
 7649 32a2 8B7F      		andi r24,lo8(-5)
 7650 32a4 8C93      		st X,r24
 7651               	.L495:
 7652               	.LM460:
 7653 32a6 A5E3      		ldi r26,lo8(53)
 7654 32a8 B0E0      		ldi r27,hi8(53)
 7655 32aa E5E3      		ldi r30,lo8(53)
 7656 32ac F0E0      		ldi r31,hi8(53)
 7657 32ae 8081      		ld r24,Z
 7658 32b0 8E7F      		andi r24,lo8(-2)
 7659 32b2 8C93      		st X,r24
 7660               	.LM461:
 7661 32b4 A5E3      		ldi r26,lo8(53)
 7662 32b6 B0E0      		ldi r27,hi8(53)
 7663 32b8 E5E3      		ldi r30,lo8(53)
 7664 32ba F0E0      		ldi r31,hi8(53)
 7665 32bc 8081      		ld r24,Z
 7666 32be 8160      		ori r24,lo8(1)
 7667 32c0 8C93      		st X,r24
 7668               	.LM462:
 7669 32c2 8091 0000 		lds r24,i
 7670 32c6 8F5F      		subi r24,lo8(-(1))
 7671 32c8 8093 0000 		sts i,r24
 7672               	.L493:
 7673 32cc 8091 0000 		lds r24,i
 7674 32d0 8830      		cpi r24,lo8(8)
 7675 32d2 00F0      		brlo .L496
 7676               	.LM463:
 7677 32d4 A5E3      		ldi r26,lo8(53)
 7678 32d6 B0E0      		ldi r27,hi8(53)
 7679 32d8 E5E3      		ldi r30,lo8(53)
 7680 32da F0E0      		ldi r31,hi8(53)
 7681 32dc 8081      		ld r24,Z
 7682 32de 8460      		ori r24,lo8(4)
 7683 32e0 8C93      		st X,r24
 7684 32e2 FE01      		movw r30,r28
 7685 32e4 E35A      		subi r30,lo8(-(93))
 7686 32e6 FF4F      		sbci r31,hi8(-(93))
 7687 32e8 80E0      		ldi r24,lo8(0x3f800000)
 7688 32ea 90E0      		ldi r25,hi8(0x3f800000)
 7689 32ec A0E8      		ldi r26,hlo8(0x3f800000)
 7690 32ee BFE3      		ldi r27,hhi8(0x3f800000)
 7691 32f0 8083      		st Z,r24
 7692 32f2 9183      		std Z+1,r25
 7693 32f4 A283      		std Z+2,r26
 7694 32f6 B383      		std Z+3,r27
 7695               	.LBB462:
 7696               	.LBB463:
 7697               	.LM464:
 7698 32f8 8E01      		movw r16,r28
 7699 32fa 075A      		subi r16,lo8(-(89))
 7700 32fc 1F4F      		sbci r17,hi8(-(89))
 7701 32fe FE01      		movw r30,r28
 7702 3300 E35A      		subi r30,lo8(-(93))
 7703 3302 FF4F      		sbci r31,hi8(-(93))
 7704 3304 6081      		ld r22,Z
 7705 3306 7181      		ldd r23,Z+1
 7706 3308 8281      		ldd r24,Z+2
 7707 330a 9381      		ldd r25,Z+3
 7708 330c 2BEA      		ldi r18,lo8(0x40aaaaab)
 7709 330e 3AEA      		ldi r19,hi8(0x40aaaaab)
 7710 3310 4AEA      		ldi r20,hlo8(0x40aaaaab)
 7711 3312 50E4      		ldi r21,hhi8(0x40aaaaab)
 7712 3314 0E94 0000 		call __mulsf3
 7713 3318 DC01      		movw r26,r24
 7714 331a CB01      		movw r24,r22
 7715 331c F801      		movw r30,r16
 7716 331e 8083      		st Z,r24
 7717 3320 9183      		std Z+1,r25
 7718 3322 A283      		std Z+2,r26
 7719 3324 B383      		std Z+3,r27
 7720               	.LM465:
 7721 3326 FE01      		movw r30,r28
 7722 3328 E75A      		subi r30,lo8(-(89))
 7723 332a FF4F      		sbci r31,hi8(-(89))
 7724 332c 6081      		ld r22,Z
 7725 332e 7181      		ldd r23,Z+1
 7726 3330 8281      		ldd r24,Z+2
 7727 3332 9381      		ldd r25,Z+3
 7728 3334 20E0      		ldi r18,lo8(0x3f800000)
 7729 3336 30E0      		ldi r19,hi8(0x3f800000)
 7730 3338 40E8      		ldi r20,hlo8(0x3f800000)
 7731 333a 5FE3      		ldi r21,hhi8(0x3f800000)
 7732 333c 0E94 0000 		call __ltsf2
 7733 3340 8823      		tst r24
 7734 3342 04F4      		brge .L590
 7735               	.L570:
 7736               	.LM466:
 7737 3344 FE01      		movw r30,r28
 7738 3346 E85A      		subi r30,lo8(-(88))
 7739 3348 FF4F      		sbci r31,hi8(-(88))
 7740 334a 81E0      		ldi r24,lo8(1)
 7741 334c 8083      		st Z,r24
 7742 334e 00C0      		rjmp .L499
 7743               	.L590:
 7744               	.LM467:
 7745 3350 FE01      		movw r30,r28
 7746 3352 E75A      		subi r30,lo8(-(89))
 7747 3354 FF4F      		sbci r31,hi8(-(89))
 7748 3356 6081      		ld r22,Z
 7749 3358 7181      		ldd r23,Z+1
 7750 335a 8281      		ldd r24,Z+2
 7751 335c 9381      		ldd r25,Z+3
 7752 335e 20E0      		ldi r18,lo8(0x437f0000)
 7753 3360 30E0      		ldi r19,hi8(0x437f0000)
 7754 3362 4FE7      		ldi r20,hlo8(0x437f0000)
 7755 3364 53E4      		ldi r21,hhi8(0x437f0000)
 7756 3366 0E94 0000 		call __gtsf2
 7757 336a 1816      		cp __zero_reg__,r24
 7758 336c 04F0      		brlt .+2
 7759 336e 00C0      		rjmp .L591
 7760               	.L571:
 7761               	.LM468:
 7762 3370 FE01      		movw r30,r28
 7763 3372 E35A      		subi r30,lo8(-(93))
 7764 3374 FF4F      		sbci r31,hi8(-(93))
 7765 3376 6081      		ld r22,Z
 7766 3378 7181      		ldd r23,Z+1
 7767 337a 8281      		ldd r24,Z+2
 7768 337c 9381      		ldd r25,Z+3
 7769 337e 20E0      		ldi r18,lo8(0x447a0000)
 7770 3380 30E0      		ldi r19,hi8(0x447a0000)
 7771 3382 4AE7      		ldi r20,hlo8(0x447a0000)
 7772 3384 54E4      		ldi r21,hhi8(0x447a0000)
 7773 3386 0E94 0000 		call __divsf3
 7774 338a DC01      		movw r26,r24
 7775 338c CB01      		movw r24,r22
 7776 338e FE01      		movw r30,r28
 7777 3390 EC5A      		subi r30,lo8(-(84))
 7778 3392 FF4F      		sbci r31,hi8(-(84))
 7779 3394 8083      		st Z,r24
 7780 3396 9183      		std Z+1,r25
 7781 3398 A283      		std Z+2,r26
 7782 339a B383      		std Z+3,r27
 7783               	.LBB464:
 7784               	.LBB465:
 7785               	.LM469:
 7786 339c 8E01      		movw r16,r28
 7787 339e 005B      		subi r16,lo8(-(80))
 7788 33a0 1F4F      		sbci r17,hi8(-(80))
 7789 33a2 FE01      		movw r30,r28
 7790 33a4 EC5A      		subi r30,lo8(-(84))
 7791 33a6 FF4F      		sbci r31,hi8(-(84))
 7792 33a8 6081      		ld r22,Z
 7793 33aa 7181      		ldd r23,Z+1
 7794 33ac 8281      		ldd r24,Z+2
 7795 33ae 9381      		ldd r25,Z+3
 7796 33b0 20E0      		ldi r18,lo8(0x457a0000)
 7797 33b2 30E0      		ldi r19,hi8(0x457a0000)
 7798 33b4 4AE7      		ldi r20,hlo8(0x457a0000)
 7799 33b6 55E4      		ldi r21,hhi8(0x457a0000)
 7800 33b8 0E94 0000 		call __mulsf3
 7801 33bc DC01      		movw r26,r24
 7802 33be CB01      		movw r24,r22
 7803 33c0 F801      		movw r30,r16
 7804 33c2 8083      		st Z,r24
 7805 33c4 9183      		std Z+1,r25
 7806 33c6 A283      		std Z+2,r26
 7807 33c8 B383      		std Z+3,r27
 7808               	.LM470:
 7809 33ca FE01      		movw r30,r28
 7810 33cc E05B      		subi r30,lo8(-(80))
 7811 33ce FF4F      		sbci r31,hi8(-(80))
 7812 33d0 6081      		ld r22,Z
 7813 33d2 7181      		ldd r23,Z+1
 7814 33d4 8281      		ldd r24,Z+2
 7815 33d6 9381      		ldd r25,Z+3
 7816 33d8 20E0      		ldi r18,lo8(0x3f800000)
 7817 33da 30E0      		ldi r19,hi8(0x3f800000)
 7818 33dc 40E8      		ldi r20,hlo8(0x3f800000)
 7819 33de 5FE3      		ldi r21,hhi8(0x3f800000)
 7820 33e0 0E94 0000 		call __ltsf2
 7821 33e4 8823      		tst r24
 7822 33e6 04F4      		brge .L592
 7823               	.L572:
 7824               	.LM471:
 7825 33e8 FE01      		movw r30,r28
 7826 33ea E25B      		subi r30,lo8(-(78))
 7827 33ec FF4F      		sbci r31,hi8(-(78))
 7828 33ee 81E0      		ldi r24,lo8(1)
 7829 33f0 90E0      		ldi r25,hi8(1)
 7830 33f2 9183      		std Z+1,r25
 7831 33f4 8083      		st Z,r24
 7832 33f6 00C0      		rjmp .L504
 7833               	.L592:
 7834               	.LM472:
 7835 33f8 FE01      		movw r30,r28
 7836 33fa E05B      		subi r30,lo8(-(80))
 7837 33fc FF4F      		sbci r31,hi8(-(80))
 7838 33fe 6081      		ld r22,Z
 7839 3400 7181      		ldd r23,Z+1
 7840 3402 8281      		ldd r24,Z+2
 7841 3404 9381      		ldd r25,Z+3
 7842 3406 20E0      		ldi r18,lo8(0x477fff00)
 7843 3408 3FEF      		ldi r19,hi8(0x477fff00)
 7844 340a 4FE7      		ldi r20,hlo8(0x477fff00)
 7845 340c 57E4      		ldi r21,hhi8(0x477fff00)
 7846 340e 0E94 0000 		call __gtsf2
 7847 3412 1816      		cp __zero_reg__,r24
 7848 3414 04F0      		brlt .+2
 7849 3416 00C0      		rjmp .L593
 7850               	.L573:
 7851               	.LM473:
 7852 3418 FE01      		movw r30,r28
 7853 341a EC5A      		subi r30,lo8(-(84))
 7854 341c FF4F      		sbci r31,hi8(-(84))
 7855 341e 6081      		ld r22,Z
 7856 3420 7181      		ldd r23,Z+1
 7857 3422 8281      		ldd r24,Z+2
 7858 3424 9381      		ldd r25,Z+3
 7859 3426 20E0      		ldi r18,lo8(0x41200000)
 7860 3428 30E0      		ldi r19,hi8(0x41200000)
 7861 342a 40E2      		ldi r20,hlo8(0x41200000)
 7862 342c 51E4      		ldi r21,hhi8(0x41200000)
 7863 342e 0E94 0000 		call __mulsf3
 7864 3432 DC01      		movw r26,r24
 7865 3434 CB01      		movw r24,r22
 7866 3436 8E01      		movw r16,r28
 7867 3438 025B      		subi r16,lo8(-(78))
 7868 343a 1F4F      		sbci r17,hi8(-(78))
 7869 343c BC01      		movw r22,r24
 7870 343e CD01      		movw r24,r26
 7871 3440 0E94 0000 		call __fixunssfsi
 7872 3444 DC01      		movw r26,r24
 7873 3446 CB01      		movw r24,r22
 7874 3448 F801      		movw r30,r16
 7875 344a 9183      		std Z+1,r25
 7876 344c 8083      		st Z,r24
 7877 344e 00C0      		rjmp .L507
 7878               	.L508:
 7879 3450 FE01      		movw r30,r28
 7880 3452 E45B      		subi r30,lo8(-(76))
 7881 3454 FF4F      		sbci r31,hi8(-(76))
 7882 3456 80E9      		ldi r24,lo8(400)
 7883 3458 91E0      		ldi r25,hi8(400)
 7884 345a 9183      		std Z+1,r25
 7885 345c 8083      		st Z,r24
 7886               	.LBB466:
 7887               	.LBB467:
 7888               	.LM474:
 7889 345e FE01      		movw r30,r28
 7890 3460 E45B      		subi r30,lo8(-(76))
 7891 3462 FF4F      		sbci r31,hi8(-(76))
 7892 3464 8081      		ld r24,Z
 7893 3466 9181      		ldd r25,Z+1
 7894               	/* #APP */
 7895               	 ;  105 "d:/winavr-20100110/lib/gcc/../../avr/include/util/delay_basic.h" 1
 7896 3468 0197      		1: sbiw r24,1
 7897 346a 01F4      		brne 1b
 7898               	 ;  0 "" 2
 7899               	/* #NOAPP */
 7900 346c FE01      		movw r30,r28
 7901 346e E45B      		subi r30,lo8(-(76))
 7902 3470 FF4F      		sbci r31,hi8(-(76))
 7903 3472 9183      		std Z+1,r25
 7904 3474 8083      		st Z,r24
 7905               	.LBE467:
 7906               	.LBE466:
 7907               	.LM475:
 7908 3476 DE01      		movw r26,r28
 7909 3478 A25B      		subi r26,lo8(-(78))
 7910 347a BF4F      		sbci r27,hi8(-(78))
 7911 347c FE01      		movw r30,r28
 7912 347e E25B      		subi r30,lo8(-(78))
 7913 3480 FF4F      		sbci r31,hi8(-(78))
 7914 3482 8081      		ld r24,Z
 7915 3484 9181      		ldd r25,Z+1
 7916 3486 0197      		sbiw r24,1
 7917 3488 1196      		adiw r26,1
 7918 348a 9C93      		st X,r25
 7919 348c 8E93      		st -X,r24
 7920               	.L507:
 7921               	.LM476:
 7922 348e FE01      		movw r30,r28
 7923 3490 E25B      		subi r30,lo8(-(78))
 7924 3492 FF4F      		sbci r31,hi8(-(78))
 7925 3494 8081      		ld r24,Z
 7926 3496 9181      		ldd r25,Z+1
 7927 3498 0097      		sbiw r24,0
 7928 349a 01F4      		brne .L508
 7929 349c 00C0      		rjmp .L510
 7930               	.L593:
 7931               	.LM477:
 7932 349e 8E01      		movw r16,r28
 7933 34a0 025B      		subi r16,lo8(-(78))
 7934 34a2 1F4F      		sbci r17,hi8(-(78))
 7935 34a4 FE01      		movw r30,r28
 7936 34a6 E05B      		subi r30,lo8(-(80))
 7937 34a8 FF4F      		sbci r31,hi8(-(80))
 7938 34aa 6081      		ld r22,Z
 7939 34ac 7181      		ldd r23,Z+1
 7940 34ae 8281      		ldd r24,Z+2
 7941 34b0 9381      		ldd r25,Z+3
 7942 34b2 0E94 0000 		call __fixunssfsi
 7943 34b6 DC01      		movw r26,r24
 7944 34b8 CB01      		movw r24,r22
 7945 34ba F801      		movw r30,r16
 7946 34bc 9183      		std Z+1,r25
 7947 34be 8083      		st Z,r24
 7948               	.L504:
 7949 34c0 DE01      		movw r26,r28
 7950 34c2 A65B      		subi r26,lo8(-(74))
 7951 34c4 BF4F      		sbci r27,hi8(-(74))
 7952 34c6 FE01      		movw r30,r28
 7953 34c8 E25B      		subi r30,lo8(-(78))
 7954 34ca FF4F      		sbci r31,hi8(-(78))
 7955 34cc 8081      		ld r24,Z
 7956 34ce 9181      		ldd r25,Z+1
 7957 34d0 1196      		adiw r26,1
 7958 34d2 9C93      		st X,r25
 7959 34d4 8E93      		st -X,r24
 7960               	.LBB468:
 7961               	.LBB469:
 7962               	.LM478:
 7963 34d6 FE01      		movw r30,r28
 7964 34d8 E65B      		subi r30,lo8(-(74))
 7965 34da FF4F      		sbci r31,hi8(-(74))
 7966 34dc 8081      		ld r24,Z
 7967 34de 9181      		ldd r25,Z+1
 7968               	/* #APP */
 7969               	 ;  105 "d:/winavr-20100110/lib/gcc/../../avr/include/util/delay_basic.h" 1
 7970 34e0 0197      		1: sbiw r24,1
 7971 34e2 01F4      		brne 1b
 7972               	 ;  0 "" 2
 7973               	/* #NOAPP */
 7974 34e4 FE01      		movw r30,r28
 7975 34e6 E65B      		subi r30,lo8(-(74))
 7976 34e8 FF4F      		sbci r31,hi8(-(74))
 7977 34ea 9183      		std Z+1,r25
 7978 34ec 8083      		st Z,r24
 7979 34ee 00C0      		rjmp .L510
 7980               	.L591:
 7981               	.LBE469:
 7982               	.LBE468:
 7983               	.LBE465:
 7984               	.LBE464:
 7985               	.LM479:
 7986 34f0 8E01      		movw r16,r28
 7987 34f2 085A      		subi r16,lo8(-(88))
 7988 34f4 1F4F      		sbci r17,hi8(-(88))
 7989 34f6 FE01      		movw r30,r28
 7990 34f8 E75A      		subi r30,lo8(-(89))
 7991 34fa FF4F      		sbci r31,hi8(-(89))
 7992 34fc 6081      		ld r22,Z
 7993 34fe 7181      		ldd r23,Z+1
 7994 3500 8281      		ldd r24,Z+2
 7995 3502 9381      		ldd r25,Z+3
 7996 3504 0E94 0000 		call __fixunssfsi
 7997 3508 DC01      		movw r26,r24
 7998 350a CB01      		movw r24,r22
 7999 350c F801      		movw r30,r16
 8000 350e 8083      		st Z,r24
 8001               	.L499:
 8002 3510 DE01      		movw r26,r28
 8003 3512 A75B      		subi r26,lo8(-(73))
 8004 3514 BF4F      		sbci r27,hi8(-(73))
 8005 3516 FE01      		movw r30,r28
 8006 3518 E85A      		subi r30,lo8(-(88))
 8007 351a FF4F      		sbci r31,hi8(-(88))
 8008 351c 8081      		ld r24,Z
 8009 351e 8C93      		st X,r24
 8010               	.LBB470:
 8011               	.LBB471:
 8012               	.LM480:
 8013 3520 FE01      		movw r30,r28
 8014 3522 E75B      		subi r30,lo8(-(73))
 8015 3524 FF4F      		sbci r31,hi8(-(73))
 8016 3526 8081      		ld r24,Z
 8017               	/* #APP */
 8018               	 ;  83 "d:/winavr-20100110/lib/gcc/../../avr/include/util/delay_basic.h" 1
 8019 3528 8A95      		1: dec r24
 8020 352a 01F4      		brne 1b
 8021               	 ;  0 "" 2
 8022               	/* #NOAPP */
 8023 352c FE01      		movw r30,r28
 8024 352e E75B      		subi r30,lo8(-(73))
 8025 3530 FF4F      		sbci r31,hi8(-(73))
 8026 3532 8083      		st Z,r24
 8027               	.L510:
 8028               	.LBE471:
 8029               	.LBE470:
 8030               	.LBE463:
 8031               	.LBE462:
 8032               	.LM481:
 8033 3534 83E4      		ldi r24,lo8(67)
 8034 3536 8093 0000 		sts PS2byte,r24
 8035               	.LM482:
 8036 353a 1092 0000 		sts i,__zero_reg__
 8037 353e 00C0      		rjmp .L511
 8038               	.L514:
 8039               	.LM483:
 8040 3540 8091 0000 		lds r24,PS2byte
 8041 3544 282F      		mov r18,r24
 8042 3546 30E0      		ldi r19,lo8(0)
 8043 3548 8091 0000 		lds r24,i
 8044 354c 882F      		mov r24,r24
 8045 354e 90E0      		ldi r25,lo8(0)
 8046 3550 A901      		movw r20,r18
 8047 3552 00C0      		rjmp 2f
 8048 3554 5595      	1:	asr r21
 8049 3556 4795      		ror r20
 8050 3558 8A95      	2:	dec r24
 8051 355a 02F4      		brpl 1b
 8052 355c CA01      		movw r24,r20
 8053 355e 8170      		andi r24,lo8(1)
 8054 3560 9070      		andi r25,hi8(1)
 8055 3562 8823      		tst r24
 8056 3564 01F0      		breq .L512
 8057 3566 A5E3      		ldi r26,lo8(53)
 8058 3568 B0E0      		ldi r27,hi8(53)
 8059 356a E5E3      		ldi r30,lo8(53)
 8060 356c F0E0      		ldi r31,hi8(53)
 8061 356e 8081      		ld r24,Z
 8062 3570 8460      		ori r24,lo8(4)
 8063 3572 8C93      		st X,r24
 8064 3574 00C0      		rjmp .L513
 8065               	.L512:
 8066               	.LM484:
 8067 3576 A5E3      		ldi r26,lo8(53)
 8068 3578 B0E0      		ldi r27,hi8(53)
 8069 357a E5E3      		ldi r30,lo8(53)
 8070 357c F0E0      		ldi r31,hi8(53)
 8071 357e 8081      		ld r24,Z
 8072 3580 8B7F      		andi r24,lo8(-5)
 8073 3582 8C93      		st X,r24
 8074               	.L513:
 8075               	.LM485:
 8076 3584 A5E3      		ldi r26,lo8(53)
 8077 3586 B0E0      		ldi r27,hi8(53)
 8078 3588 E5E3      		ldi r30,lo8(53)
 8079 358a F0E0      		ldi r31,hi8(53)
 8080 358c 8081      		ld r24,Z
 8081 358e 8E7F      		andi r24,lo8(-2)
 8082 3590 8C93      		st X,r24
 8083               	.LM486:
 8084 3592 A5E3      		ldi r26,lo8(53)
 8085 3594 B0E0      		ldi r27,hi8(53)
 8086 3596 E5E3      		ldi r30,lo8(53)
 8087 3598 F0E0      		ldi r31,hi8(53)
 8088 359a 8081      		ld r24,Z
 8089 359c 8160      		ori r24,lo8(1)
 8090 359e 8C93      		st X,r24
 8091               	.LM487:
 8092 35a0 8091 0000 		lds r24,i
 8093 35a4 8F5F      		subi r24,lo8(-(1))
 8094 35a6 8093 0000 		sts i,r24
 8095               	.L511:
 8096 35aa 8091 0000 		lds r24,i
 8097 35ae 8830      		cpi r24,lo8(8)
 8098 35b0 00F0      		brlo .L514
 8099               	.LM488:
 8100 35b2 A5E3      		ldi r26,lo8(53)
 8101 35b4 B0E0      		ldi r27,hi8(53)
 8102 35b6 E5E3      		ldi r30,lo8(53)
 8103 35b8 F0E0      		ldi r31,hi8(53)
 8104 35ba 8081      		ld r24,Z
 8105 35bc 8460      		ori r24,lo8(4)
 8106 35be 8C93      		st X,r24
 8107 35c0 FE01      		movw r30,r28
 8108 35c2 EB5B      		subi r30,lo8(-(69))
 8109 35c4 FF4F      		sbci r31,hi8(-(69))
 8110 35c6 80E0      		ldi r24,lo8(0x3f800000)
 8111 35c8 90E0      		ldi r25,hi8(0x3f800000)
 8112 35ca A0E8      		ldi r26,hlo8(0x3f800000)
 8113 35cc BFE3      		ldi r27,hhi8(0x3f800000)
 8114 35ce 8083      		st Z,r24
 8115 35d0 9183      		std Z+1,r25
 8116 35d2 A283      		std Z+2,r26
 8117 35d4 B383      		std Z+3,r27
 8118               	.LBB472:
 8119               	.LBB473:
 8120               	.LM489:
 8121 35d6 8E01      		movw r16,r28
 8122 35d8 0F5B      		subi r16,lo8(-(65))
 8123 35da 1F4F      		sbci r17,hi8(-(65))
 8124 35dc FE01      		movw r30,r28
 8125 35de EB5B      		subi r30,lo8(-(69))
 8126 35e0 FF4F      		sbci r31,hi8(-(69))
 8127 35e2 6081      		ld r22,Z
 8128 35e4 7181      		ldd r23,Z+1
 8129 35e6 8281      		ldd r24,Z+2
 8130 35e8 9381      		ldd r25,Z+3
 8131 35ea 2BEA      		ldi r18,lo8(0x40aaaaab)
 8132 35ec 3AEA      		ldi r19,hi8(0x40aaaaab)
 8133 35ee 4AEA      		ldi r20,hlo8(0x40aaaaab)
 8134 35f0 50E4      		ldi r21,hhi8(0x40aaaaab)
 8135 35f2 0E94 0000 		call __mulsf3
 8136 35f6 DC01      		movw r26,r24
 8137 35f8 CB01      		movw r24,r22
 8138 35fa F801      		movw r30,r16
 8139 35fc 8083      		st Z,r24
 8140 35fe 9183      		std Z+1,r25
 8141 3600 A283      		std Z+2,r26
 8142 3602 B383      		std Z+3,r27
 8143               	.LM490:
 8144 3604 FE01      		movw r30,r28
 8145 3606 EF5B      		subi r30,lo8(-(65))
 8146 3608 FF4F      		sbci r31,hi8(-(65))
 8147 360a 6081      		ld r22,Z
 8148 360c 7181      		ldd r23,Z+1
 8149 360e 8281      		ldd r24,Z+2
 8150 3610 9381      		ldd r25,Z+3
 8151 3612 20E0      		ldi r18,lo8(0x3f800000)
 8152 3614 30E0      		ldi r19,hi8(0x3f800000)
 8153 3616 40E8      		ldi r20,hlo8(0x3f800000)
 8154 3618 5FE3      		ldi r21,hhi8(0x3f800000)
 8155 361a 0E94 0000 		call __ltsf2
 8156 361e 8823      		tst r24
 8157 3620 04F4      		brge .L594
 8158               	.L574:
 8159               	.LM491:
 8160 3622 81E0      		ldi r24,lo8(1)
 8161 3624 FE01      		movw r30,r28
 8162 3626 E05C      		subi r30,lo8(-(64))
 8163 3628 FF4F      		sbci r31,hi8(-(64))
 8164 362a 8083      		st Z,r24
 8165 362c 00C0      		rjmp .L517
 8166               	.L594:
 8167               	.LM492:
 8168 362e FE01      		movw r30,r28
 8169 3630 EF5B      		subi r30,lo8(-(65))
 8170 3632 FF4F      		sbci r31,hi8(-(65))
 8171 3634 6081      		ld r22,Z
 8172 3636 7181      		ldd r23,Z+1
 8173 3638 8281      		ldd r24,Z+2
 8174 363a 9381      		ldd r25,Z+3
 8175 363c 20E0      		ldi r18,lo8(0x437f0000)
 8176 363e 30E0      		ldi r19,hi8(0x437f0000)
 8177 3640 4FE7      		ldi r20,hlo8(0x437f0000)
 8178 3642 53E4      		ldi r21,hhi8(0x437f0000)
 8179 3644 0E94 0000 		call __gtsf2
 8180 3648 1816      		cp __zero_reg__,r24
 8181 364a 04F0      		brlt .+2
 8182 364c 00C0      		rjmp .L595
 8183               	.L575:
 8184               	.LM493:
 8185 364e FE01      		movw r30,r28
 8186 3650 EB5B      		subi r30,lo8(-(69))
 8187 3652 FF4F      		sbci r31,hi8(-(69))
 8188 3654 6081      		ld r22,Z
 8189 3656 7181      		ldd r23,Z+1
 8190 3658 8281      		ldd r24,Z+2
 8191 365a 9381      		ldd r25,Z+3
 8192 365c 20E0      		ldi r18,lo8(0x447a0000)
 8193 365e 30E0      		ldi r19,hi8(0x447a0000)
 8194 3660 4AE7      		ldi r20,hlo8(0x447a0000)
 8195 3662 54E4      		ldi r21,hhi8(0x447a0000)
 8196 3664 0E94 0000 		call __divsf3
 8197 3668 DC01      		movw r26,r24
 8198 366a CB01      		movw r24,r22
 8199 366c 8CAF      		std Y+60,r24
 8200 366e 9DAF      		std Y+61,r25
 8201 3670 AEAF      		std Y+62,r26
 8202 3672 BFAF      		std Y+63,r27
 8203               	.LBB474:
 8204               	.LBB475:
 8205               	.LM494:
 8206 3674 6CAD      		ldd r22,Y+60
 8207 3676 7DAD      		ldd r23,Y+61
 8208 3678 8EAD      		ldd r24,Y+62
 8209 367a 9FAD      		ldd r25,Y+63
 8210 367c 20E0      		ldi r18,lo8(0x457a0000)
 8211 367e 30E0      		ldi r19,hi8(0x457a0000)
 8212 3680 4AE7      		ldi r20,hlo8(0x457a0000)
 8213 3682 55E4      		ldi r21,hhi8(0x457a0000)
 8214 3684 0E94 0000 		call __mulsf3
 8215 3688 DC01      		movw r26,r24
 8216 368a CB01      		movw r24,r22
 8217 368c 88AF      		std Y+56,r24
 8218 368e 99AF      		std Y+57,r25
 8219 3690 AAAF      		std Y+58,r26
 8220 3692 BBAF      		std Y+59,r27
 8221               	.LM495:
 8222 3694 68AD      		ldd r22,Y+56
 8223 3696 79AD      		ldd r23,Y+57
 8224 3698 8AAD      		ldd r24,Y+58
 8225 369a 9BAD      		ldd r25,Y+59
 8226 369c 20E0      		ldi r18,lo8(0x3f800000)
 8227 369e 30E0      		ldi r19,hi8(0x3f800000)
 8228 36a0 40E8      		ldi r20,hlo8(0x3f800000)
 8229 36a2 5FE3      		ldi r21,hhi8(0x3f800000)
 8230 36a4 0E94 0000 		call __ltsf2
 8231 36a8 8823      		tst r24
 8232 36aa 04F4      		brge .L596
 8233               	.L576:
 8234               	.LM496:
 8235 36ac 81E0      		ldi r24,lo8(1)
 8236 36ae 90E0      		ldi r25,hi8(1)
 8237 36b0 9FAB      		std Y+55,r25
 8238 36b2 8EAB      		std Y+54,r24
 8239 36b4 00C0      		rjmp .L522
 8240               	.L596:
 8241               	.LM497:
 8242 36b6 68AD      		ldd r22,Y+56
 8243 36b8 79AD      		ldd r23,Y+57
 8244 36ba 8AAD      		ldd r24,Y+58
 8245 36bc 9BAD      		ldd r25,Y+59
 8246 36be 20E0      		ldi r18,lo8(0x477fff00)
 8247 36c0 3FEF      		ldi r19,hi8(0x477fff00)
 8248 36c2 4FE7      		ldi r20,hlo8(0x477fff00)
 8249 36c4 57E4      		ldi r21,hhi8(0x477fff00)
 8250 36c6 0E94 0000 		call __gtsf2
 8251 36ca 1816      		cp __zero_reg__,r24
 8252 36cc 04F4      		brge .L597
 8253               	.L577:
 8254               	.LM498:
 8255 36ce 6CAD      		ldd r22,Y+60
 8256 36d0 7DAD      		ldd r23,Y+61
 8257 36d2 8EAD      		ldd r24,Y+62
 8258 36d4 9FAD      		ldd r25,Y+63
 8259 36d6 20E0      		ldi r18,lo8(0x41200000)
 8260 36d8 30E0      		ldi r19,hi8(0x41200000)
 8261 36da 40E2      		ldi r20,hlo8(0x41200000)
 8262 36dc 51E4      		ldi r21,hhi8(0x41200000)
 8263 36de 0E94 0000 		call __mulsf3
 8264 36e2 DC01      		movw r26,r24
 8265 36e4 CB01      		movw r24,r22
 8266 36e6 BC01      		movw r22,r24
 8267 36e8 CD01      		movw r24,r26
 8268 36ea 0E94 0000 		call __fixunssfsi
 8269 36ee DC01      		movw r26,r24
 8270 36f0 CB01      		movw r24,r22
 8271 36f2 9FAB      		std Y+55,r25
 8272 36f4 8EAB      		std Y+54,r24
 8273 36f6 00C0      		rjmp .L525
 8274               	.L526:
 8275 36f8 80E9      		ldi r24,lo8(400)
 8276 36fa 91E0      		ldi r25,hi8(400)
 8277 36fc 9DAB      		std Y+53,r25
 8278 36fe 8CAB      		std Y+52,r24
 8279               	.LBB476:
 8280               	.LBB477:
 8281               	.LM499:
 8282 3700 8CA9      		ldd r24,Y+52
 8283 3702 9DA9      		ldd r25,Y+53
 8284               	/* #APP */
 8285               	 ;  105 "d:/winavr-20100110/lib/gcc/../../avr/include/util/delay_basic.h" 1
 8286 3704 0197      		1: sbiw r24,1
 8287 3706 01F4      		brne 1b
 8288               	 ;  0 "" 2
 8289               	/* #NOAPP */
 8290 3708 9DAB      		std Y+53,r25
 8291 370a 8CAB      		std Y+52,r24
 8292               	.LBE477:
 8293               	.LBE476:
 8294               	.LM500:
 8295 370c 8EA9      		ldd r24,Y+54
 8296 370e 9FA9      		ldd r25,Y+55
 8297 3710 0197      		sbiw r24,1
 8298 3712 9FAB      		std Y+55,r25
 8299 3714 8EAB      		std Y+54,r24
 8300               	.L525:
 8301               	.LM501:
 8302 3716 8EA9      		ldd r24,Y+54
 8303 3718 9FA9      		ldd r25,Y+55
 8304 371a 0097      		sbiw r24,0
 8305 371c 01F4      		brne .L526
 8306 371e 00C0      		rjmp .L528
 8307               	.L597:
 8308               	.LM502:
 8309 3720 68AD      		ldd r22,Y+56
 8310 3722 79AD      		ldd r23,Y+57
 8311 3724 8AAD      		ldd r24,Y+58
 8312 3726 9BAD      		ldd r25,Y+59
 8313 3728 0E94 0000 		call __fixunssfsi
 8314 372c DC01      		movw r26,r24
 8315 372e CB01      		movw r24,r22
 8316 3730 9FAB      		std Y+55,r25
 8317 3732 8EAB      		std Y+54,r24
 8318               	.L522:
 8319 3734 8EA9      		ldd r24,Y+54
 8320 3736 9FA9      		ldd r25,Y+55
 8321 3738 9BAB      		std Y+51,r25
 8322 373a 8AAB      		std Y+50,r24
 8323               	.LBB478:
 8324               	.LBB479:
 8325               	.LM503:
 8326 373c 8AA9      		ldd r24,Y+50
 8327 373e 9BA9      		ldd r25,Y+51
 8328               	/* #APP */
 8329               	 ;  105 "d:/winavr-20100110/lib/gcc/../../avr/include/util/delay_basic.h" 1
 8330 3740 0197      		1: sbiw r24,1
 8331 3742 01F4      		brne 1b
 8332               	 ;  0 "" 2
 8333               	/* #NOAPP */
 8334 3744 9BAB      		std Y+51,r25
 8335 3746 8AAB      		std Y+50,r24
 8336 3748 00C0      		rjmp .L528
 8337               	.L595:
 8338               	.LBE479:
 8339               	.LBE478:
 8340               	.LBE475:
 8341               	.LBE474:
 8342               	.LM504:
 8343 374a FE01      		movw r30,r28
 8344 374c EF5B      		subi r30,lo8(-(65))
 8345 374e FF4F      		sbci r31,hi8(-(65))
 8346 3750 6081      		ld r22,Z
 8347 3752 7181      		ldd r23,Z+1
 8348 3754 8281      		ldd r24,Z+2
 8349 3756 9381      		ldd r25,Z+3
 8350 3758 0E94 0000 		call __fixunssfsi
 8351 375c DC01      		movw r26,r24
 8352 375e CB01      		movw r24,r22
 8353 3760 FE01      		movw r30,r28
 8354 3762 E05C      		subi r30,lo8(-(64))
 8355 3764 FF4F      		sbci r31,hi8(-(64))
 8356 3766 8083      		st Z,r24
 8357               	.L517:
 8358 3768 FE01      		movw r30,r28
 8359 376a E05C      		subi r30,lo8(-(64))
 8360 376c FF4F      		sbci r31,hi8(-(64))
 8361 376e 8081      		ld r24,Z
 8362 3770 89AB      		std Y+49,r24
 8363               	.LBB480:
 8364               	.LBB481:
 8365               	.LM505:
 8366 3772 89A9      		ldd r24,Y+49
 8367               	/* #APP */
 8368               	 ;  83 "d:/winavr-20100110/lib/gcc/../../avr/include/util/delay_basic.h" 1
 8369 3774 8A95      		1: dec r24
 8370 3776 01F4      		brne 1b
 8371               	 ;  0 "" 2
 8372               	/* #NOAPP */
 8373 3778 89AB      		std Y+49,r24
 8374               	.L528:
 8375               	.LBE481:
 8376               	.LBE480:
 8377               	.LBE473:
 8378               	.LBE472:
 8379               	.LM506:
 8380 377a 1092 0000 		sts i,__zero_reg__
 8381 377e 00C0      		rjmp .L529
 8382               	.L530:
 8383               	.LM507:
 8384 3780 A5E3      		ldi r26,lo8(53)
 8385 3782 B0E0      		ldi r27,hi8(53)
 8386 3784 E5E3      		ldi r30,lo8(53)
 8387 3786 F0E0      		ldi r31,hi8(53)
 8388 3788 8081      		ld r24,Z
 8389 378a 8B7F      		andi r24,lo8(-5)
 8390 378c 8C93      		st X,r24
 8391               	.LM508:
 8392 378e A5E3      		ldi r26,lo8(53)
 8393 3790 B0E0      		ldi r27,hi8(53)
 8394 3792 E5E3      		ldi r30,lo8(53)
 8395 3794 F0E0      		ldi r31,hi8(53)
 8396 3796 8081      		ld r24,Z
 8397 3798 8E7F      		andi r24,lo8(-2)
 8398 379a 8C93      		st X,r24
 8399               	.LM509:
 8400 379c A5E3      		ldi r26,lo8(53)
 8401 379e B0E0      		ldi r27,hi8(53)
 8402 37a0 E5E3      		ldi r30,lo8(53)
 8403 37a2 F0E0      		ldi r31,hi8(53)
 8404 37a4 8081      		ld r24,Z
 8405 37a6 8160      		ori r24,lo8(1)
 8406 37a8 8C93      		st X,r24
 8407               	.LM510:
 8408 37aa 8091 0000 		lds r24,i
 8409 37ae 8F5F      		subi r24,lo8(-(1))
 8410 37b0 8093 0000 		sts i,r24
 8411               	.L529:
 8412 37b4 8091 0000 		lds r24,i
 8413 37b8 8830      		cpi r24,lo8(8)
 8414 37ba 00F0      		brlo .L530
 8415               	.LM511:
 8416 37bc A5E3      		ldi r26,lo8(53)
 8417 37be B0E0      		ldi r27,hi8(53)
 8418 37c0 E5E3      		ldi r30,lo8(53)
 8419 37c2 F0E0      		ldi r31,hi8(53)
 8420 37c4 8081      		ld r24,Z
 8421 37c6 8460      		ori r24,lo8(4)
 8422 37c8 8C93      		st X,r24
 8423               	.LM512:
 8424 37ca 81E0      		ldi r24,lo8(1)
 8425 37cc 8093 0000 		sts PS2byte,r24
 8426               	.LM513:
 8427 37d0 1092 0000 		sts i,__zero_reg__
 8428 37d4 00C0      		rjmp .L531
 8429               	.L534:
 8430               	.LM514:
 8431 37d6 8091 0000 		lds r24,PS2byte
 8432 37da 282F      		mov r18,r24
 8433 37dc 30E0      		ldi r19,lo8(0)
 8434 37de 8091 0000 		lds r24,i
 8435 37e2 882F      		mov r24,r24
 8436 37e4 90E0      		ldi r25,lo8(0)
 8437 37e6 A901      		movw r20,r18
 8438 37e8 00C0      		rjmp 2f
 8439 37ea 5595      	1:	asr r21
 8440 37ec 4795      		ror r20
 8441 37ee 8A95      	2:	dec r24
 8442 37f0 02F4      		brpl 1b
 8443 37f2 CA01      		movw r24,r20
 8444 37f4 8170      		andi r24,lo8(1)
 8445 37f6 9070      		andi r25,hi8(1)
 8446 37f8 8823      		tst r24
 8447 37fa 01F0      		breq .L532
 8448 37fc A5E3      		ldi r26,lo8(53)
 8449 37fe B0E0      		ldi r27,hi8(53)
 8450 3800 E5E3      		ldi r30,lo8(53)
 8451 3802 F0E0      		ldi r31,hi8(53)
 8452 3804 8081      		ld r24,Z
 8453 3806 8460      		ori r24,lo8(4)
 8454 3808 8C93      		st X,r24
 8455 380a 00C0      		rjmp .L533
 8456               	.L532:
 8457               	.LM515:
 8458 380c A5E3      		ldi r26,lo8(53)
 8459 380e B0E0      		ldi r27,hi8(53)
 8460 3810 E5E3      		ldi r30,lo8(53)
 8461 3812 F0E0      		ldi r31,hi8(53)
 8462 3814 8081      		ld r24,Z
 8463 3816 8B7F      		andi r24,lo8(-5)
 8464 3818 8C93      		st X,r24
 8465               	.L533:
 8466               	.LM516:
 8467 381a A5E3      		ldi r26,lo8(53)
 8468 381c B0E0      		ldi r27,hi8(53)
 8469 381e E5E3      		ldi r30,lo8(53)
 8470 3820 F0E0      		ldi r31,hi8(53)
 8471 3822 8081      		ld r24,Z
 8472 3824 8E7F      		andi r24,lo8(-2)
 8473 3826 8C93      		st X,r24
 8474               	.LM517:
 8475 3828 A5E3      		ldi r26,lo8(53)
 8476 382a B0E0      		ldi r27,hi8(53)
 8477 382c E5E3      		ldi r30,lo8(53)
 8478 382e F0E0      		ldi r31,hi8(53)
 8479 3830 8081      		ld r24,Z
 8480 3832 8160      		ori r24,lo8(1)
 8481 3834 8C93      		st X,r24
 8482               	.LM518:
 8483 3836 8091 0000 		lds r24,i
 8484 383a 8F5F      		subi r24,lo8(-(1))
 8485 383c 8093 0000 		sts i,r24
 8486               	.L531:
 8487 3840 8091 0000 		lds r24,i
 8488 3844 8830      		cpi r24,lo8(8)
 8489 3846 00F0      		brlo .L534
 8490               	.LM519:
 8491 3848 A5E3      		ldi r26,lo8(53)
 8492 384a B0E0      		ldi r27,hi8(53)
 8493 384c E5E3      		ldi r30,lo8(53)
 8494 384e F0E0      		ldi r31,hi8(53)
 8495 3850 8081      		ld r24,Z
 8496 3852 8460      		ori r24,lo8(4)
 8497 3854 8C93      		st X,r24
 8498 3856 80E0      		ldi r24,lo8(0x3f800000)
 8499 3858 90E0      		ldi r25,hi8(0x3f800000)
 8500 385a A0E8      		ldi r26,hlo8(0x3f800000)
 8501 385c BFE3      		ldi r27,hhi8(0x3f800000)
 8502 385e 8DA7      		std Y+45,r24
 8503 3860 9EA7      		std Y+46,r25
 8504 3862 AFA7      		std Y+47,r26
 8505 3864 B8AB      		std Y+48,r27
 8506               	.LBB482:
 8507               	.LBB483:
 8508               	.LM520:
 8509 3866 6DA5      		ldd r22,Y+45
 8510 3868 7EA5      		ldd r23,Y+46
 8511 386a 8FA5      		ldd r24,Y+47
 8512 386c 98A9      		ldd r25,Y+48
 8513 386e 2BEA      		ldi r18,lo8(0x40aaaaab)
 8514 3870 3AEA      		ldi r19,hi8(0x40aaaaab)
 8515 3872 4AEA      		ldi r20,hlo8(0x40aaaaab)
 8516 3874 50E4      		ldi r21,hhi8(0x40aaaaab)
 8517 3876 0E94 0000 		call __mulsf3
 8518 387a DC01      		movw r26,r24
 8519 387c CB01      		movw r24,r22
 8520 387e 89A7      		std Y+41,r24
 8521 3880 9AA7      		std Y+42,r25
 8522 3882 ABA7      		std Y+43,r26
 8523 3884 BCA7      		std Y+44,r27
 8524               	.LM521:
 8525 3886 69A5      		ldd r22,Y+41
 8526 3888 7AA5      		ldd r23,Y+42
 8527 388a 8BA5      		ldd r24,Y+43
 8528 388c 9CA5      		ldd r25,Y+44
 8529 388e 20E0      		ldi r18,lo8(0x3f800000)
 8530 3890 30E0      		ldi r19,hi8(0x3f800000)
 8531 3892 40E8      		ldi r20,hlo8(0x3f800000)
 8532 3894 5FE3      		ldi r21,hhi8(0x3f800000)
 8533 3896 0E94 0000 		call __ltsf2
 8534 389a 8823      		tst r24
 8535 389c 04F4      		brge .L598
 8536               	.L578:
 8537               	.LM522:
 8538 389e 81E0      		ldi r24,lo8(1)
 8539 38a0 88A7      		std Y+40,r24
 8540 38a2 00C0      		rjmp .L537
 8541               	.L598:
 8542               	.LM523:
 8543 38a4 69A5      		ldd r22,Y+41
 8544 38a6 7AA5      		ldd r23,Y+42
 8545 38a8 8BA5      		ldd r24,Y+43
 8546 38aa 9CA5      		ldd r25,Y+44
 8547 38ac 20E0      		ldi r18,lo8(0x437f0000)
 8548 38ae 30E0      		ldi r19,hi8(0x437f0000)
 8549 38b0 4FE7      		ldi r20,hlo8(0x437f0000)
 8550 38b2 53E4      		ldi r21,hhi8(0x437f0000)
 8551 38b4 0E94 0000 		call __gtsf2
 8552 38b8 1816      		cp __zero_reg__,r24
 8553 38ba 04F0      		brlt .+2
 8554 38bc 00C0      		rjmp .L599
 8555               	.L579:
 8556               	.LM524:
 8557 38be 6DA5      		ldd r22,Y+45
 8558 38c0 7EA5      		ldd r23,Y+46
 8559 38c2 8FA5      		ldd r24,Y+47
 8560 38c4 98A9      		ldd r25,Y+48
 8561 38c6 20E0      		ldi r18,lo8(0x447a0000)
 8562 38c8 30E0      		ldi r19,hi8(0x447a0000)
 8563 38ca 4AE7      		ldi r20,hlo8(0x447a0000)
 8564 38cc 54E4      		ldi r21,hhi8(0x447a0000)
 8565 38ce 0E94 0000 		call __divsf3
 8566 38d2 DC01      		movw r26,r24
 8567 38d4 CB01      		movw r24,r22
 8568 38d6 8CA3      		std Y+36,r24
 8569 38d8 9DA3      		std Y+37,r25
 8570 38da AEA3      		std Y+38,r26
 8571 38dc BFA3      		std Y+39,r27
 8572               	.LBB484:
 8573               	.LBB485:
 8574               	.LM525:
 8575 38de 6CA1      		ldd r22,Y+36
 8576 38e0 7DA1      		ldd r23,Y+37
 8577 38e2 8EA1      		ldd r24,Y+38
 8578 38e4 9FA1      		ldd r25,Y+39
 8579 38e6 20E0      		ldi r18,lo8(0x457a0000)
 8580 38e8 30E0      		ldi r19,hi8(0x457a0000)
 8581 38ea 4AE7      		ldi r20,hlo8(0x457a0000)
 8582 38ec 55E4      		ldi r21,hhi8(0x457a0000)
 8583 38ee 0E94 0000 		call __mulsf3
 8584 38f2 DC01      		movw r26,r24
 8585 38f4 CB01      		movw r24,r22
 8586 38f6 88A3      		std Y+32,r24
 8587 38f8 99A3      		std Y+33,r25
 8588 38fa AAA3      		std Y+34,r26
 8589 38fc BBA3      		std Y+35,r27
 8590               	.LM526:
 8591 38fe 68A1      		ldd r22,Y+32
 8592 3900 79A1      		ldd r23,Y+33
 8593 3902 8AA1      		ldd r24,Y+34
 8594 3904 9BA1      		ldd r25,Y+35
 8595 3906 20E0      		ldi r18,lo8(0x3f800000)
 8596 3908 30E0      		ldi r19,hi8(0x3f800000)
 8597 390a 40E8      		ldi r20,hlo8(0x3f800000)
 8598 390c 5FE3      		ldi r21,hhi8(0x3f800000)
 8599 390e 0E94 0000 		call __ltsf2
 8600 3912 8823      		tst r24
 8601 3914 04F4      		brge .L600
 8602               	.L580:
 8603               	.LM527:
 8604 3916 81E0      		ldi r24,lo8(1)
 8605 3918 90E0      		ldi r25,hi8(1)
 8606 391a 9F8F      		std Y+31,r25
 8607 391c 8E8F      		std Y+30,r24
 8608 391e 00C0      		rjmp .L542
 8609               	.L600:
 8610               	.LM528:
 8611 3920 68A1      		ldd r22,Y+32
 8612 3922 79A1      		ldd r23,Y+33
 8613 3924 8AA1      		ldd r24,Y+34
 8614 3926 9BA1      		ldd r25,Y+35
 8615 3928 20E0      		ldi r18,lo8(0x477fff00)
 8616 392a 3FEF      		ldi r19,hi8(0x477fff00)
 8617 392c 4FE7      		ldi r20,hlo8(0x477fff00)
 8618 392e 57E4      		ldi r21,hhi8(0x477fff00)
 8619 3930 0E94 0000 		call __gtsf2
 8620 3934 1816      		cp __zero_reg__,r24
 8621 3936 04F4      		brge .L601
 8622               	.L581:
 8623               	.LM529:
 8624 3938 6CA1      		ldd r22,Y+36
 8625 393a 7DA1      		ldd r23,Y+37
 8626 393c 8EA1      		ldd r24,Y+38
 8627 393e 9FA1      		ldd r25,Y+39
 8628 3940 20E0      		ldi r18,lo8(0x41200000)
 8629 3942 30E0      		ldi r19,hi8(0x41200000)
 8630 3944 40E2      		ldi r20,hlo8(0x41200000)
 8631 3946 51E4      		ldi r21,hhi8(0x41200000)
 8632 3948 0E94 0000 		call __mulsf3
 8633 394c DC01      		movw r26,r24
 8634 394e CB01      		movw r24,r22
 8635 3950 BC01      		movw r22,r24
 8636 3952 CD01      		movw r24,r26
 8637 3954 0E94 0000 		call __fixunssfsi
 8638 3958 DC01      		movw r26,r24
 8639 395a CB01      		movw r24,r22
 8640 395c 9F8F      		std Y+31,r25
 8641 395e 8E8F      		std Y+30,r24
 8642 3960 00C0      		rjmp .L545
 8643               	.L546:
 8644 3962 80E9      		ldi r24,lo8(400)
 8645 3964 91E0      		ldi r25,hi8(400)
 8646 3966 9D8F      		std Y+29,r25
 8647 3968 8C8F      		std Y+28,r24
 8648               	.LBB486:
 8649               	.LBB487:
 8650               	.LM530:
 8651 396a 8C8D      		ldd r24,Y+28
 8652 396c 9D8D      		ldd r25,Y+29
 8653               	/* #APP */
 8654               	 ;  105 "d:/winavr-20100110/lib/gcc/../../avr/include/util/delay_basic.h" 1
 8655 396e 0197      		1: sbiw r24,1
 8656 3970 01F4      		brne 1b
 8657               	 ;  0 "" 2
 8658               	/* #NOAPP */
 8659 3972 9D8F      		std Y+29,r25
 8660 3974 8C8F      		std Y+28,r24
 8661               	.LBE487:
 8662               	.LBE486:
 8663               	.LM531:
 8664 3976 8E8D      		ldd r24,Y+30
 8665 3978 9F8D      		ldd r25,Y+31
 8666 397a 0197      		sbiw r24,1
 8667 397c 9F8F      		std Y+31,r25
 8668 397e 8E8F      		std Y+30,r24
 8669               	.L545:
 8670               	.LM532:
 8671 3980 8E8D      		ldd r24,Y+30
 8672 3982 9F8D      		ldd r25,Y+31
 8673 3984 0097      		sbiw r24,0
 8674 3986 01F4      		brne .L546
 8675 3988 00C0      		rjmp .L548
 8676               	.L601:
 8677               	.LM533:
 8678 398a 68A1      		ldd r22,Y+32
 8679 398c 79A1      		ldd r23,Y+33
 8680 398e 8AA1      		ldd r24,Y+34
 8681 3990 9BA1      		ldd r25,Y+35
 8682 3992 0E94 0000 		call __fixunssfsi
 8683 3996 DC01      		movw r26,r24
 8684 3998 CB01      		movw r24,r22
 8685 399a 9F8F      		std Y+31,r25
 8686 399c 8E8F      		std Y+30,r24
 8687               	.L542:
 8688 399e 8E8D      		ldd r24,Y+30
 8689 39a0 9F8D      		ldd r25,Y+31
 8690 39a2 9B8F      		std Y+27,r25
 8691 39a4 8A8F      		std Y+26,r24
 8692               	.LBB488:
 8693               	.LBB489:
 8694               	.LM534:
 8695 39a6 8A8D      		ldd r24,Y+26
 8696 39a8 9B8D      		ldd r25,Y+27
 8697               	/* #APP */
 8698               	 ;  105 "d:/winavr-20100110/lib/gcc/../../avr/include/util/delay_basic.h" 1
 8699 39aa 0197      		1: sbiw r24,1
 8700 39ac 01F4      		brne 1b
 8701               	 ;  0 "" 2
 8702               	/* #NOAPP */
 8703 39ae 9B8F      		std Y+27,r25
 8704 39b0 8A8F      		std Y+26,r24
 8705 39b2 00C0      		rjmp .L548
 8706               	.L599:
 8707               	.LBE489:
 8708               	.LBE488:
 8709               	.LBE485:
 8710               	.LBE484:
 8711               	.LM535:
 8712 39b4 69A5      		ldd r22,Y+41
 8713 39b6 7AA5      		ldd r23,Y+42
 8714 39b8 8BA5      		ldd r24,Y+43
 8715 39ba 9CA5      		ldd r25,Y+44
 8716 39bc 0E94 0000 		call __fixunssfsi
 8717 39c0 DC01      		movw r26,r24
 8718 39c2 CB01      		movw r24,r22
 8719 39c4 88A7      		std Y+40,r24
 8720               	.L537:
 8721 39c6 88A5      		ldd r24,Y+40
 8722 39c8 898F      		std Y+25,r24
 8723               	.LBB490:
 8724               	.LBB491:
 8725               	.LM536:
 8726 39ca 898D      		ldd r24,Y+25
 8727               	/* #APP */
 8728               	 ;  83 "d:/winavr-20100110/lib/gcc/../../avr/include/util/delay_basic.h" 1
 8729 39cc 8A95      		1: dec r24
 8730 39ce 01F4      		brne 1b
 8731               	 ;  0 "" 2
 8732               	/* #NOAPP */
 8733 39d0 898F      		std Y+25,r24
 8734               	.L548:
 8735               	.LBE491:
 8736               	.LBE490:
 8737               	.LBE483:
 8738               	.LBE482:
 8739               	.LM537:
 8740 39d2 1092 0000 		sts i,__zero_reg__
 8741 39d6 00C0      		rjmp .L549
 8742               	.L550:
 8743               	.LM538:
 8744 39d8 A5E3      		ldi r26,lo8(53)
 8745 39da B0E0      		ldi r27,hi8(53)
 8746 39dc E5E3      		ldi r30,lo8(53)
 8747 39de F0E0      		ldi r31,hi8(53)
 8748 39e0 8081      		ld r24,Z
 8749 39e2 8B7F      		andi r24,lo8(-5)
 8750 39e4 8C93      		st X,r24
 8751               	.LM539:
 8752 39e6 A5E3      		ldi r26,lo8(53)
 8753 39e8 B0E0      		ldi r27,hi8(53)
 8754 39ea E5E3      		ldi r30,lo8(53)
 8755 39ec F0E0      		ldi r31,hi8(53)
 8756 39ee 8081      		ld r24,Z
 8757 39f0 8E7F      		andi r24,lo8(-2)
 8758 39f2 8C93      		st X,r24
 8759               	.LM540:
 8760 39f4 A5E3      		ldi r26,lo8(53)
 8761 39f6 B0E0      		ldi r27,hi8(53)
 8762 39f8 E5E3      		ldi r30,lo8(53)
 8763 39fa F0E0      		ldi r31,hi8(53)
 8764 39fc 8081      		ld r24,Z
 8765 39fe 8160      		ori r24,lo8(1)
 8766 3a00 8C93      		st X,r24
 8767               	.LM541:
 8768 3a02 8091 0000 		lds r24,i
 8769 3a06 8F5F      		subi r24,lo8(-(1))
 8770 3a08 8093 0000 		sts i,r24
 8771               	.L549:
 8772 3a0c 8091 0000 		lds r24,i
 8773 3a10 8830      		cpi r24,lo8(8)
 8774 3a12 00F0      		brlo .L550
 8775               	.LM542:
 8776 3a14 A5E3      		ldi r26,lo8(53)
 8777 3a16 B0E0      		ldi r27,hi8(53)
 8778 3a18 E5E3      		ldi r30,lo8(53)
 8779 3a1a F0E0      		ldi r31,hi8(53)
 8780 3a1c 8081      		ld r24,Z
 8781 3a1e 8460      		ori r24,lo8(4)
 8782 3a20 8C93      		st X,r24
 8783 3a22 80E0      		ldi r24,lo8(0x3f800000)
 8784 3a24 90E0      		ldi r25,hi8(0x3f800000)
 8785 3a26 A0E8      		ldi r26,hlo8(0x3f800000)
 8786 3a28 BFE3      		ldi r27,hhi8(0x3f800000)
 8787 3a2a 8D8B      		std Y+21,r24
 8788 3a2c 9E8B      		std Y+22,r25
 8789 3a2e AF8B      		std Y+23,r26
 8790 3a30 B88F      		std Y+24,r27
 8791               	.LBB492:
 8792               	.LBB493:
 8793               	.LM543:
 8794 3a32 6D89      		ldd r22,Y+21
 8795 3a34 7E89      		ldd r23,Y+22
 8796 3a36 8F89      		ldd r24,Y+23
 8797 3a38 988D      		ldd r25,Y+24
 8798 3a3a 2BEA      		ldi r18,lo8(0x40aaaaab)
 8799 3a3c 3AEA      		ldi r19,hi8(0x40aaaaab)
 8800 3a3e 4AEA      		ldi r20,hlo8(0x40aaaaab)
 8801 3a40 50E4      		ldi r21,hhi8(0x40aaaaab)
 8802 3a42 0E94 0000 		call __mulsf3
 8803 3a46 DC01      		movw r26,r24
 8804 3a48 CB01      		movw r24,r22
 8805 3a4a 898B      		std Y+17,r24
 8806 3a4c 9A8B      		std Y+18,r25
 8807 3a4e AB8B      		std Y+19,r26
 8808 3a50 BC8B      		std Y+20,r27
 8809               	.LM544:
 8810 3a52 6989      		ldd r22,Y+17
 8811 3a54 7A89      		ldd r23,Y+18
 8812 3a56 8B89      		ldd r24,Y+19
 8813 3a58 9C89      		ldd r25,Y+20
 8814 3a5a 20E0      		ldi r18,lo8(0x3f800000)
 8815 3a5c 30E0      		ldi r19,hi8(0x3f800000)
 8816 3a5e 40E8      		ldi r20,hlo8(0x3f800000)
 8817 3a60 5FE3      		ldi r21,hhi8(0x3f800000)
 8818 3a62 0E94 0000 		call __ltsf2
 8819 3a66 8823      		tst r24
 8820 3a68 04F4      		brge .L602
 8821               	.L582:
 8822               	.LM545:
 8823 3a6a 81E0      		ldi r24,lo8(1)
 8824 3a6c 888B      		std Y+16,r24
 8825 3a6e 00C0      		rjmp .L553
 8826               	.L602:
 8827               	.LM546:
 8828 3a70 6989      		ldd r22,Y+17
 8829 3a72 7A89      		ldd r23,Y+18
 8830 3a74 8B89      		ldd r24,Y+19
 8831 3a76 9C89      		ldd r25,Y+20
 8832 3a78 20E0      		ldi r18,lo8(0x437f0000)
 8833 3a7a 30E0      		ldi r19,hi8(0x437f0000)
 8834 3a7c 4FE7      		ldi r20,hlo8(0x437f0000)
 8835 3a7e 53E4      		ldi r21,hhi8(0x437f0000)
 8836 3a80 0E94 0000 		call __gtsf2
 8837 3a84 1816      		cp __zero_reg__,r24
 8838 3a86 04F0      		brlt .+2
 8839 3a88 00C0      		rjmp .L603
 8840               	.L583:
 8841               	.LM547:
 8842 3a8a 6D89      		ldd r22,Y+21
 8843 3a8c 7E89      		ldd r23,Y+22
 8844 3a8e 8F89      		ldd r24,Y+23
 8845 3a90 988D      		ldd r25,Y+24
 8846 3a92 20E0      		ldi r18,lo8(0x447a0000)
 8847 3a94 30E0      		ldi r19,hi8(0x447a0000)
 8848 3a96 4AE7      		ldi r20,hlo8(0x447a0000)
 8849 3a98 54E4      		ldi r21,hhi8(0x447a0000)
 8850 3a9a 0E94 0000 		call __divsf3
 8851 3a9e DC01      		movw r26,r24
 8852 3aa0 CB01      		movw r24,r22
 8853 3aa2 8C87      		std Y+12,r24
 8854 3aa4 9D87      		std Y+13,r25
 8855 3aa6 AE87      		std Y+14,r26
 8856 3aa8 BF87      		std Y+15,r27
 8857               	.LBB494:
 8858               	.LBB495:
 8859               	.LM548:
 8860 3aaa 6C85      		ldd r22,Y+12
 8861 3aac 7D85      		ldd r23,Y+13
 8862 3aae 8E85      		ldd r24,Y+14
 8863 3ab0 9F85      		ldd r25,Y+15
 8864 3ab2 20E0      		ldi r18,lo8(0x457a0000)
 8865 3ab4 30E0      		ldi r19,hi8(0x457a0000)
 8866 3ab6 4AE7      		ldi r20,hlo8(0x457a0000)
 8867 3ab8 55E4      		ldi r21,hhi8(0x457a0000)
 8868 3aba 0E94 0000 		call __mulsf3
 8869 3abe DC01      		movw r26,r24
 8870 3ac0 CB01      		movw r24,r22
 8871 3ac2 8887      		std Y+8,r24
 8872 3ac4 9987      		std Y+9,r25
 8873 3ac6 AA87      		std Y+10,r26
 8874 3ac8 BB87      		std Y+11,r27
 8875               	.LM549:
 8876 3aca 6885      		ldd r22,Y+8
 8877 3acc 7985      		ldd r23,Y+9
 8878 3ace 8A85      		ldd r24,Y+10
 8879 3ad0 9B85      		ldd r25,Y+11
 8880 3ad2 20E0      		ldi r18,lo8(0x3f800000)
 8881 3ad4 30E0      		ldi r19,hi8(0x3f800000)
 8882 3ad6 40E8      		ldi r20,hlo8(0x3f800000)
 8883 3ad8 5FE3      		ldi r21,hhi8(0x3f800000)
 8884 3ada 0E94 0000 		call __ltsf2
 8885 3ade 8823      		tst r24
 8886 3ae0 04F4      		brge .L604
 8887               	.L584:
 8888               	.LM550:
 8889 3ae2 81E0      		ldi r24,lo8(1)
 8890 3ae4 90E0      		ldi r25,hi8(1)
 8891 3ae6 9F83      		std Y+7,r25
 8892 3ae8 8E83      		std Y+6,r24
 8893 3aea 00C0      		rjmp .L558
 8894               	.L604:
 8895               	.LM551:
 8896 3aec 6885      		ldd r22,Y+8
 8897 3aee 7985      		ldd r23,Y+9
 8898 3af0 8A85      		ldd r24,Y+10
 8899 3af2 9B85      		ldd r25,Y+11
 8900 3af4 20E0      		ldi r18,lo8(0x477fff00)
 8901 3af6 3FEF      		ldi r19,hi8(0x477fff00)
 8902 3af8 4FE7      		ldi r20,hlo8(0x477fff00)
 8903 3afa 57E4      		ldi r21,hhi8(0x477fff00)
 8904 3afc 0E94 0000 		call __gtsf2
 8905 3b00 1816      		cp __zero_reg__,r24
 8906 3b02 04F4      		brge .L605
 8907               	.L585:
 8908               	.LM552:
 8909 3b04 6C85      		ldd r22,Y+12
 8910 3b06 7D85      		ldd r23,Y+13
 8911 3b08 8E85      		ldd r24,Y+14
 8912 3b0a 9F85      		ldd r25,Y+15
 8913 3b0c 20E0      		ldi r18,lo8(0x41200000)
 8914 3b0e 30E0      		ldi r19,hi8(0x41200000)
 8915 3b10 40E2      		ldi r20,hlo8(0x41200000)
 8916 3b12 51E4      		ldi r21,hhi8(0x41200000)
 8917 3b14 0E94 0000 		call __mulsf3
 8918 3b18 DC01      		movw r26,r24
 8919 3b1a CB01      		movw r24,r22
 8920 3b1c BC01      		movw r22,r24
 8921 3b1e CD01      		movw r24,r26
 8922 3b20 0E94 0000 		call __fixunssfsi
 8923 3b24 DC01      		movw r26,r24
 8924 3b26 CB01      		movw r24,r22
 8925 3b28 9F83      		std Y+7,r25
 8926 3b2a 8E83      		std Y+6,r24
 8927 3b2c 00C0      		rjmp .L561
 8928               	.L562:
 8929 3b2e 80E9      		ldi r24,lo8(400)
 8930 3b30 91E0      		ldi r25,hi8(400)
 8931 3b32 9D83      		std Y+5,r25
 8932 3b34 8C83      		std Y+4,r24
 8933               	.LBB496:
 8934               	.LBB497:
 8935               	.LM553:
 8936 3b36 8C81      		ldd r24,Y+4
 8937 3b38 9D81      		ldd r25,Y+5
 8938               	/* #APP */
 8939               	 ;  105 "d:/winavr-20100110/lib/gcc/../../avr/include/util/delay_basic.h" 1
 8940 3b3a 0197      		1: sbiw r24,1
 8941 3b3c 01F4      		brne 1b
 8942               	 ;  0 "" 2
 8943               	/* #NOAPP */
 8944 3b3e 9D83      		std Y+5,r25
 8945 3b40 8C83      		std Y+4,r24
 8946               	.LBE497:
 8947               	.LBE496:
 8948               	.LM554:
 8949 3b42 8E81      		ldd r24,Y+6
 8950 3b44 9F81      		ldd r25,Y+7
 8951 3b46 0197      		sbiw r24,1
 8952 3b48 9F83      		std Y+7,r25
 8953 3b4a 8E83      		std Y+6,r24
 8954               	.L561:
 8955               	.LM555:
 8956 3b4c 8E81      		ldd r24,Y+6
 8957 3b4e 9F81      		ldd r25,Y+7
 8958 3b50 0097      		sbiw r24,0
 8959 3b52 01F4      		brne .L562
 8960 3b54 00C0      		rjmp .L564
 8961               	.L605:
 8962               	.LM556:
 8963 3b56 6885      		ldd r22,Y+8
 8964 3b58 7985      		ldd r23,Y+9
 8965 3b5a 8A85      		ldd r24,Y+10
 8966 3b5c 9B85      		ldd r25,Y+11
 8967 3b5e 0E94 0000 		call __fixunssfsi
 8968 3b62 DC01      		movw r26,r24
 8969 3b64 CB01      		movw r24,r22
 8970 3b66 9F83      		std Y+7,r25
 8971 3b68 8E83      		std Y+6,r24
 8972               	.L558:
 8973 3b6a 8E81      		ldd r24,Y+6
 8974 3b6c 9F81      		ldd r25,Y+7
 8975 3b6e 9B83      		std Y+3,r25
 8976 3b70 8A83      		std Y+2,r24
 8977               	.LBB498:
 8978               	.LBB499:
 8979               	.LM557:
 8980 3b72 8A81      		ldd r24,Y+2
 8981 3b74 9B81      		ldd r25,Y+3
 8982               	/* #APP */
 8983               	 ;  105 "d:/winavr-20100110/lib/gcc/../../avr/include/util/delay_basic.h" 1
 8984 3b76 0197      		1: sbiw r24,1
 8985 3b78 01F4      		brne 1b
 8986               	 ;  0 "" 2
 8987               	/* #NOAPP */
 8988 3b7a 9B83      		std Y+3,r25
 8989 3b7c 8A83      		std Y+2,r24
 8990 3b7e 00C0      		rjmp .L564
 8991               	.L603:
 8992               	.LBE499:
 8993               	.LBE498:
 8994               	.LBE495:
 8995               	.LBE494:
 8996               	.LM558:
 8997 3b80 6989      		ldd r22,Y+17
 8998 3b82 7A89      		ldd r23,Y+18
 8999 3b84 8B89      		ldd r24,Y+19
 9000 3b86 9C89      		ldd r25,Y+20
 9001 3b88 0E94 0000 		call __fixunssfsi
 9002 3b8c DC01      		movw r26,r24
 9003 3b8e CB01      		movw r24,r22
 9004 3b90 888B      		std Y+16,r24
 9005               	.L553:
 9006 3b92 8889      		ldd r24,Y+16
 9007 3b94 8983      		std Y+1,r24
 9008               	.LBB500:
 9009               	.LBB501:
 9010               	.LM559:
 9011 3b96 8981      		ldd r24,Y+1
 9012               	/* #APP */
 9013               	 ;  83 "d:/winavr-20100110/lib/gcc/../../avr/include/util/delay_basic.h" 1
 9014 3b98 8A95      		1: dec r24
 9015 3b9a 01F4      		brne 1b
 9016               	 ;  0 "" 2
 9017               	/* #NOAPP */
 9018 3b9c 8983      		std Y+1,r24
 9019               	.L564:
 9020               	.LBE501:
 9021               	.LBE500:
 9022               	.LBE493:
 9023               	.LBE492:
 9024               	.LM560:
 9025 3b9e A5E3      		ldi r26,lo8(53)
 9026 3ba0 B0E0      		ldi r27,hi8(53)
 9027 3ba2 E5E3      		ldi r30,lo8(53)
 9028 3ba4 F0E0      		ldi r31,hi8(53)
 9029 3ba6 8081      		ld r24,Z
 9030 3ba8 8061      		ori r24,lo8(16)
 9031 3baa 8C93      		st X,r24
 9032               	/* epilogue start */
 9033               	.LM561:
 9034 3bac C858      		subi r28,lo8(-(120))
 9035 3bae DF4F      		sbci r29,hi8(-(120))
 9036 3bb0 0FB6      		in __tmp_reg__,__SREG__
 9037 3bb2 F894      		cli
 9038 3bb4 DEBF      		out __SP_H__,r29
 9039 3bb6 0FBE      		out __SREG__,__tmp_reg__
 9040 3bb8 CDBF      		out __SP_L__,r28
 9041 3bba CF91      		pop r28
 9042 3bbc DF91      		pop r29
 9043 3bbe 1F91      		pop r17
 9044 3bc0 0F91      		pop r16
 9045 3bc2 0895      		ret
 9046               	.LFE8:
 9048               	.global	analog
 9050               	analog:
 9051               	.LFB9:
 9052               	.LM562:
 9053 3bc4 0F93      		push r16
 9054 3bc6 1F93      		push r17
 9055 3bc8 DF93      		push r29
 9056 3bca CF93      		push r28
 9057 3bcc CDB7      		in r28,__SP_L__
 9058 3bce DEB7      		in r29,__SP_H__
 9059 3bd0 C059      		subi r28,lo8(-(-144))
 9060 3bd2 D040      		sbci r29,hi8(-(-144))
 9061 3bd4 0FB6      		in __tmp_reg__,__SREG__
 9062 3bd6 F894      		cli
 9063 3bd8 DEBF      		out __SP_H__,r29
 9064 3bda 0FBE      		out __SREG__,__tmp_reg__
 9065 3bdc CDBF      		out __SP_L__,r28
 9066               	/* prologue: function */
 9067               	/* frame size = 144 */
 9068               	.LM563:
 9069 3bde A5E3      		ldi r26,lo8(53)
 9070 3be0 B0E0      		ldi r27,hi8(53)
 9071 3be2 E5E3      		ldi r30,lo8(53)
 9072 3be4 F0E0      		ldi r31,hi8(53)
 9073 3be6 8081      		ld r24,Z
 9074 3be8 8460      		ori r24,lo8(4)
 9075 3bea 8C93      		st X,r24
 9076               	.LM564:
 9077 3bec A5E3      		ldi r26,lo8(53)
 9078 3bee B0E0      		ldi r27,hi8(53)
 9079 3bf0 E5E3      		ldi r30,lo8(53)
 9080 3bf2 F0E0      		ldi r31,hi8(53)
 9081 3bf4 8081      		ld r24,Z
 9082 3bf6 8160      		ori r24,lo8(1)
 9083 3bf8 8C93      		st X,r24
 9084               	.LM565:
 9085 3bfa A5E3      		ldi r26,lo8(53)
 9086 3bfc B0E0      		ldi r27,hi8(53)
 9087 3bfe E5E3      		ldi r30,lo8(53)
 9088 3c00 F0E0      		ldi r31,hi8(53)
 9089 3c02 8081      		ld r24,Z
 9090 3c04 8F7E      		andi r24,lo8(-17)
 9091 3c06 8C93      		st X,r24
 9092 3c08 FE01      		movw r30,r28
 9093 3c0a E357      		subi r30,lo8(-(141))
 9094 3c0c FF4F      		sbci r31,hi8(-(141))
 9095 3c0e 80E0      		ldi r24,lo8(0x3f800000)
 9096 3c10 90E0      		ldi r25,hi8(0x3f800000)
 9097 3c12 A0E8      		ldi r26,hlo8(0x3f800000)
 9098 3c14 BFE3      		ldi r27,hhi8(0x3f800000)
 9099 3c16 8083      		st Z,r24
 9100 3c18 9183      		std Z+1,r25
 9101 3c1a A283      		std Z+2,r26
 9102 3c1c B383      		std Z+3,r27
 9103               	.LBB562:
 9104               	.LBB563:
 9105               	.LM566:
 9106 3c1e 8E01      		movw r16,r28
 9107 3c20 0757      		subi r16,lo8(-(137))
 9108 3c22 1F4F      		sbci r17,hi8(-(137))
 9109 3c24 FE01      		movw r30,r28
 9110 3c26 E357      		subi r30,lo8(-(141))
 9111 3c28 FF4F      		sbci r31,hi8(-(141))
 9112 3c2a 6081      		ld r22,Z
 9113 3c2c 7181      		ldd r23,Z+1
 9114 3c2e 8281      		ldd r24,Z+2
 9115 3c30 9381      		ldd r25,Z+3
 9116 3c32 2BEA      		ldi r18,lo8(0x40aaaaab)
 9117 3c34 3AEA      		ldi r19,hi8(0x40aaaaab)
 9118 3c36 4AEA      		ldi r20,hlo8(0x40aaaaab)
 9119 3c38 50E4      		ldi r21,hhi8(0x40aaaaab)
 9120 3c3a 0E94 0000 		call __mulsf3
 9121 3c3e DC01      		movw r26,r24
 9122 3c40 CB01      		movw r24,r22
 9123 3c42 F801      		movw r30,r16
 9124 3c44 8083      		st Z,r24
 9125 3c46 9183      		std Z+1,r25
 9126 3c48 A283      		std Z+2,r26
 9127 3c4a B383      		std Z+3,r27
 9128               	.LM567:
 9129 3c4c FE01      		movw r30,r28
 9130 3c4e E757      		subi r30,lo8(-(137))
 9131 3c50 FF4F      		sbci r31,hi8(-(137))
 9132 3c52 6081      		ld r22,Z
 9133 3c54 7181      		ldd r23,Z+1
 9134 3c56 8281      		ldd r24,Z+2
 9135 3c58 9381      		ldd r25,Z+3
 9136 3c5a 20E0      		ldi r18,lo8(0x3f800000)
 9137 3c5c 30E0      		ldi r19,hi8(0x3f800000)
 9138 3c5e 40E8      		ldi r20,hlo8(0x3f800000)
 9139 3c60 5FE3      		ldi r21,hhi8(0x3f800000)
 9140 3c62 0E94 0000 		call __ltsf2
 9141 3c66 8823      		tst r24
 9142 3c68 04F4      		brge .L734
 9143               	.L710:
 9144               	.LM568:
 9145 3c6a FE01      		movw r30,r28
 9146 3c6c E857      		subi r30,lo8(-(136))
 9147 3c6e FF4F      		sbci r31,hi8(-(136))
 9148 3c70 81E0      		ldi r24,lo8(1)
 9149 3c72 8083      		st Z,r24
 9150 3c74 00C0      		rjmp .L609
 9151               	.L734:
 9152               	.LM569:
 9153 3c76 FE01      		movw r30,r28
 9154 3c78 E757      		subi r30,lo8(-(137))
 9155 3c7a FF4F      		sbci r31,hi8(-(137))
 9156 3c7c 6081      		ld r22,Z
 9157 3c7e 7181      		ldd r23,Z+1
 9158 3c80 8281      		ldd r24,Z+2
 9159 3c82 9381      		ldd r25,Z+3
 9160 3c84 20E0      		ldi r18,lo8(0x437f0000)
 9161 3c86 30E0      		ldi r19,hi8(0x437f0000)
 9162 3c88 4FE7      		ldi r20,hlo8(0x437f0000)
 9163 3c8a 53E4      		ldi r21,hhi8(0x437f0000)
 9164 3c8c 0E94 0000 		call __gtsf2
 9165 3c90 1816      		cp __zero_reg__,r24
 9166 3c92 04F0      		brlt .+2
 9167 3c94 00C0      		rjmp .L735
 9168               	.L711:
 9169               	.LM570:
 9170 3c96 FE01      		movw r30,r28
 9171 3c98 E357      		subi r30,lo8(-(141))
 9172 3c9a FF4F      		sbci r31,hi8(-(141))
 9173 3c9c 6081      		ld r22,Z
 9174 3c9e 7181      		ldd r23,Z+1
 9175 3ca0 8281      		ldd r24,Z+2
 9176 3ca2 9381      		ldd r25,Z+3
 9177 3ca4 20E0      		ldi r18,lo8(0x447a0000)
 9178 3ca6 30E0      		ldi r19,hi8(0x447a0000)
 9179 3ca8 4AE7      		ldi r20,hlo8(0x447a0000)
 9180 3caa 54E4      		ldi r21,hhi8(0x447a0000)
 9181 3cac 0E94 0000 		call __divsf3
 9182 3cb0 DC01      		movw r26,r24
 9183 3cb2 CB01      		movw r24,r22
 9184 3cb4 FE01      		movw r30,r28
 9185 3cb6 EC57      		subi r30,lo8(-(132))
 9186 3cb8 FF4F      		sbci r31,hi8(-(132))
 9187 3cba 8083      		st Z,r24
 9188 3cbc 9183      		std Z+1,r25
 9189 3cbe A283      		std Z+2,r26
 9190 3cc0 B383      		std Z+3,r27
 9191               	.LBB564:
 9192               	.LBB565:
 9193               	.LM571:
 9194 3cc2 8E01      		movw r16,r28
 9195 3cc4 0058      		subi r16,lo8(-(128))
 9196 3cc6 1F4F      		sbci r17,hi8(-(128))
 9197 3cc8 FE01      		movw r30,r28
 9198 3cca EC57      		subi r30,lo8(-(132))
 9199 3ccc FF4F      		sbci r31,hi8(-(132))
 9200 3cce 6081      		ld r22,Z
 9201 3cd0 7181      		ldd r23,Z+1
 9202 3cd2 8281      		ldd r24,Z+2
 9203 3cd4 9381      		ldd r25,Z+3
 9204 3cd6 20E0      		ldi r18,lo8(0x457a0000)
 9205 3cd8 30E0      		ldi r19,hi8(0x457a0000)
 9206 3cda 4AE7      		ldi r20,hlo8(0x457a0000)
 9207 3cdc 55E4      		ldi r21,hhi8(0x457a0000)
 9208 3cde 0E94 0000 		call __mulsf3
 9209 3ce2 DC01      		movw r26,r24
 9210 3ce4 CB01      		movw r24,r22
 9211 3ce6 F801      		movw r30,r16
 9212 3ce8 8083      		st Z,r24
 9213 3cea 9183      		std Z+1,r25
 9214 3cec A283      		std Z+2,r26
 9215 3cee B383      		std Z+3,r27
 9216               	.LM572:
 9217 3cf0 FE01      		movw r30,r28
 9218 3cf2 E058      		subi r30,lo8(-(128))
 9219 3cf4 FF4F      		sbci r31,hi8(-(128))
 9220 3cf6 6081      		ld r22,Z
 9221 3cf8 7181      		ldd r23,Z+1
 9222 3cfa 8281      		ldd r24,Z+2
 9223 3cfc 9381      		ldd r25,Z+3
 9224 3cfe 20E0      		ldi r18,lo8(0x3f800000)
 9225 3d00 30E0      		ldi r19,hi8(0x3f800000)
 9226 3d02 40E8      		ldi r20,hlo8(0x3f800000)
 9227 3d04 5FE3      		ldi r21,hhi8(0x3f800000)
 9228 3d06 0E94 0000 		call __ltsf2
 9229 3d0a 8823      		tst r24
 9230 3d0c 04F4      		brge .L736
 9231               	.L712:
 9232               	.LM573:
 9233 3d0e FE01      		movw r30,r28
 9234 3d10 E258      		subi r30,lo8(-(126))
 9235 3d12 FF4F      		sbci r31,hi8(-(126))
 9236 3d14 81E0      		ldi r24,lo8(1)
 9237 3d16 90E0      		ldi r25,hi8(1)
 9238 3d18 9183      		std Z+1,r25
 9239 3d1a 8083      		st Z,r24
 9240 3d1c 00C0      		rjmp .L614
 9241               	.L736:
 9242               	.LM574:
 9243 3d1e FE01      		movw r30,r28
 9244 3d20 E058      		subi r30,lo8(-(128))
 9245 3d22 FF4F      		sbci r31,hi8(-(128))
 9246 3d24 6081      		ld r22,Z
 9247 3d26 7181      		ldd r23,Z+1
 9248 3d28 8281      		ldd r24,Z+2
 9249 3d2a 9381      		ldd r25,Z+3
 9250 3d2c 20E0      		ldi r18,lo8(0x477fff00)
 9251 3d2e 3FEF      		ldi r19,hi8(0x477fff00)
 9252 3d30 4FE7      		ldi r20,hlo8(0x477fff00)
 9253 3d32 57E4      		ldi r21,hhi8(0x477fff00)
 9254 3d34 0E94 0000 		call __gtsf2
 9255 3d38 1816      		cp __zero_reg__,r24
 9256 3d3a 04F0      		brlt .+2
 9257 3d3c 00C0      		rjmp .L737
 9258               	.L713:
 9259               	.LM575:
 9260 3d3e FE01      		movw r30,r28
 9261 3d40 EC57      		subi r30,lo8(-(132))
 9262 3d42 FF4F      		sbci r31,hi8(-(132))
 9263 3d44 6081      		ld r22,Z
 9264 3d46 7181      		ldd r23,Z+1
 9265 3d48 8281      		ldd r24,Z+2
 9266 3d4a 9381      		ldd r25,Z+3
 9267 3d4c 20E0      		ldi r18,lo8(0x41200000)
 9268 3d4e 30E0      		ldi r19,hi8(0x41200000)
 9269 3d50 40E2      		ldi r20,hlo8(0x41200000)
 9270 3d52 51E4      		ldi r21,hhi8(0x41200000)
 9271 3d54 0E94 0000 		call __mulsf3
 9272 3d58 DC01      		movw r26,r24
 9273 3d5a CB01      		movw r24,r22
 9274 3d5c 8E01      		movw r16,r28
 9275 3d5e 0258      		subi r16,lo8(-(126))
 9276 3d60 1F4F      		sbci r17,hi8(-(126))
 9277 3d62 BC01      		movw r22,r24
 9278 3d64 CD01      		movw r24,r26
 9279 3d66 0E94 0000 		call __fixunssfsi
 9280 3d6a DC01      		movw r26,r24
 9281 3d6c CB01      		movw r24,r22
 9282 3d6e F801      		movw r30,r16
 9283 3d70 9183      		std Z+1,r25
 9284 3d72 8083      		st Z,r24
 9285 3d74 00C0      		rjmp .L617
 9286               	.L618:
 9287 3d76 FE01      		movw r30,r28
 9288 3d78 E458      		subi r30,lo8(-(124))
 9289 3d7a FF4F      		sbci r31,hi8(-(124))
 9290 3d7c 80E9      		ldi r24,lo8(400)
 9291 3d7e 91E0      		ldi r25,hi8(400)
 9292 3d80 9183      		std Z+1,r25
 9293 3d82 8083      		st Z,r24
 9294               	.LBB566:
 9295               	.LBB567:
 9296               	.LM576:
 9297 3d84 FE01      		movw r30,r28
 9298 3d86 E458      		subi r30,lo8(-(124))
 9299 3d88 FF4F      		sbci r31,hi8(-(124))
 9300 3d8a 8081      		ld r24,Z
 9301 3d8c 9181      		ldd r25,Z+1
 9302               	/* #APP */
 9303               	 ;  105 "d:/winavr-20100110/lib/gcc/../../avr/include/util/delay_basic.h" 1
 9304 3d8e 0197      		1: sbiw r24,1
 9305 3d90 01F4      		brne 1b
 9306               	 ;  0 "" 2
 9307               	/* #NOAPP */
 9308 3d92 FE01      		movw r30,r28
 9309 3d94 E458      		subi r30,lo8(-(124))
 9310 3d96 FF4F      		sbci r31,hi8(-(124))
 9311 3d98 9183      		std Z+1,r25
 9312 3d9a 8083      		st Z,r24
 9313               	.LBE567:
 9314               	.LBE566:
 9315               	.LM577:
 9316 3d9c DE01      		movw r26,r28
 9317 3d9e A258      		subi r26,lo8(-(126))
 9318 3da0 BF4F      		sbci r27,hi8(-(126))
 9319 3da2 FE01      		movw r30,r28
 9320 3da4 E258      		subi r30,lo8(-(126))
 9321 3da6 FF4F      		sbci r31,hi8(-(126))
 9322 3da8 8081      		ld r24,Z
 9323 3daa 9181      		ldd r25,Z+1
 9324 3dac 0197      		sbiw r24,1
 9325 3dae 1196      		adiw r26,1
 9326 3db0 9C93      		st X,r25
 9327 3db2 8E93      		st -X,r24
 9328               	.L617:
 9329               	.LM578:
 9330 3db4 FE01      		movw r30,r28
 9331 3db6 E258      		subi r30,lo8(-(126))
 9332 3db8 FF4F      		sbci r31,hi8(-(126))
 9333 3dba 8081      		ld r24,Z
 9334 3dbc 9181      		ldd r25,Z+1
 9335 3dbe 0097      		sbiw r24,0
 9336 3dc0 01F4      		brne .L618
 9337 3dc2 00C0      		rjmp .L620
 9338               	.L737:
 9339               	.LM579:
 9340 3dc4 8E01      		movw r16,r28
 9341 3dc6 0258      		subi r16,lo8(-(126))
 9342 3dc8 1F4F      		sbci r17,hi8(-(126))
 9343 3dca FE01      		movw r30,r28
 9344 3dcc E058      		subi r30,lo8(-(128))
 9345 3dce FF4F      		sbci r31,hi8(-(128))
 9346 3dd0 6081      		ld r22,Z
 9347 3dd2 7181      		ldd r23,Z+1
 9348 3dd4 8281      		ldd r24,Z+2
 9349 3dd6 9381      		ldd r25,Z+3
 9350 3dd8 0E94 0000 		call __fixunssfsi
 9351 3ddc DC01      		movw r26,r24
 9352 3dde CB01      		movw r24,r22
 9353 3de0 F801      		movw r30,r16
 9354 3de2 9183      		std Z+1,r25
 9355 3de4 8083      		st Z,r24
 9356               	.L614:
 9357 3de6 DE01      		movw r26,r28
 9358 3de8 A658      		subi r26,lo8(-(122))
 9359 3dea BF4F      		sbci r27,hi8(-(122))
 9360 3dec FE01      		movw r30,r28
 9361 3dee E258      		subi r30,lo8(-(126))
 9362 3df0 FF4F      		sbci r31,hi8(-(126))
 9363 3df2 8081      		ld r24,Z
 9364 3df4 9181      		ldd r25,Z+1
 9365 3df6 1196      		adiw r26,1
 9366 3df8 9C93      		st X,r25
 9367 3dfa 8E93      		st -X,r24
 9368               	.LBB568:
 9369               	.LBB569:
 9370               	.LM580:
 9371 3dfc FE01      		movw r30,r28
 9372 3dfe E658      		subi r30,lo8(-(122))
 9373 3e00 FF4F      		sbci r31,hi8(-(122))
 9374 3e02 8081      		ld r24,Z
 9375 3e04 9181      		ldd r25,Z+1
 9376               	/* #APP */
 9377               	 ;  105 "d:/winavr-20100110/lib/gcc/../../avr/include/util/delay_basic.h" 1
 9378 3e06 0197      		1: sbiw r24,1
 9379 3e08 01F4      		brne 1b
 9380               	 ;  0 "" 2
 9381               	/* #NOAPP */
 9382 3e0a FE01      		movw r30,r28
 9383 3e0c E658      		subi r30,lo8(-(122))
 9384 3e0e FF4F      		sbci r31,hi8(-(122))
 9385 3e10 9183      		std Z+1,r25
 9386 3e12 8083      		st Z,r24
 9387 3e14 00C0      		rjmp .L620
 9388               	.L735:
 9389               	.LBE569:
 9390               	.LBE568:
 9391               	.LBE565:
 9392               	.LBE564:
 9393               	.LM581:
 9394 3e16 8E01      		movw r16,r28
 9395 3e18 0857      		subi r16,lo8(-(136))
 9396 3e1a 1F4F      		sbci r17,hi8(-(136))
 9397 3e1c FE01      		movw r30,r28
 9398 3e1e E757      		subi r30,lo8(-(137))
 9399 3e20 FF4F      		sbci r31,hi8(-(137))
 9400 3e22 6081      		ld r22,Z
 9401 3e24 7181      		ldd r23,Z+1
 9402 3e26 8281      		ldd r24,Z+2
 9403 3e28 9381      		ldd r25,Z+3
 9404 3e2a 0E94 0000 		call __fixunssfsi
 9405 3e2e DC01      		movw r26,r24
 9406 3e30 CB01      		movw r24,r22
 9407 3e32 F801      		movw r30,r16
 9408 3e34 8083      		st Z,r24
 9409               	.L609:
 9410 3e36 DE01      		movw r26,r28
 9411 3e38 A758      		subi r26,lo8(-(121))
 9412 3e3a BF4F      		sbci r27,hi8(-(121))
 9413 3e3c FE01      		movw r30,r28
 9414 3e3e E857      		subi r30,lo8(-(136))
 9415 3e40 FF4F      		sbci r31,hi8(-(136))
 9416 3e42 8081      		ld r24,Z
 9417 3e44 8C93      		st X,r24
 9418               	.LBB570:
 9419               	.LBB571:
 9420               	.LM582:
 9421 3e46 FE01      		movw r30,r28
 9422 3e48 E758      		subi r30,lo8(-(121))
 9423 3e4a FF4F      		sbci r31,hi8(-(121))
 9424 3e4c 8081      		ld r24,Z
 9425               	/* #APP */
 9426               	 ;  83 "d:/winavr-20100110/lib/gcc/../../avr/include/util/delay_basic.h" 1
 9427 3e4e 8A95      		1: dec r24
 9428 3e50 01F4      		brne 1b
 9429               	 ;  0 "" 2
 9430               	/* #NOAPP */
 9431 3e52 FE01      		movw r30,r28
 9432 3e54 E758      		subi r30,lo8(-(121))
 9433 3e56 FF4F      		sbci r31,hi8(-(121))
 9434 3e58 8083      		st Z,r24
 9435               	.L620:
 9436               	.LBE571:
 9437               	.LBE570:
 9438               	.LBE563:
 9439               	.LBE562:
 9440               	.LM583:
 9441 3e5a 81E0      		ldi r24,lo8(1)
 9442 3e5c 8093 0000 		sts PS2byte,r24
 9443               	.LM584:
 9444 3e60 1092 0000 		sts i,__zero_reg__
 9445 3e64 00C0      		rjmp .L621
 9446               	.L624:
 9447               	.LM585:
 9448 3e66 8091 0000 		lds r24,PS2byte
 9449 3e6a 282F      		mov r18,r24
 9450 3e6c 30E0      		ldi r19,lo8(0)
 9451 3e6e 8091 0000 		lds r24,i
 9452 3e72 882F      		mov r24,r24
 9453 3e74 90E0      		ldi r25,lo8(0)
 9454 3e76 A901      		movw r20,r18
 9455 3e78 00C0      		rjmp 2f
 9456 3e7a 5595      	1:	asr r21
 9457 3e7c 4795      		ror r20
 9458 3e7e 8A95      	2:	dec r24
 9459 3e80 02F4      		brpl 1b
 9460 3e82 CA01      		movw r24,r20
 9461 3e84 8170      		andi r24,lo8(1)
 9462 3e86 9070      		andi r25,hi8(1)
 9463 3e88 8823      		tst r24
 9464 3e8a 01F0      		breq .L622
 9465 3e8c A5E3      		ldi r26,lo8(53)
 9466 3e8e B0E0      		ldi r27,hi8(53)
 9467 3e90 E5E3      		ldi r30,lo8(53)
 9468 3e92 F0E0      		ldi r31,hi8(53)
 9469 3e94 8081      		ld r24,Z
 9470 3e96 8460      		ori r24,lo8(4)
 9471 3e98 8C93      		st X,r24
 9472 3e9a 00C0      		rjmp .L623
 9473               	.L622:
 9474               	.LM586:
 9475 3e9c A5E3      		ldi r26,lo8(53)
 9476 3e9e B0E0      		ldi r27,hi8(53)
 9477 3ea0 E5E3      		ldi r30,lo8(53)
 9478 3ea2 F0E0      		ldi r31,hi8(53)
 9479 3ea4 8081      		ld r24,Z
 9480 3ea6 8B7F      		andi r24,lo8(-5)
 9481 3ea8 8C93      		st X,r24
 9482               	.L623:
 9483               	.LM587:
 9484 3eaa A5E3      		ldi r26,lo8(53)
 9485 3eac B0E0      		ldi r27,hi8(53)
 9486 3eae E5E3      		ldi r30,lo8(53)
 9487 3eb0 F0E0      		ldi r31,hi8(53)
 9488 3eb2 8081      		ld r24,Z
 9489 3eb4 8E7F      		andi r24,lo8(-2)
 9490 3eb6 8C93      		st X,r24
 9491               	.LM588:
 9492 3eb8 A5E3      		ldi r26,lo8(53)
 9493 3eba B0E0      		ldi r27,hi8(53)
 9494 3ebc E5E3      		ldi r30,lo8(53)
 9495 3ebe F0E0      		ldi r31,hi8(53)
 9496 3ec0 8081      		ld r24,Z
 9497 3ec2 8160      		ori r24,lo8(1)
 9498 3ec4 8C93      		st X,r24
 9499               	.LM589:
 9500 3ec6 8091 0000 		lds r24,i
 9501 3eca 8F5F      		subi r24,lo8(-(1))
 9502 3ecc 8093 0000 		sts i,r24
 9503               	.L621:
 9504 3ed0 8091 0000 		lds r24,i
 9505 3ed4 8830      		cpi r24,lo8(8)
 9506 3ed6 00F0      		brlo .L624
 9507               	.LM590:
 9508 3ed8 A5E3      		ldi r26,lo8(53)
 9509 3eda B0E0      		ldi r27,hi8(53)
 9510 3edc E5E3      		ldi r30,lo8(53)
 9511 3ede F0E0      		ldi r31,hi8(53)
 9512 3ee0 8081      		ld r24,Z
 9513 3ee2 8460      		ori r24,lo8(4)
 9514 3ee4 8C93      		st X,r24
 9515 3ee6 FE01      		movw r30,r28
 9516 3ee8 EB58      		subi r30,lo8(-(117))
 9517 3eea FF4F      		sbci r31,hi8(-(117))
 9518 3eec 80E0      		ldi r24,lo8(0x3f800000)
 9519 3eee 90E0      		ldi r25,hi8(0x3f800000)
 9520 3ef0 A0E8      		ldi r26,hlo8(0x3f800000)
 9521 3ef2 BFE3      		ldi r27,hhi8(0x3f800000)
 9522 3ef4 8083      		st Z,r24
 9523 3ef6 9183      		std Z+1,r25
 9524 3ef8 A283      		std Z+2,r26
 9525 3efa B383      		std Z+3,r27
 9526               	.LBB572:
 9527               	.LBB573:
 9528               	.LM591:
 9529 3efc 8E01      		movw r16,r28
 9530 3efe 0F58      		subi r16,lo8(-(113))
 9531 3f00 1F4F      		sbci r17,hi8(-(113))
 9532 3f02 FE01      		movw r30,r28
 9533 3f04 EB58      		subi r30,lo8(-(117))
 9534 3f06 FF4F      		sbci r31,hi8(-(117))
 9535 3f08 6081      		ld r22,Z
 9536 3f0a 7181      		ldd r23,Z+1
 9537 3f0c 8281      		ldd r24,Z+2
 9538 3f0e 9381      		ldd r25,Z+3
 9539 3f10 2BEA      		ldi r18,lo8(0x40aaaaab)
 9540 3f12 3AEA      		ldi r19,hi8(0x40aaaaab)
 9541 3f14 4AEA      		ldi r20,hlo8(0x40aaaaab)
 9542 3f16 50E4      		ldi r21,hhi8(0x40aaaaab)
 9543 3f18 0E94 0000 		call __mulsf3
 9544 3f1c DC01      		movw r26,r24
 9545 3f1e CB01      		movw r24,r22
 9546 3f20 F801      		movw r30,r16
 9547 3f22 8083      		st Z,r24
 9548 3f24 9183      		std Z+1,r25
 9549 3f26 A283      		std Z+2,r26
 9550 3f28 B383      		std Z+3,r27
 9551               	.LM592:
 9552 3f2a FE01      		movw r30,r28
 9553 3f2c EF58      		subi r30,lo8(-(113))
 9554 3f2e FF4F      		sbci r31,hi8(-(113))
 9555 3f30 6081      		ld r22,Z
 9556 3f32 7181      		ldd r23,Z+1
 9557 3f34 8281      		ldd r24,Z+2
 9558 3f36 9381      		ldd r25,Z+3
 9559 3f38 20E0      		ldi r18,lo8(0x3f800000)
 9560 3f3a 30E0      		ldi r19,hi8(0x3f800000)
 9561 3f3c 40E8      		ldi r20,hlo8(0x3f800000)
 9562 3f3e 5FE3      		ldi r21,hhi8(0x3f800000)
 9563 3f40 0E94 0000 		call __ltsf2
 9564 3f44 8823      		tst r24
 9565 3f46 04F4      		brge .L738
 9566               	.L714:
 9567               	.LM593:
 9568 3f48 FE01      		movw r30,r28
 9569 3f4a E059      		subi r30,lo8(-(112))
 9570 3f4c FF4F      		sbci r31,hi8(-(112))
 9571 3f4e 81E0      		ldi r24,lo8(1)
 9572 3f50 8083      		st Z,r24
 9573 3f52 00C0      		rjmp .L627
 9574               	.L738:
 9575               	.LM594:
 9576 3f54 FE01      		movw r30,r28
 9577 3f56 EF58      		subi r30,lo8(-(113))
 9578 3f58 FF4F      		sbci r31,hi8(-(113))
 9579 3f5a 6081      		ld r22,Z
 9580 3f5c 7181      		ldd r23,Z+1
 9581 3f5e 8281      		ldd r24,Z+2
 9582 3f60 9381      		ldd r25,Z+3
 9583 3f62 20E0      		ldi r18,lo8(0x437f0000)
 9584 3f64 30E0      		ldi r19,hi8(0x437f0000)
 9585 3f66 4FE7      		ldi r20,hlo8(0x437f0000)
 9586 3f68 53E4      		ldi r21,hhi8(0x437f0000)
 9587 3f6a 0E94 0000 		call __gtsf2
 9588 3f6e 1816      		cp __zero_reg__,r24
 9589 3f70 04F0      		brlt .+2
 9590 3f72 00C0      		rjmp .L739
 9591               	.L715:
 9592               	.LM595:
 9593 3f74 FE01      		movw r30,r28
 9594 3f76 EB58      		subi r30,lo8(-(117))
 9595 3f78 FF4F      		sbci r31,hi8(-(117))
 9596 3f7a 6081      		ld r22,Z
 9597 3f7c 7181      		ldd r23,Z+1
 9598 3f7e 8281      		ldd r24,Z+2
 9599 3f80 9381      		ldd r25,Z+3
 9600 3f82 20E0      		ldi r18,lo8(0x447a0000)
 9601 3f84 30E0      		ldi r19,hi8(0x447a0000)
 9602 3f86 4AE7      		ldi r20,hlo8(0x447a0000)
 9603 3f88 54E4      		ldi r21,hhi8(0x447a0000)
 9604 3f8a 0E94 0000 		call __divsf3
 9605 3f8e DC01      		movw r26,r24
 9606 3f90 CB01      		movw r24,r22
 9607 3f92 FE01      		movw r30,r28
 9608 3f94 E459      		subi r30,lo8(-(108))
 9609 3f96 FF4F      		sbci r31,hi8(-(108))
 9610 3f98 8083      		st Z,r24
 9611 3f9a 9183      		std Z+1,r25
 9612 3f9c A283      		std Z+2,r26
 9613 3f9e B383      		std Z+3,r27
 9614               	.LBB574:
 9615               	.LBB575:
 9616               	.LM596:
 9617 3fa0 8E01      		movw r16,r28
 9618 3fa2 0859      		subi r16,lo8(-(104))
 9619 3fa4 1F4F      		sbci r17,hi8(-(104))
 9620 3fa6 FE01      		movw r30,r28
 9621 3fa8 E459      		subi r30,lo8(-(108))
 9622 3faa FF4F      		sbci r31,hi8(-(108))
 9623 3fac 6081      		ld r22,Z
 9624 3fae 7181      		ldd r23,Z+1
 9625 3fb0 8281      		ldd r24,Z+2
 9626 3fb2 9381      		ldd r25,Z+3
 9627 3fb4 20E0      		ldi r18,lo8(0x457a0000)
 9628 3fb6 30E0      		ldi r19,hi8(0x457a0000)
 9629 3fb8 4AE7      		ldi r20,hlo8(0x457a0000)
 9630 3fba 55E4      		ldi r21,hhi8(0x457a0000)
 9631 3fbc 0E94 0000 		call __mulsf3
 9632 3fc0 DC01      		movw r26,r24
 9633 3fc2 CB01      		movw r24,r22
 9634 3fc4 F801      		movw r30,r16
 9635 3fc6 8083      		st Z,r24
 9636 3fc8 9183      		std Z+1,r25
 9637 3fca A283      		std Z+2,r26
 9638 3fcc B383      		std Z+3,r27
 9639               	.LM597:
 9640 3fce FE01      		movw r30,r28
 9641 3fd0 E859      		subi r30,lo8(-(104))
 9642 3fd2 FF4F      		sbci r31,hi8(-(104))
 9643 3fd4 6081      		ld r22,Z
 9644 3fd6 7181      		ldd r23,Z+1
 9645 3fd8 8281      		ldd r24,Z+2
 9646 3fda 9381      		ldd r25,Z+3
 9647 3fdc 20E0      		ldi r18,lo8(0x3f800000)
 9648 3fde 30E0      		ldi r19,hi8(0x3f800000)
 9649 3fe0 40E8      		ldi r20,hlo8(0x3f800000)
 9650 3fe2 5FE3      		ldi r21,hhi8(0x3f800000)
 9651 3fe4 0E94 0000 		call __ltsf2
 9652 3fe8 8823      		tst r24
 9653 3fea 04F4      		brge .L740
 9654               	.L716:
 9655               	.LM598:
 9656 3fec FE01      		movw r30,r28
 9657 3fee EA59      		subi r30,lo8(-(102))
 9658 3ff0 FF4F      		sbci r31,hi8(-(102))
 9659 3ff2 81E0      		ldi r24,lo8(1)
 9660 3ff4 90E0      		ldi r25,hi8(1)
 9661 3ff6 9183      		std Z+1,r25
 9662 3ff8 8083      		st Z,r24
 9663 3ffa 00C0      		rjmp .L632
 9664               	.L740:
 9665               	.LM599:
 9666 3ffc FE01      		movw r30,r28
 9667 3ffe E859      		subi r30,lo8(-(104))
 9668 4000 FF4F      		sbci r31,hi8(-(104))
 9669 4002 6081      		ld r22,Z
 9670 4004 7181      		ldd r23,Z+1
 9671 4006 8281      		ldd r24,Z+2
 9672 4008 9381      		ldd r25,Z+3
 9673 400a 20E0      		ldi r18,lo8(0x477fff00)
 9674 400c 3FEF      		ldi r19,hi8(0x477fff00)
 9675 400e 4FE7      		ldi r20,hlo8(0x477fff00)
 9676 4010 57E4      		ldi r21,hhi8(0x477fff00)
 9677 4012 0E94 0000 		call __gtsf2
 9678 4016 1816      		cp __zero_reg__,r24
 9679 4018 04F0      		brlt .+2
 9680 401a 00C0      		rjmp .L741
 9681               	.L717:
 9682               	.LM600:
 9683 401c FE01      		movw r30,r28
 9684 401e E459      		subi r30,lo8(-(108))
 9685 4020 FF4F      		sbci r31,hi8(-(108))
 9686 4022 6081      		ld r22,Z
 9687 4024 7181      		ldd r23,Z+1
 9688 4026 8281      		ldd r24,Z+2
 9689 4028 9381      		ldd r25,Z+3
 9690 402a 20E0      		ldi r18,lo8(0x41200000)
 9691 402c 30E0      		ldi r19,hi8(0x41200000)
 9692 402e 40E2      		ldi r20,hlo8(0x41200000)
 9693 4030 51E4      		ldi r21,hhi8(0x41200000)
 9694 4032 0E94 0000 		call __mulsf3
 9695 4036 DC01      		movw r26,r24
 9696 4038 CB01      		movw r24,r22
 9697 403a 8E01      		movw r16,r28
 9698 403c 0A59      		subi r16,lo8(-(102))
 9699 403e 1F4F      		sbci r17,hi8(-(102))
 9700 4040 BC01      		movw r22,r24
 9701 4042 CD01      		movw r24,r26
 9702 4044 0E94 0000 		call __fixunssfsi
 9703 4048 DC01      		movw r26,r24
 9704 404a CB01      		movw r24,r22
 9705 404c F801      		movw r30,r16
 9706 404e 9183      		std Z+1,r25
 9707 4050 8083      		st Z,r24
 9708 4052 00C0      		rjmp .L635
 9709               	.L636:
 9710 4054 FE01      		movw r30,r28
 9711 4056 EC59      		subi r30,lo8(-(100))
 9712 4058 FF4F      		sbci r31,hi8(-(100))
 9713 405a 80E9      		ldi r24,lo8(400)
 9714 405c 91E0      		ldi r25,hi8(400)
 9715 405e 9183      		std Z+1,r25
 9716 4060 8083      		st Z,r24
 9717               	.LBB576:
 9718               	.LBB577:
 9719               	.LM601:
 9720 4062 FE01      		movw r30,r28
 9721 4064 EC59      		subi r30,lo8(-(100))
 9722 4066 FF4F      		sbci r31,hi8(-(100))
 9723 4068 8081      		ld r24,Z
 9724 406a 9181      		ldd r25,Z+1
 9725               	/* #APP */
 9726               	 ;  105 "d:/winavr-20100110/lib/gcc/../../avr/include/util/delay_basic.h" 1
 9727 406c 0197      		1: sbiw r24,1
 9728 406e 01F4      		brne 1b
 9729               	 ;  0 "" 2
 9730               	/* #NOAPP */
 9731 4070 FE01      		movw r30,r28
 9732 4072 EC59      		subi r30,lo8(-(100))
 9733 4074 FF4F      		sbci r31,hi8(-(100))
 9734 4076 9183      		std Z+1,r25
 9735 4078 8083      		st Z,r24
 9736               	.LBE577:
 9737               	.LBE576:
 9738               	.LM602:
 9739 407a DE01      		movw r26,r28
 9740 407c AA59      		subi r26,lo8(-(102))
 9741 407e BF4F      		sbci r27,hi8(-(102))
 9742 4080 FE01      		movw r30,r28
 9743 4082 EA59      		subi r30,lo8(-(102))
 9744 4084 FF4F      		sbci r31,hi8(-(102))
 9745 4086 8081      		ld r24,Z
 9746 4088 9181      		ldd r25,Z+1
 9747 408a 0197      		sbiw r24,1
 9748 408c 1196      		adiw r26,1
 9749 408e 9C93      		st X,r25
 9750 4090 8E93      		st -X,r24
 9751               	.L635:
 9752               	.LM603:
 9753 4092 FE01      		movw r30,r28
 9754 4094 EA59      		subi r30,lo8(-(102))
 9755 4096 FF4F      		sbci r31,hi8(-(102))
 9756 4098 8081      		ld r24,Z
 9757 409a 9181      		ldd r25,Z+1
 9758 409c 0097      		sbiw r24,0
 9759 409e 01F4      		brne .L636
 9760 40a0 00C0      		rjmp .L638
 9761               	.L741:
 9762               	.LM604:
 9763 40a2 8E01      		movw r16,r28
 9764 40a4 0A59      		subi r16,lo8(-(102))
 9765 40a6 1F4F      		sbci r17,hi8(-(102))
 9766 40a8 FE01      		movw r30,r28
 9767 40aa E859      		subi r30,lo8(-(104))
 9768 40ac FF4F      		sbci r31,hi8(-(104))
 9769 40ae 6081      		ld r22,Z
 9770 40b0 7181      		ldd r23,Z+1
 9771 40b2 8281      		ldd r24,Z+2
 9772 40b4 9381      		ldd r25,Z+3
 9773 40b6 0E94 0000 		call __fixunssfsi
 9774 40ba DC01      		movw r26,r24
 9775 40bc CB01      		movw r24,r22
 9776 40be F801      		movw r30,r16
 9777 40c0 9183      		std Z+1,r25
 9778 40c2 8083      		st Z,r24
 9779               	.L632:
 9780 40c4 DE01      		movw r26,r28
 9781 40c6 AE59      		subi r26,lo8(-(98))
 9782 40c8 BF4F      		sbci r27,hi8(-(98))
 9783 40ca FE01      		movw r30,r28
 9784 40cc EA59      		subi r30,lo8(-(102))
 9785 40ce FF4F      		sbci r31,hi8(-(102))
 9786 40d0 8081      		ld r24,Z
 9787 40d2 9181      		ldd r25,Z+1
 9788 40d4 1196      		adiw r26,1
 9789 40d6 9C93      		st X,r25
 9790 40d8 8E93      		st -X,r24
 9791               	.LBB578:
 9792               	.LBB579:
 9793               	.LM605:
 9794 40da FE01      		movw r30,r28
 9795 40dc EE59      		subi r30,lo8(-(98))
 9796 40de FF4F      		sbci r31,hi8(-(98))
 9797 40e0 8081      		ld r24,Z
 9798 40e2 9181      		ldd r25,Z+1
 9799               	/* #APP */
 9800               	 ;  105 "d:/winavr-20100110/lib/gcc/../../avr/include/util/delay_basic.h" 1
 9801 40e4 0197      		1: sbiw r24,1
 9802 40e6 01F4      		brne 1b
 9803               	 ;  0 "" 2
 9804               	/* #NOAPP */
 9805 40e8 FE01      		movw r30,r28
 9806 40ea EE59      		subi r30,lo8(-(98))
 9807 40ec FF4F      		sbci r31,hi8(-(98))
 9808 40ee 9183      		std Z+1,r25
 9809 40f0 8083      		st Z,r24
 9810 40f2 00C0      		rjmp .L638
 9811               	.L739:
 9812               	.LBE579:
 9813               	.LBE578:
 9814               	.LBE575:
 9815               	.LBE574:
 9816               	.LM606:
 9817 40f4 8E01      		movw r16,r28
 9818 40f6 0059      		subi r16,lo8(-(112))
 9819 40f8 1F4F      		sbci r17,hi8(-(112))
 9820 40fa FE01      		movw r30,r28
 9821 40fc EF58      		subi r30,lo8(-(113))
 9822 40fe FF4F      		sbci r31,hi8(-(113))
 9823 4100 6081      		ld r22,Z
 9824 4102 7181      		ldd r23,Z+1
 9825 4104 8281      		ldd r24,Z+2
 9826 4106 9381      		ldd r25,Z+3
 9827 4108 0E94 0000 		call __fixunssfsi
 9828 410c DC01      		movw r26,r24
 9829 410e CB01      		movw r24,r22
 9830 4110 F801      		movw r30,r16
 9831 4112 8083      		st Z,r24
 9832               	.L627:
 9833 4114 DE01      		movw r26,r28
 9834 4116 AF59      		subi r26,lo8(-(97))
 9835 4118 BF4F      		sbci r27,hi8(-(97))
 9836 411a FE01      		movw r30,r28
 9837 411c E059      		subi r30,lo8(-(112))
 9838 411e FF4F      		sbci r31,hi8(-(112))
 9839 4120 8081      		ld r24,Z
 9840 4122 8C93      		st X,r24
 9841               	.LBB580:
 9842               	.LBB581:
 9843               	.LM607:
 9844 4124 FE01      		movw r30,r28
 9845 4126 EF59      		subi r30,lo8(-(97))
 9846 4128 FF4F      		sbci r31,hi8(-(97))
 9847 412a 8081      		ld r24,Z
 9848               	/* #APP */
 9849               	 ;  83 "d:/winavr-20100110/lib/gcc/../../avr/include/util/delay_basic.h" 1
 9850 412c 8A95      		1: dec r24
 9851 412e 01F4      		brne 1b
 9852               	 ;  0 "" 2
 9853               	/* #NOAPP */
 9854 4130 FE01      		movw r30,r28
 9855 4132 EF59      		subi r30,lo8(-(97))
 9856 4134 FF4F      		sbci r31,hi8(-(97))
 9857 4136 8083      		st Z,r24
 9858               	.L638:
 9859               	.LBE581:
 9860               	.LBE580:
 9861               	.LBE573:
 9862               	.LBE572:
 9863               	.LM608:
 9864 4138 83E4      		ldi r24,lo8(67)
 9865 413a 8093 0000 		sts PS2byte,r24
 9866               	.LM609:
 9867 413e 1092 0000 		sts i,__zero_reg__
 9868 4142 00C0      		rjmp .L639
 9869               	.L642:
 9870               	.LM610:
 9871 4144 8091 0000 		lds r24,PS2byte
 9872 4148 282F      		mov r18,r24
 9873 414a 30E0      		ldi r19,lo8(0)
 9874 414c 8091 0000 		lds r24,i
 9875 4150 882F      		mov r24,r24
 9876 4152 90E0      		ldi r25,lo8(0)
 9877 4154 A901      		movw r20,r18
 9878 4156 00C0      		rjmp 2f
 9879 4158 5595      	1:	asr r21
 9880 415a 4795      		ror r20
 9881 415c 8A95      	2:	dec r24
 9882 415e 02F4      		brpl 1b
 9883 4160 CA01      		movw r24,r20
 9884 4162 8170      		andi r24,lo8(1)
 9885 4164 9070      		andi r25,hi8(1)
 9886 4166 8823      		tst r24
 9887 4168 01F0      		breq .L640
 9888 416a A5E3      		ldi r26,lo8(53)
 9889 416c B0E0      		ldi r27,hi8(53)
 9890 416e E5E3      		ldi r30,lo8(53)
 9891 4170 F0E0      		ldi r31,hi8(53)
 9892 4172 8081      		ld r24,Z
 9893 4174 8460      		ori r24,lo8(4)
 9894 4176 8C93      		st X,r24
 9895 4178 00C0      		rjmp .L641
 9896               	.L640:
 9897               	.LM611:
 9898 417a A5E3      		ldi r26,lo8(53)
 9899 417c B0E0      		ldi r27,hi8(53)
 9900 417e E5E3      		ldi r30,lo8(53)
 9901 4180 F0E0      		ldi r31,hi8(53)
 9902 4182 8081      		ld r24,Z
 9903 4184 8B7F      		andi r24,lo8(-5)
 9904 4186 8C93      		st X,r24
 9905               	.L641:
 9906               	.LM612:
 9907 4188 A5E3      		ldi r26,lo8(53)
 9908 418a B0E0      		ldi r27,hi8(53)
 9909 418c E5E3      		ldi r30,lo8(53)
 9910 418e F0E0      		ldi r31,hi8(53)
 9911 4190 8081      		ld r24,Z
 9912 4192 8E7F      		andi r24,lo8(-2)
 9913 4194 8C93      		st X,r24
 9914               	.LM613:
 9915 4196 A5E3      		ldi r26,lo8(53)
 9916 4198 B0E0      		ldi r27,hi8(53)
 9917 419a E5E3      		ldi r30,lo8(53)
 9918 419c F0E0      		ldi r31,hi8(53)
 9919 419e 8081      		ld r24,Z
 9920 41a0 8160      		ori r24,lo8(1)
 9921 41a2 8C93      		st X,r24
 9922               	.LM614:
 9923 41a4 8091 0000 		lds r24,i
 9924 41a8 8F5F      		subi r24,lo8(-(1))
 9925 41aa 8093 0000 		sts i,r24
 9926               	.L639:
 9927 41ae 8091 0000 		lds r24,i
 9928 41b2 8830      		cpi r24,lo8(8)
 9929 41b4 00F0      		brlo .L642
 9930               	.LM615:
 9931 41b6 A5E3      		ldi r26,lo8(53)
 9932 41b8 B0E0      		ldi r27,hi8(53)
 9933 41ba E5E3      		ldi r30,lo8(53)
 9934 41bc F0E0      		ldi r31,hi8(53)
 9935 41be 8081      		ld r24,Z
 9936 41c0 8460      		ori r24,lo8(4)
 9937 41c2 8C93      		st X,r24
 9938 41c4 FE01      		movw r30,r28
 9939 41c6 E35A      		subi r30,lo8(-(93))
 9940 41c8 FF4F      		sbci r31,hi8(-(93))
 9941 41ca 80E0      		ldi r24,lo8(0x3f800000)
 9942 41cc 90E0      		ldi r25,hi8(0x3f800000)
 9943 41ce A0E8      		ldi r26,hlo8(0x3f800000)
 9944 41d0 BFE3      		ldi r27,hhi8(0x3f800000)
 9945 41d2 8083      		st Z,r24
 9946 41d4 9183      		std Z+1,r25
 9947 41d6 A283      		std Z+2,r26
 9948 41d8 B383      		std Z+3,r27
 9949               	.LBB582:
 9950               	.LBB583:
 9951               	.LM616:
 9952 41da 8E01      		movw r16,r28
 9953 41dc 075A      		subi r16,lo8(-(89))
 9954 41de 1F4F      		sbci r17,hi8(-(89))
 9955 41e0 FE01      		movw r30,r28
 9956 41e2 E35A      		subi r30,lo8(-(93))
 9957 41e4 FF4F      		sbci r31,hi8(-(93))
 9958 41e6 6081      		ld r22,Z
 9959 41e8 7181      		ldd r23,Z+1
 9960 41ea 8281      		ldd r24,Z+2
 9961 41ec 9381      		ldd r25,Z+3
 9962 41ee 2BEA      		ldi r18,lo8(0x40aaaaab)
 9963 41f0 3AEA      		ldi r19,hi8(0x40aaaaab)
 9964 41f2 4AEA      		ldi r20,hlo8(0x40aaaaab)
 9965 41f4 50E4      		ldi r21,hhi8(0x40aaaaab)
 9966 41f6 0E94 0000 		call __mulsf3
 9967 41fa DC01      		movw r26,r24
 9968 41fc CB01      		movw r24,r22
 9969 41fe F801      		movw r30,r16
 9970 4200 8083      		st Z,r24
 9971 4202 9183      		std Z+1,r25
 9972 4204 A283      		std Z+2,r26
 9973 4206 B383      		std Z+3,r27
 9974               	.LM617:
 9975 4208 FE01      		movw r30,r28
 9976 420a E75A      		subi r30,lo8(-(89))
 9977 420c FF4F      		sbci r31,hi8(-(89))
 9978 420e 6081      		ld r22,Z
 9979 4210 7181      		ldd r23,Z+1
 9980 4212 8281      		ldd r24,Z+2
 9981 4214 9381      		ldd r25,Z+3
 9982 4216 20E0      		ldi r18,lo8(0x3f800000)
 9983 4218 30E0      		ldi r19,hi8(0x3f800000)
 9984 421a 40E8      		ldi r20,hlo8(0x3f800000)
 9985 421c 5FE3      		ldi r21,hhi8(0x3f800000)
 9986 421e 0E94 0000 		call __ltsf2
 9987 4222 8823      		tst r24
 9988 4224 04F4      		brge .L742
 9989               	.L718:
 9990               	.LM618:
 9991 4226 FE01      		movw r30,r28
 9992 4228 E85A      		subi r30,lo8(-(88))
 9993 422a FF4F      		sbci r31,hi8(-(88))
 9994 422c 81E0      		ldi r24,lo8(1)
 9995 422e 8083      		st Z,r24
 9996 4230 00C0      		rjmp .L645
 9997               	.L742:
 9998               	.LM619:
 9999 4232 FE01      		movw r30,r28
 10000 4234 E75A      		subi r30,lo8(-(89))
 10001 4236 FF4F      		sbci r31,hi8(-(89))
 10002 4238 6081      		ld r22,Z
 10003 423a 7181      		ldd r23,Z+1
 10004 423c 8281      		ldd r24,Z+2
 10005 423e 9381      		ldd r25,Z+3
 10006 4240 20E0      		ldi r18,lo8(0x437f0000)
 10007 4242 30E0      		ldi r19,hi8(0x437f0000)
 10008 4244 4FE7      		ldi r20,hlo8(0x437f0000)
 10009 4246 53E4      		ldi r21,hhi8(0x437f0000)
 10010 4248 0E94 0000 		call __gtsf2
 10011 424c 1816      		cp __zero_reg__,r24
 10012 424e 04F0      		brlt .+2
 10013 4250 00C0      		rjmp .L743
 10014               	.L719:
 10015               	.LM620:
 10016 4252 FE01      		movw r30,r28
 10017 4254 E35A      		subi r30,lo8(-(93))
 10018 4256 FF4F      		sbci r31,hi8(-(93))
 10019 4258 6081      		ld r22,Z
 10020 425a 7181      		ldd r23,Z+1
 10021 425c 8281      		ldd r24,Z+2
 10022 425e 9381      		ldd r25,Z+3
 10023 4260 20E0      		ldi r18,lo8(0x447a0000)
 10024 4262 30E0      		ldi r19,hi8(0x447a0000)
 10025 4264 4AE7      		ldi r20,hlo8(0x447a0000)
 10026 4266 54E4      		ldi r21,hhi8(0x447a0000)
 10027 4268 0E94 0000 		call __divsf3
 10028 426c DC01      		movw r26,r24
 10029 426e CB01      		movw r24,r22
 10030 4270 FE01      		movw r30,r28
 10031 4272 EC5A      		subi r30,lo8(-(84))
 10032 4274 FF4F      		sbci r31,hi8(-(84))
 10033 4276 8083      		st Z,r24
 10034 4278 9183      		std Z+1,r25
 10035 427a A283      		std Z+2,r26
 10036 427c B383      		std Z+3,r27
 10037               	.LBB584:
 10038               	.LBB585:
 10039               	.LM621:
 10040 427e 8E01      		movw r16,r28
 10041 4280 005B      		subi r16,lo8(-(80))
 10042 4282 1F4F      		sbci r17,hi8(-(80))
 10043 4284 FE01      		movw r30,r28
 10044 4286 EC5A      		subi r30,lo8(-(84))
 10045 4288 FF4F      		sbci r31,hi8(-(84))
 10046 428a 6081      		ld r22,Z
 10047 428c 7181      		ldd r23,Z+1
 10048 428e 8281      		ldd r24,Z+2
 10049 4290 9381      		ldd r25,Z+3
 10050 4292 20E0      		ldi r18,lo8(0x457a0000)
 10051 4294 30E0      		ldi r19,hi8(0x457a0000)
 10052 4296 4AE7      		ldi r20,hlo8(0x457a0000)
 10053 4298 55E4      		ldi r21,hhi8(0x457a0000)
 10054 429a 0E94 0000 		call __mulsf3
 10055 429e DC01      		movw r26,r24
 10056 42a0 CB01      		movw r24,r22
 10057 42a2 F801      		movw r30,r16
 10058 42a4 8083      		st Z,r24
 10059 42a6 9183      		std Z+1,r25
 10060 42a8 A283      		std Z+2,r26
 10061 42aa B383      		std Z+3,r27
 10062               	.LM622:
 10063 42ac FE01      		movw r30,r28
 10064 42ae E05B      		subi r30,lo8(-(80))
 10065 42b0 FF4F      		sbci r31,hi8(-(80))
 10066 42b2 6081      		ld r22,Z
 10067 42b4 7181      		ldd r23,Z+1
 10068 42b6 8281      		ldd r24,Z+2
 10069 42b8 9381      		ldd r25,Z+3
 10070 42ba 20E0      		ldi r18,lo8(0x3f800000)
 10071 42bc 30E0      		ldi r19,hi8(0x3f800000)
 10072 42be 40E8      		ldi r20,hlo8(0x3f800000)
 10073 42c0 5FE3      		ldi r21,hhi8(0x3f800000)
 10074 42c2 0E94 0000 		call __ltsf2
 10075 42c6 8823      		tst r24
 10076 42c8 04F4      		brge .L744
 10077               	.L720:
 10078               	.LM623:
 10079 42ca FE01      		movw r30,r28
 10080 42cc E25B      		subi r30,lo8(-(78))
 10081 42ce FF4F      		sbci r31,hi8(-(78))
 10082 42d0 81E0      		ldi r24,lo8(1)
 10083 42d2 90E0      		ldi r25,hi8(1)
 10084 42d4 9183      		std Z+1,r25
 10085 42d6 8083      		st Z,r24
 10086 42d8 00C0      		rjmp .L650
 10087               	.L744:
 10088               	.LM624:
 10089 42da FE01      		movw r30,r28
 10090 42dc E05B      		subi r30,lo8(-(80))
 10091 42de FF4F      		sbci r31,hi8(-(80))
 10092 42e0 6081      		ld r22,Z
 10093 42e2 7181      		ldd r23,Z+1
 10094 42e4 8281      		ldd r24,Z+2
 10095 42e6 9381      		ldd r25,Z+3
 10096 42e8 20E0      		ldi r18,lo8(0x477fff00)
 10097 42ea 3FEF      		ldi r19,hi8(0x477fff00)
 10098 42ec 4FE7      		ldi r20,hlo8(0x477fff00)
 10099 42ee 57E4      		ldi r21,hhi8(0x477fff00)
 10100 42f0 0E94 0000 		call __gtsf2
 10101 42f4 1816      		cp __zero_reg__,r24
 10102 42f6 04F0      		brlt .+2
 10103 42f8 00C0      		rjmp .L745
 10104               	.L721:
 10105               	.LM625:
 10106 42fa FE01      		movw r30,r28
 10107 42fc EC5A      		subi r30,lo8(-(84))
 10108 42fe FF4F      		sbci r31,hi8(-(84))
 10109 4300 6081      		ld r22,Z
 10110 4302 7181      		ldd r23,Z+1
 10111 4304 8281      		ldd r24,Z+2
 10112 4306 9381      		ldd r25,Z+3
 10113 4308 20E0      		ldi r18,lo8(0x41200000)
 10114 430a 30E0      		ldi r19,hi8(0x41200000)
 10115 430c 40E2      		ldi r20,hlo8(0x41200000)
 10116 430e 51E4      		ldi r21,hhi8(0x41200000)
 10117 4310 0E94 0000 		call __mulsf3
 10118 4314 DC01      		movw r26,r24
 10119 4316 CB01      		movw r24,r22
 10120 4318 8E01      		movw r16,r28
 10121 431a 025B      		subi r16,lo8(-(78))
 10122 431c 1F4F      		sbci r17,hi8(-(78))
 10123 431e BC01      		movw r22,r24
 10124 4320 CD01      		movw r24,r26
 10125 4322 0E94 0000 		call __fixunssfsi
 10126 4326 DC01      		movw r26,r24
 10127 4328 CB01      		movw r24,r22
 10128 432a F801      		movw r30,r16
 10129 432c 9183      		std Z+1,r25
 10130 432e 8083      		st Z,r24
 10131 4330 00C0      		rjmp .L653
 10132               	.L654:
 10133 4332 FE01      		movw r30,r28
 10134 4334 E45B      		subi r30,lo8(-(76))
 10135 4336 FF4F      		sbci r31,hi8(-(76))
 10136 4338 80E9      		ldi r24,lo8(400)
 10137 433a 91E0      		ldi r25,hi8(400)
 10138 433c 9183      		std Z+1,r25
 10139 433e 8083      		st Z,r24
 10140               	.LBB586:
 10141               	.LBB587:
 10142               	.LM626:
 10143 4340 FE01      		movw r30,r28
 10144 4342 E45B      		subi r30,lo8(-(76))
 10145 4344 FF4F      		sbci r31,hi8(-(76))
 10146 4346 8081      		ld r24,Z
 10147 4348 9181      		ldd r25,Z+1
 10148               	/* #APP */
 10149               	 ;  105 "d:/winavr-20100110/lib/gcc/../../avr/include/util/delay_basic.h" 1
 10150 434a 0197      		1: sbiw r24,1
 10151 434c 01F4      		brne 1b
 10152               	 ;  0 "" 2
 10153               	/* #NOAPP */
 10154 434e FE01      		movw r30,r28
 10155 4350 E45B      		subi r30,lo8(-(76))
 10156 4352 FF4F      		sbci r31,hi8(-(76))
 10157 4354 9183      		std Z+1,r25
 10158 4356 8083      		st Z,r24
 10159               	.LBE587:
 10160               	.LBE586:
 10161               	.LM627:
 10162 4358 DE01      		movw r26,r28
 10163 435a A25B      		subi r26,lo8(-(78))
 10164 435c BF4F      		sbci r27,hi8(-(78))
 10165 435e FE01      		movw r30,r28
 10166 4360 E25B      		subi r30,lo8(-(78))
 10167 4362 FF4F      		sbci r31,hi8(-(78))
 10168 4364 8081      		ld r24,Z
 10169 4366 9181      		ldd r25,Z+1
 10170 4368 0197      		sbiw r24,1
 10171 436a 1196      		adiw r26,1
 10172 436c 9C93      		st X,r25
 10173 436e 8E93      		st -X,r24
 10174               	.L653:
 10175               	.LM628:
 10176 4370 FE01      		movw r30,r28
 10177 4372 E25B      		subi r30,lo8(-(78))
 10178 4374 FF4F      		sbci r31,hi8(-(78))
 10179 4376 8081      		ld r24,Z
 10180 4378 9181      		ldd r25,Z+1
 10181 437a 0097      		sbiw r24,0
 10182 437c 01F4      		brne .L654
 10183 437e 00C0      		rjmp .L656
 10184               	.L745:
 10185               	.LM629:
 10186 4380 8E01      		movw r16,r28
 10187 4382 025B      		subi r16,lo8(-(78))
 10188 4384 1F4F      		sbci r17,hi8(-(78))
 10189 4386 FE01      		movw r30,r28
 10190 4388 E05B      		subi r30,lo8(-(80))
 10191 438a FF4F      		sbci r31,hi8(-(80))
 10192 438c 6081      		ld r22,Z
 10193 438e 7181      		ldd r23,Z+1
 10194 4390 8281      		ldd r24,Z+2
 10195 4392 9381      		ldd r25,Z+3
 10196 4394 0E94 0000 		call __fixunssfsi
 10197 4398 DC01      		movw r26,r24
 10198 439a CB01      		movw r24,r22
 10199 439c F801      		movw r30,r16
 10200 439e 9183      		std Z+1,r25
 10201 43a0 8083      		st Z,r24
 10202               	.L650:
 10203 43a2 DE01      		movw r26,r28
 10204 43a4 A65B      		subi r26,lo8(-(74))
 10205 43a6 BF4F      		sbci r27,hi8(-(74))
 10206 43a8 FE01      		movw r30,r28
 10207 43aa E25B      		subi r30,lo8(-(78))
 10208 43ac FF4F      		sbci r31,hi8(-(78))
 10209 43ae 8081      		ld r24,Z
 10210 43b0 9181      		ldd r25,Z+1
 10211 43b2 1196      		adiw r26,1
 10212 43b4 9C93      		st X,r25
 10213 43b6 8E93      		st -X,r24
 10214               	.LBB588:
 10215               	.LBB589:
 10216               	.LM630:
 10217 43b8 FE01      		movw r30,r28
 10218 43ba E65B      		subi r30,lo8(-(74))
 10219 43bc FF4F      		sbci r31,hi8(-(74))
 10220 43be 8081      		ld r24,Z
 10221 43c0 9181      		ldd r25,Z+1
 10222               	/* #APP */
 10223               	 ;  105 "d:/winavr-20100110/lib/gcc/../../avr/include/util/delay_basic.h" 1
 10224 43c2 0197      		1: sbiw r24,1
 10225 43c4 01F4      		brne 1b
 10226               	 ;  0 "" 2
 10227               	/* #NOAPP */
 10228 43c6 FE01      		movw r30,r28
 10229 43c8 E65B      		subi r30,lo8(-(74))
 10230 43ca FF4F      		sbci r31,hi8(-(74))
 10231 43cc 9183      		std Z+1,r25
 10232 43ce 8083      		st Z,r24
 10233 43d0 00C0      		rjmp .L656
 10234               	.L743:
 10235               	.LBE589:
 10236               	.LBE588:
 10237               	.LBE585:
 10238               	.LBE584:
 10239               	.LM631:
 10240 43d2 8E01      		movw r16,r28
 10241 43d4 085A      		subi r16,lo8(-(88))
 10242 43d6 1F4F      		sbci r17,hi8(-(88))
 10243 43d8 FE01      		movw r30,r28
 10244 43da E75A      		subi r30,lo8(-(89))
 10245 43dc FF4F      		sbci r31,hi8(-(89))
 10246 43de 6081      		ld r22,Z
 10247 43e0 7181      		ldd r23,Z+1
 10248 43e2 8281      		ldd r24,Z+2
 10249 43e4 9381      		ldd r25,Z+3
 10250 43e6 0E94 0000 		call __fixunssfsi
 10251 43ea DC01      		movw r26,r24
 10252 43ec CB01      		movw r24,r22
 10253 43ee F801      		movw r30,r16
 10254 43f0 8083      		st Z,r24
 10255               	.L645:
 10256 43f2 DE01      		movw r26,r28
 10257 43f4 A75B      		subi r26,lo8(-(73))
 10258 43f6 BF4F      		sbci r27,hi8(-(73))
 10259 43f8 FE01      		movw r30,r28
 10260 43fa E85A      		subi r30,lo8(-(88))
 10261 43fc FF4F      		sbci r31,hi8(-(88))
 10262 43fe 8081      		ld r24,Z
 10263 4400 8C93      		st X,r24
 10264               	.LBB590:
 10265               	.LBB591:
 10266               	.LM632:
 10267 4402 FE01      		movw r30,r28
 10268 4404 E75B      		subi r30,lo8(-(73))
 10269 4406 FF4F      		sbci r31,hi8(-(73))
 10270 4408 8081      		ld r24,Z
 10271               	/* #APP */
 10272               	 ;  83 "d:/winavr-20100110/lib/gcc/../../avr/include/util/delay_basic.h" 1
 10273 440a 8A95      		1: dec r24
 10274 440c 01F4      		brne 1b
 10275               	 ;  0 "" 2
 10276               	/* #NOAPP */
 10277 440e FE01      		movw r30,r28
 10278 4410 E75B      		subi r30,lo8(-(73))
 10279 4412 FF4F      		sbci r31,hi8(-(73))
 10280 4414 8083      		st Z,r24
 10281               	.L656:
 10282               	.LBE591:
 10283               	.LBE590:
 10284               	.LBE583:
 10285               	.LBE582:
 10286               	.LM633:
 10287 4416 1092 0000 		sts i,__zero_reg__
 10288 441a 00C0      		rjmp .L657
 10289               	.L658:
 10290               	.LM634:
 10291 441c A5E3      		ldi r26,lo8(53)
 10292 441e B0E0      		ldi r27,hi8(53)
 10293 4420 E5E3      		ldi r30,lo8(53)
 10294 4422 F0E0      		ldi r31,hi8(53)
 10295 4424 8081      		ld r24,Z
 10296 4426 8B7F      		andi r24,lo8(-5)
 10297 4428 8C93      		st X,r24
 10298               	.LM635:
 10299 442a A5E3      		ldi r26,lo8(53)
 10300 442c B0E0      		ldi r27,hi8(53)
 10301 442e E5E3      		ldi r30,lo8(53)
 10302 4430 F0E0      		ldi r31,hi8(53)
 10303 4432 8081      		ld r24,Z
 10304 4434 8E7F      		andi r24,lo8(-2)
 10305 4436 8C93      		st X,r24
 10306               	.LM636:
 10307 4438 A5E3      		ldi r26,lo8(53)
 10308 443a B0E0      		ldi r27,hi8(53)
 10309 443c E5E3      		ldi r30,lo8(53)
 10310 443e F0E0      		ldi r31,hi8(53)
 10311 4440 8081      		ld r24,Z
 10312 4442 8160      		ori r24,lo8(1)
 10313 4444 8C93      		st X,r24
 10314               	.LM637:
 10315 4446 8091 0000 		lds r24,i
 10316 444a 8F5F      		subi r24,lo8(-(1))
 10317 444c 8093 0000 		sts i,r24
 10318               	.L657:
 10319 4450 8091 0000 		lds r24,i
 10320 4454 8830      		cpi r24,lo8(8)
 10321 4456 00F0      		brlo .L658
 10322               	.LM638:
 10323 4458 A5E3      		ldi r26,lo8(53)
 10324 445a B0E0      		ldi r27,hi8(53)
 10325 445c E5E3      		ldi r30,lo8(53)
 10326 445e F0E0      		ldi r31,hi8(53)
 10327 4460 8081      		ld r24,Z
 10328 4462 8460      		ori r24,lo8(4)
 10329 4464 8C93      		st X,r24
 10330 4466 FE01      		movw r30,r28
 10331 4468 EB5B      		subi r30,lo8(-(69))
 10332 446a FF4F      		sbci r31,hi8(-(69))
 10333 446c 80E0      		ldi r24,lo8(0x3f800000)
 10334 446e 90E0      		ldi r25,hi8(0x3f800000)
 10335 4470 A0E8      		ldi r26,hlo8(0x3f800000)
 10336 4472 BFE3      		ldi r27,hhi8(0x3f800000)
 10337 4474 8083      		st Z,r24
 10338 4476 9183      		std Z+1,r25
 10339 4478 A283      		std Z+2,r26
 10340 447a B383      		std Z+3,r27
 10341               	.LBB592:
 10342               	.LBB593:
 10343               	.LM639:
 10344 447c 8E01      		movw r16,r28
 10345 447e 0F5B      		subi r16,lo8(-(65))
 10346 4480 1F4F      		sbci r17,hi8(-(65))
 10347 4482 FE01      		movw r30,r28
 10348 4484 EB5B      		subi r30,lo8(-(69))
 10349 4486 FF4F      		sbci r31,hi8(-(69))
 10350 4488 6081      		ld r22,Z
 10351 448a 7181      		ldd r23,Z+1
 10352 448c 8281      		ldd r24,Z+2
 10353 448e 9381      		ldd r25,Z+3
 10354 4490 2BEA      		ldi r18,lo8(0x40aaaaab)
 10355 4492 3AEA      		ldi r19,hi8(0x40aaaaab)
 10356 4494 4AEA      		ldi r20,hlo8(0x40aaaaab)
 10357 4496 50E4      		ldi r21,hhi8(0x40aaaaab)
 10358 4498 0E94 0000 		call __mulsf3
 10359 449c DC01      		movw r26,r24
 10360 449e CB01      		movw r24,r22
 10361 44a0 F801      		movw r30,r16
 10362 44a2 8083      		st Z,r24
 10363 44a4 9183      		std Z+1,r25
 10364 44a6 A283      		std Z+2,r26
 10365 44a8 B383      		std Z+3,r27
 10366               	.LM640:
 10367 44aa FE01      		movw r30,r28
 10368 44ac EF5B      		subi r30,lo8(-(65))
 10369 44ae FF4F      		sbci r31,hi8(-(65))
 10370 44b0 6081      		ld r22,Z
 10371 44b2 7181      		ldd r23,Z+1
 10372 44b4 8281      		ldd r24,Z+2
 10373 44b6 9381      		ldd r25,Z+3
 10374 44b8 20E0      		ldi r18,lo8(0x3f800000)
 10375 44ba 30E0      		ldi r19,hi8(0x3f800000)
 10376 44bc 40E8      		ldi r20,hlo8(0x3f800000)
 10377 44be 5FE3      		ldi r21,hhi8(0x3f800000)
 10378 44c0 0E94 0000 		call __ltsf2
 10379 44c4 8823      		tst r24
 10380 44c6 04F4      		brge .L746
 10381               	.L722:
 10382               	.LM641:
 10383 44c8 81E0      		ldi r24,lo8(1)
 10384 44ca FE01      		movw r30,r28
 10385 44cc E05C      		subi r30,lo8(-(64))
 10386 44ce FF4F      		sbci r31,hi8(-(64))
 10387 44d0 8083      		st Z,r24
 10388 44d2 00C0      		rjmp .L661
 10389               	.L746:
 10390               	.LM642:
 10391 44d4 FE01      		movw r30,r28
 10392 44d6 EF5B      		subi r30,lo8(-(65))
 10393 44d8 FF4F      		sbci r31,hi8(-(65))
 10394 44da 6081      		ld r22,Z
 10395 44dc 7181      		ldd r23,Z+1
 10396 44de 8281      		ldd r24,Z+2
 10397 44e0 9381      		ldd r25,Z+3
 10398 44e2 20E0      		ldi r18,lo8(0x437f0000)
 10399 44e4 30E0      		ldi r19,hi8(0x437f0000)
 10400 44e6 4FE7      		ldi r20,hlo8(0x437f0000)
 10401 44e8 53E4      		ldi r21,hhi8(0x437f0000)
 10402 44ea 0E94 0000 		call __gtsf2
 10403 44ee 1816      		cp __zero_reg__,r24
 10404 44f0 04F0      		brlt .+2
 10405 44f2 00C0      		rjmp .L747
 10406               	.L723:
 10407               	.LM643:
 10408 44f4 FE01      		movw r30,r28
 10409 44f6 EB5B      		subi r30,lo8(-(69))
 10410 44f8 FF4F      		sbci r31,hi8(-(69))
 10411 44fa 6081      		ld r22,Z
 10412 44fc 7181      		ldd r23,Z+1
 10413 44fe 8281      		ldd r24,Z+2
 10414 4500 9381      		ldd r25,Z+3
 10415 4502 20E0      		ldi r18,lo8(0x447a0000)
 10416 4504 30E0      		ldi r19,hi8(0x447a0000)
 10417 4506 4AE7      		ldi r20,hlo8(0x447a0000)
 10418 4508 54E4      		ldi r21,hhi8(0x447a0000)
 10419 450a 0E94 0000 		call __divsf3
 10420 450e DC01      		movw r26,r24
 10421 4510 CB01      		movw r24,r22
 10422 4512 8CAF      		std Y+60,r24
 10423 4514 9DAF      		std Y+61,r25
 10424 4516 AEAF      		std Y+62,r26
 10425 4518 BFAF      		std Y+63,r27
 10426               	.LBB594:
 10427               	.LBB595:
 10428               	.LM644:
 10429 451a 6CAD      		ldd r22,Y+60
 10430 451c 7DAD      		ldd r23,Y+61
 10431 451e 8EAD      		ldd r24,Y+62
 10432 4520 9FAD      		ldd r25,Y+63
 10433 4522 20E0      		ldi r18,lo8(0x457a0000)
 10434 4524 30E0      		ldi r19,hi8(0x457a0000)
 10435 4526 4AE7      		ldi r20,hlo8(0x457a0000)
 10436 4528 55E4      		ldi r21,hhi8(0x457a0000)
 10437 452a 0E94 0000 		call __mulsf3
 10438 452e DC01      		movw r26,r24
 10439 4530 CB01      		movw r24,r22
 10440 4532 88AF      		std Y+56,r24
 10441 4534 99AF      		std Y+57,r25
 10442 4536 AAAF      		std Y+58,r26
 10443 4538 BBAF      		std Y+59,r27
 10444               	.LM645:
 10445 453a 68AD      		ldd r22,Y+56
 10446 453c 79AD      		ldd r23,Y+57
 10447 453e 8AAD      		ldd r24,Y+58
 10448 4540 9BAD      		ldd r25,Y+59
 10449 4542 20E0      		ldi r18,lo8(0x3f800000)
 10450 4544 30E0      		ldi r19,hi8(0x3f800000)
 10451 4546 40E8      		ldi r20,hlo8(0x3f800000)
 10452 4548 5FE3      		ldi r21,hhi8(0x3f800000)
 10453 454a 0E94 0000 		call __ltsf2
 10454 454e 8823      		tst r24
 10455 4550 04F4      		brge .L748
 10456               	.L724:
 10457               	.LM646:
 10458 4552 81E0      		ldi r24,lo8(1)
 10459 4554 90E0      		ldi r25,hi8(1)
 10460 4556 9FAB      		std Y+55,r25
 10461 4558 8EAB      		std Y+54,r24
 10462 455a 00C0      		rjmp .L666
 10463               	.L748:
 10464               	.LM647:
 10465 455c 68AD      		ldd r22,Y+56
 10466 455e 79AD      		ldd r23,Y+57
 10467 4560 8AAD      		ldd r24,Y+58
 10468 4562 9BAD      		ldd r25,Y+59
 10469 4564 20E0      		ldi r18,lo8(0x477fff00)
 10470 4566 3FEF      		ldi r19,hi8(0x477fff00)
 10471 4568 4FE7      		ldi r20,hlo8(0x477fff00)
 10472 456a 57E4      		ldi r21,hhi8(0x477fff00)
 10473 456c 0E94 0000 		call __gtsf2
 10474 4570 1816      		cp __zero_reg__,r24
 10475 4572 04F4      		brge .L749
 10476               	.L725:
 10477               	.LM648:
 10478 4574 6CAD      		ldd r22,Y+60
 10479 4576 7DAD      		ldd r23,Y+61
 10480 4578 8EAD      		ldd r24,Y+62
 10481 457a 9FAD      		ldd r25,Y+63
 10482 457c 20E0      		ldi r18,lo8(0x41200000)
 10483 457e 30E0      		ldi r19,hi8(0x41200000)
 10484 4580 40E2      		ldi r20,hlo8(0x41200000)
 10485 4582 51E4      		ldi r21,hhi8(0x41200000)
 10486 4584 0E94 0000 		call __mulsf3
 10487 4588 DC01      		movw r26,r24
 10488 458a CB01      		movw r24,r22
 10489 458c BC01      		movw r22,r24
 10490 458e CD01      		movw r24,r26
 10491 4590 0E94 0000 		call __fixunssfsi
 10492 4594 DC01      		movw r26,r24
 10493 4596 CB01      		movw r24,r22
 10494 4598 9FAB      		std Y+55,r25
 10495 459a 8EAB      		std Y+54,r24
 10496 459c 00C0      		rjmp .L669
 10497               	.L670:
 10498 459e 80E9      		ldi r24,lo8(400)
 10499 45a0 91E0      		ldi r25,hi8(400)
 10500 45a2 9DAB      		std Y+53,r25
 10501 45a4 8CAB      		std Y+52,r24
 10502               	.LBB596:
 10503               	.LBB597:
 10504               	.LM649:
 10505 45a6 8CA9      		ldd r24,Y+52
 10506 45a8 9DA9      		ldd r25,Y+53
 10507               	/* #APP */
 10508               	 ;  105 "d:/winavr-20100110/lib/gcc/../../avr/include/util/delay_basic.h" 1
 10509 45aa 0197      		1: sbiw r24,1
 10510 45ac 01F4      		brne 1b
 10511               	 ;  0 "" 2
 10512               	/* #NOAPP */
 10513 45ae 9DAB      		std Y+53,r25
 10514 45b0 8CAB      		std Y+52,r24
 10515               	.LBE597:
 10516               	.LBE596:
 10517               	.LM650:
 10518 45b2 8EA9      		ldd r24,Y+54
 10519 45b4 9FA9      		ldd r25,Y+55
 10520 45b6 0197      		sbiw r24,1
 10521 45b8 9FAB      		std Y+55,r25
 10522 45ba 8EAB      		std Y+54,r24
 10523               	.L669:
 10524               	.LM651:
 10525 45bc 8EA9      		ldd r24,Y+54
 10526 45be 9FA9      		ldd r25,Y+55
 10527 45c0 0097      		sbiw r24,0
 10528 45c2 01F4      		brne .L670
 10529 45c4 00C0      		rjmp .L672
 10530               	.L749:
 10531               	.LM652:
 10532 45c6 68AD      		ldd r22,Y+56
 10533 45c8 79AD      		ldd r23,Y+57
 10534 45ca 8AAD      		ldd r24,Y+58
 10535 45cc 9BAD      		ldd r25,Y+59
 10536 45ce 0E94 0000 		call __fixunssfsi
 10537 45d2 DC01      		movw r26,r24
 10538 45d4 CB01      		movw r24,r22
 10539 45d6 9FAB      		std Y+55,r25
 10540 45d8 8EAB      		std Y+54,r24
 10541               	.L666:
 10542 45da 8EA9      		ldd r24,Y+54
 10543 45dc 9FA9      		ldd r25,Y+55
 10544 45de 9BAB      		std Y+51,r25
 10545 45e0 8AAB      		std Y+50,r24
 10546               	.LBB598:
 10547               	.LBB599:
 10548               	.LM653:
 10549 45e2 8AA9      		ldd r24,Y+50
 10550 45e4 9BA9      		ldd r25,Y+51
 10551               	/* #APP */
 10552               	 ;  105 "d:/winavr-20100110/lib/gcc/../../avr/include/util/delay_basic.h" 1
 10553 45e6 0197      		1: sbiw r24,1
 10554 45e8 01F4      		brne 1b
 10555               	 ;  0 "" 2
 10556               	/* #NOAPP */
 10557 45ea 9BAB      		std Y+51,r25
 10558 45ec 8AAB      		std Y+50,r24
 10559 45ee 00C0      		rjmp .L672
 10560               	.L747:
 10561               	.LBE599:
 10562               	.LBE598:
 10563               	.LBE595:
 10564               	.LBE594:
 10565               	.LM654:
 10566 45f0 FE01      		movw r30,r28
 10567 45f2 EF5B      		subi r30,lo8(-(65))
 10568 45f4 FF4F      		sbci r31,hi8(-(65))
 10569 45f6 6081      		ld r22,Z
 10570 45f8 7181      		ldd r23,Z+1
 10571 45fa 8281      		ldd r24,Z+2
 10572 45fc 9381      		ldd r25,Z+3
 10573 45fe 0E94 0000 		call __fixunssfsi
 10574 4602 DC01      		movw r26,r24
 10575 4604 CB01      		movw r24,r22
 10576 4606 FE01      		movw r30,r28
 10577 4608 E05C      		subi r30,lo8(-(64))
 10578 460a FF4F      		sbci r31,hi8(-(64))
 10579 460c 8083      		st Z,r24
 10580               	.L661:
 10581 460e FE01      		movw r30,r28
 10582 4610 E05C      		subi r30,lo8(-(64))
 10583 4612 FF4F      		sbci r31,hi8(-(64))
 10584 4614 8081      		ld r24,Z
 10585 4616 89AB      		std Y+49,r24
 10586               	.LBB600:
 10587               	.LBB601:
 10588               	.LM655:
 10589 4618 89A9      		ldd r24,Y+49
 10590               	/* #APP */
 10591               	 ;  83 "d:/winavr-20100110/lib/gcc/../../avr/include/util/delay_basic.h" 1
 10592 461a 8A95      		1: dec r24
 10593 461c 01F4      		brne 1b
 10594               	 ;  0 "" 2
 10595               	/* #NOAPP */
 10596 461e 89AB      		std Y+49,r24
 10597               	.L672:
 10598               	.LBE601:
 10599               	.LBE600:
 10600               	.LBE593:
 10601               	.LBE592:
 10602               	.LM656:
 10603 4620 81E0      		ldi r24,lo8(1)
 10604 4622 8093 0000 		sts PS2byte,r24
 10605               	.LM657:
 10606 4626 1092 0000 		sts i,__zero_reg__
 10607 462a 00C0      		rjmp .L673
 10608               	.L676:
 10609               	.LM658:
 10610 462c 8091 0000 		lds r24,PS2byte
 10611 4630 282F      		mov r18,r24
 10612 4632 30E0      		ldi r19,lo8(0)
 10613 4634 8091 0000 		lds r24,i
 10614 4638 882F      		mov r24,r24
 10615 463a 90E0      		ldi r25,lo8(0)
 10616 463c A901      		movw r20,r18
 10617 463e 00C0      		rjmp 2f
 10618 4640 5595      	1:	asr r21
 10619 4642 4795      		ror r20
 10620 4644 8A95      	2:	dec r24
 10621 4646 02F4      		brpl 1b
 10622 4648 CA01      		movw r24,r20
 10623 464a 8170      		andi r24,lo8(1)
 10624 464c 9070      		andi r25,hi8(1)
 10625 464e 8823      		tst r24
 10626 4650 01F0      		breq .L674
 10627 4652 A5E3      		ldi r26,lo8(53)
 10628 4654 B0E0      		ldi r27,hi8(53)
 10629 4656 E5E3      		ldi r30,lo8(53)
 10630 4658 F0E0      		ldi r31,hi8(53)
 10631 465a 8081      		ld r24,Z
 10632 465c 8460      		ori r24,lo8(4)
 10633 465e 8C93      		st X,r24
 10634 4660 00C0      		rjmp .L675
 10635               	.L674:
 10636               	.LM659:
 10637 4662 A5E3      		ldi r26,lo8(53)
 10638 4664 B0E0      		ldi r27,hi8(53)
 10639 4666 E5E3      		ldi r30,lo8(53)
 10640 4668 F0E0      		ldi r31,hi8(53)
 10641 466a 8081      		ld r24,Z
 10642 466c 8B7F      		andi r24,lo8(-5)
 10643 466e 8C93      		st X,r24
 10644               	.L675:
 10645               	.LM660:
 10646 4670 A5E3      		ldi r26,lo8(53)
 10647 4672 B0E0      		ldi r27,hi8(53)
 10648 4674 E5E3      		ldi r30,lo8(53)
 10649 4676 F0E0      		ldi r31,hi8(53)
 10650 4678 8081      		ld r24,Z
 10651 467a 8E7F      		andi r24,lo8(-2)
 10652 467c 8C93      		st X,r24
 10653               	.LM661:
 10654 467e A5E3      		ldi r26,lo8(53)
 10655 4680 B0E0      		ldi r27,hi8(53)
 10656 4682 E5E3      		ldi r30,lo8(53)
 10657 4684 F0E0      		ldi r31,hi8(53)
 10658 4686 8081      		ld r24,Z
 10659 4688 8160      		ori r24,lo8(1)
 10660 468a 8C93      		st X,r24
 10661               	.LM662:
 10662 468c 8091 0000 		lds r24,i
 10663 4690 8F5F      		subi r24,lo8(-(1))
 10664 4692 8093 0000 		sts i,r24
 10665               	.L673:
 10666 4696 8091 0000 		lds r24,i
 10667 469a 8830      		cpi r24,lo8(8)
 10668 469c 00F0      		brlo .L676
 10669               	.LM663:
 10670 469e A5E3      		ldi r26,lo8(53)
 10671 46a0 B0E0      		ldi r27,hi8(53)
 10672 46a2 E5E3      		ldi r30,lo8(53)
 10673 46a4 F0E0      		ldi r31,hi8(53)
 10674 46a6 8081      		ld r24,Z
 10675 46a8 8460      		ori r24,lo8(4)
 10676 46aa 8C93      		st X,r24
 10677 46ac 80E0      		ldi r24,lo8(0x3f800000)
 10678 46ae 90E0      		ldi r25,hi8(0x3f800000)
 10679 46b0 A0E8      		ldi r26,hlo8(0x3f800000)
 10680 46b2 BFE3      		ldi r27,hhi8(0x3f800000)
 10681 46b4 8DA7      		std Y+45,r24
 10682 46b6 9EA7      		std Y+46,r25
 10683 46b8 AFA7      		std Y+47,r26
 10684 46ba B8AB      		std Y+48,r27
 10685               	.LBB602:
 10686               	.LBB603:
 10687               	.LM664:
 10688 46bc 6DA5      		ldd r22,Y+45
 10689 46be 7EA5      		ldd r23,Y+46
 10690 46c0 8FA5      		ldd r24,Y+47
 10691 46c2 98A9      		ldd r25,Y+48
 10692 46c4 2BEA      		ldi r18,lo8(0x40aaaaab)
 10693 46c6 3AEA      		ldi r19,hi8(0x40aaaaab)
 10694 46c8 4AEA      		ldi r20,hlo8(0x40aaaaab)
 10695 46ca 50E4      		ldi r21,hhi8(0x40aaaaab)
 10696 46cc 0E94 0000 		call __mulsf3
 10697 46d0 DC01      		movw r26,r24
 10698 46d2 CB01      		movw r24,r22
 10699 46d4 89A7      		std Y+41,r24
 10700 46d6 9AA7      		std Y+42,r25
 10701 46d8 ABA7      		std Y+43,r26
 10702 46da BCA7      		std Y+44,r27
 10703               	.LM665:
 10704 46dc 69A5      		ldd r22,Y+41
 10705 46de 7AA5      		ldd r23,Y+42
 10706 46e0 8BA5      		ldd r24,Y+43
 10707 46e2 9CA5      		ldd r25,Y+44
 10708 46e4 20E0      		ldi r18,lo8(0x3f800000)
 10709 46e6 30E0      		ldi r19,hi8(0x3f800000)
 10710 46e8 40E8      		ldi r20,hlo8(0x3f800000)
 10711 46ea 5FE3      		ldi r21,hhi8(0x3f800000)
 10712 46ec 0E94 0000 		call __ltsf2
 10713 46f0 8823      		tst r24
 10714 46f2 04F4      		brge .L750
 10715               	.L726:
 10716               	.LM666:
 10717 46f4 81E0      		ldi r24,lo8(1)
 10718 46f6 88A7      		std Y+40,r24
 10719 46f8 00C0      		rjmp .L679
 10720               	.L750:
 10721               	.LM667:
 10722 46fa 69A5      		ldd r22,Y+41
 10723 46fc 7AA5      		ldd r23,Y+42
 10724 46fe 8BA5      		ldd r24,Y+43
 10725 4700 9CA5      		ldd r25,Y+44
 10726 4702 20E0      		ldi r18,lo8(0x437f0000)
 10727 4704 30E0      		ldi r19,hi8(0x437f0000)
 10728 4706 4FE7      		ldi r20,hlo8(0x437f0000)
 10729 4708 53E4      		ldi r21,hhi8(0x437f0000)
 10730 470a 0E94 0000 		call __gtsf2
 10731 470e 1816      		cp __zero_reg__,r24
 10732 4710 04F0      		brlt .+2
 10733 4712 00C0      		rjmp .L751
 10734               	.L727:
 10735               	.LM668:
 10736 4714 6DA5      		ldd r22,Y+45
 10737 4716 7EA5      		ldd r23,Y+46
 10738 4718 8FA5      		ldd r24,Y+47
 10739 471a 98A9      		ldd r25,Y+48
 10740 471c 20E0      		ldi r18,lo8(0x447a0000)
 10741 471e 30E0      		ldi r19,hi8(0x447a0000)
 10742 4720 4AE7      		ldi r20,hlo8(0x447a0000)
 10743 4722 54E4      		ldi r21,hhi8(0x447a0000)
 10744 4724 0E94 0000 		call __divsf3
 10745 4728 DC01      		movw r26,r24
 10746 472a CB01      		movw r24,r22
 10747 472c 8CA3      		std Y+36,r24
 10748 472e 9DA3      		std Y+37,r25
 10749 4730 AEA3      		std Y+38,r26
 10750 4732 BFA3      		std Y+39,r27
 10751               	.LBB604:
 10752               	.LBB605:
 10753               	.LM669:
 10754 4734 6CA1      		ldd r22,Y+36
 10755 4736 7DA1      		ldd r23,Y+37
 10756 4738 8EA1      		ldd r24,Y+38
 10757 473a 9FA1      		ldd r25,Y+39
 10758 473c 20E0      		ldi r18,lo8(0x457a0000)
 10759 473e 30E0      		ldi r19,hi8(0x457a0000)
 10760 4740 4AE7      		ldi r20,hlo8(0x457a0000)
 10761 4742 55E4      		ldi r21,hhi8(0x457a0000)
 10762 4744 0E94 0000 		call __mulsf3
 10763 4748 DC01      		movw r26,r24
 10764 474a CB01      		movw r24,r22
 10765 474c 88A3      		std Y+32,r24
 10766 474e 99A3      		std Y+33,r25
 10767 4750 AAA3      		std Y+34,r26
 10768 4752 BBA3      		std Y+35,r27
 10769               	.LM670:
 10770 4754 68A1      		ldd r22,Y+32
 10771 4756 79A1      		ldd r23,Y+33
 10772 4758 8AA1      		ldd r24,Y+34
 10773 475a 9BA1      		ldd r25,Y+35
 10774 475c 20E0      		ldi r18,lo8(0x3f800000)
 10775 475e 30E0      		ldi r19,hi8(0x3f800000)
 10776 4760 40E8      		ldi r20,hlo8(0x3f800000)
 10777 4762 5FE3      		ldi r21,hhi8(0x3f800000)
 10778 4764 0E94 0000 		call __ltsf2
 10779 4768 8823      		tst r24
 10780 476a 04F4      		brge .L752
 10781               	.L728:
 10782               	.LM671:
 10783 476c 81E0      		ldi r24,lo8(1)
 10784 476e 90E0      		ldi r25,hi8(1)
 10785 4770 9F8F      		std Y+31,r25
 10786 4772 8E8F      		std Y+30,r24
 10787 4774 00C0      		rjmp .L684
 10788               	.L752:
 10789               	.LM672:
 10790 4776 68A1      		ldd r22,Y+32
 10791 4778 79A1      		ldd r23,Y+33
 10792 477a 8AA1      		ldd r24,Y+34
 10793 477c 9BA1      		ldd r25,Y+35
 10794 477e 20E0      		ldi r18,lo8(0x477fff00)
 10795 4780 3FEF      		ldi r19,hi8(0x477fff00)
 10796 4782 4FE7      		ldi r20,hlo8(0x477fff00)
 10797 4784 57E4      		ldi r21,hhi8(0x477fff00)
 10798 4786 0E94 0000 		call __gtsf2
 10799 478a 1816      		cp __zero_reg__,r24
 10800 478c 04F4      		brge .L753
 10801               	.L729:
 10802               	.LM673:
 10803 478e 6CA1      		ldd r22,Y+36
 10804 4790 7DA1      		ldd r23,Y+37
 10805 4792 8EA1      		ldd r24,Y+38
 10806 4794 9FA1      		ldd r25,Y+39
 10807 4796 20E0      		ldi r18,lo8(0x41200000)
 10808 4798 30E0      		ldi r19,hi8(0x41200000)
 10809 479a 40E2      		ldi r20,hlo8(0x41200000)
 10810 479c 51E4      		ldi r21,hhi8(0x41200000)
 10811 479e 0E94 0000 		call __mulsf3
 10812 47a2 DC01      		movw r26,r24
 10813 47a4 CB01      		movw r24,r22
 10814 47a6 BC01      		movw r22,r24
 10815 47a8 CD01      		movw r24,r26
 10816 47aa 0E94 0000 		call __fixunssfsi
 10817 47ae DC01      		movw r26,r24
 10818 47b0 CB01      		movw r24,r22
 10819 47b2 9F8F      		std Y+31,r25
 10820 47b4 8E8F      		std Y+30,r24
 10821 47b6 00C0      		rjmp .L687
 10822               	.L688:
 10823 47b8 80E9      		ldi r24,lo8(400)
 10824 47ba 91E0      		ldi r25,hi8(400)
 10825 47bc 9D8F      		std Y+29,r25
 10826 47be 8C8F      		std Y+28,r24
 10827               	.LBB606:
 10828               	.LBB607:
 10829               	.LM674:
 10830 47c0 8C8D      		ldd r24,Y+28
 10831 47c2 9D8D      		ldd r25,Y+29
 10832               	/* #APP */
 10833               	 ;  105 "d:/winavr-20100110/lib/gcc/../../avr/include/util/delay_basic.h" 1
 10834 47c4 0197      		1: sbiw r24,1
 10835 47c6 01F4      		brne 1b
 10836               	 ;  0 "" 2
 10837               	/* #NOAPP */
 10838 47c8 9D8F      		std Y+29,r25
 10839 47ca 8C8F      		std Y+28,r24
 10840               	.LBE607:
 10841               	.LBE606:
 10842               	.LM675:
 10843 47cc 8E8D      		ldd r24,Y+30
 10844 47ce 9F8D      		ldd r25,Y+31
 10845 47d0 0197      		sbiw r24,1
 10846 47d2 9F8F      		std Y+31,r25
 10847 47d4 8E8F      		std Y+30,r24
 10848               	.L687:
 10849               	.LM676:
 10850 47d6 8E8D      		ldd r24,Y+30
 10851 47d8 9F8D      		ldd r25,Y+31
 10852 47da 0097      		sbiw r24,0
 10853 47dc 01F4      		brne .L688
 10854 47de 00C0      		rjmp .L690
 10855               	.L753:
 10856               	.LM677:
 10857 47e0 68A1      		ldd r22,Y+32
 10858 47e2 79A1      		ldd r23,Y+33
 10859 47e4 8AA1      		ldd r24,Y+34
 10860 47e6 9BA1      		ldd r25,Y+35
 10861 47e8 0E94 0000 		call __fixunssfsi
 10862 47ec DC01      		movw r26,r24
 10863 47ee CB01      		movw r24,r22
 10864 47f0 9F8F      		std Y+31,r25
 10865 47f2 8E8F      		std Y+30,r24
 10866               	.L684:
 10867 47f4 8E8D      		ldd r24,Y+30
 10868 47f6 9F8D      		ldd r25,Y+31
 10869 47f8 9B8F      		std Y+27,r25
 10870 47fa 8A8F      		std Y+26,r24
 10871               	.LBB608:
 10872               	.LBB609:
 10873               	.LM678:
 10874 47fc 8A8D      		ldd r24,Y+26
 10875 47fe 9B8D      		ldd r25,Y+27
 10876               	/* #APP */
 10877               	 ;  105 "d:/winavr-20100110/lib/gcc/../../avr/include/util/delay_basic.h" 1
 10878 4800 0197      		1: sbiw r24,1
 10879 4802 01F4      		brne 1b
 10880               	 ;  0 "" 2
 10881               	/* #NOAPP */
 10882 4804 9B8F      		std Y+27,r25
 10883 4806 8A8F      		std Y+26,r24
 10884 4808 00C0      		rjmp .L690
 10885               	.L751:
 10886               	.LBE609:
 10887               	.LBE608:
 10888               	.LBE605:
 10889               	.LBE604:
 10890               	.LM679:
 10891 480a 69A5      		ldd r22,Y+41
 10892 480c 7AA5      		ldd r23,Y+42
 10893 480e 8BA5      		ldd r24,Y+43
 10894 4810 9CA5      		ldd r25,Y+44
 10895 4812 0E94 0000 		call __fixunssfsi
 10896 4816 DC01      		movw r26,r24
 10897 4818 CB01      		movw r24,r22
 10898 481a 88A7      		std Y+40,r24
 10899               	.L679:
 10900 481c 88A5      		ldd r24,Y+40
 10901 481e 898F      		std Y+25,r24
 10902               	.LBB610:
 10903               	.LBB611:
 10904               	.LM680:
 10905 4820 898D      		ldd r24,Y+25
 10906               	/* #APP */
 10907               	 ;  83 "d:/winavr-20100110/lib/gcc/../../avr/include/util/delay_basic.h" 1
 10908 4822 8A95      		1: dec r24
 10909 4824 01F4      		brne 1b
 10910               	 ;  0 "" 2
 10911               	/* #NOAPP */
 10912 4826 898F      		std Y+25,r24
 10913               	.L690:
 10914               	.LBE611:
 10915               	.LBE610:
 10916               	.LBE603:
 10917               	.LBE602:
 10918               	.LM681:
 10919 4828 83E0      		ldi r24,lo8(3)
 10920 482a 8093 0000 		sts PS2byte,r24
 10921               	.LM682:
 10922 482e 1092 0000 		sts i,__zero_reg__
 10923 4832 00C0      		rjmp .L691
 10924               	.L694:
 10925               	.LM683:
 10926 4834 8091 0000 		lds r24,PS2byte
 10927 4838 282F      		mov r18,r24
 10928 483a 30E0      		ldi r19,lo8(0)
 10929 483c 8091 0000 		lds r24,i
 10930 4840 882F      		mov r24,r24
 10931 4842 90E0      		ldi r25,lo8(0)
 10932 4844 F901      		movw r30,r18
 10933 4846 00C0      		rjmp 2f
 10934 4848 F595      	1:	asr r31
 10935 484a E795      		ror r30
 10936 484c 8A95      	2:	dec r24
 10937 484e 02F4      		brpl 1b
 10938 4850 CF01      		movw r24,r30
 10939 4852 8170      		andi r24,lo8(1)
 10940 4854 9070      		andi r25,hi8(1)
 10941 4856 8823      		tst r24
 10942 4858 01F0      		breq .L692
 10943 485a A5E3      		ldi r26,lo8(53)
 10944 485c B0E0      		ldi r27,hi8(53)
 10945 485e E5E3      		ldi r30,lo8(53)
 10946 4860 F0E0      		ldi r31,hi8(53)
 10947 4862 8081      		ld r24,Z
 10948 4864 8460      		ori r24,lo8(4)
 10949 4866 8C93      		st X,r24
 10950 4868 00C0      		rjmp .L693
 10951               	.L692:
 10952               	.LM684:
 10953 486a A5E3      		ldi r26,lo8(53)
 10954 486c B0E0      		ldi r27,hi8(53)
 10955 486e E5E3      		ldi r30,lo8(53)
 10956 4870 F0E0      		ldi r31,hi8(53)
 10957 4872 8081      		ld r24,Z
 10958 4874 8B7F      		andi r24,lo8(-5)
 10959 4876 8C93      		st X,r24
 10960               	.L693:
 10961               	.LM685:
 10962 4878 A5E3      		ldi r26,lo8(53)
 10963 487a B0E0      		ldi r27,hi8(53)
 10964 487c E5E3      		ldi r30,lo8(53)
 10965 487e F0E0      		ldi r31,hi8(53)
 10966 4880 8081      		ld r24,Z
 10967 4882 8E7F      		andi r24,lo8(-2)
 10968 4884 8C93      		st X,r24
 10969               	.LM686:
 10970 4886 A5E3      		ldi r26,lo8(53)
 10971 4888 B0E0      		ldi r27,hi8(53)
 10972 488a E5E3      		ldi r30,lo8(53)
 10973 488c F0E0      		ldi r31,hi8(53)
 10974 488e 8081      		ld r24,Z
 10975 4890 8160      		ori r24,lo8(1)
 10976 4892 8C93      		st X,r24
 10977               	.LM687:
 10978 4894 8091 0000 		lds r24,i
 10979 4898 8F5F      		subi r24,lo8(-(1))
 10980 489a 8093 0000 		sts i,r24
 10981               	.L691:
 10982 489e 8091 0000 		lds r24,i
 10983 48a2 8830      		cpi r24,lo8(8)
 10984 48a4 00F0      		brlo .L694
 10985               	.LM688:
 10986 48a6 A5E3      		ldi r26,lo8(53)
 10987 48a8 B0E0      		ldi r27,hi8(53)
 10988 48aa E5E3      		ldi r30,lo8(53)
 10989 48ac F0E0      		ldi r31,hi8(53)
 10990 48ae 8081      		ld r24,Z
 10991 48b0 8460      		ori r24,lo8(4)
 10992 48b2 8C93      		st X,r24
 10993 48b4 80E0      		ldi r24,lo8(0x3f800000)
 10994 48b6 90E0      		ldi r25,hi8(0x3f800000)
 10995 48b8 A0E8      		ldi r26,hlo8(0x3f800000)
 10996 48ba BFE3      		ldi r27,hhi8(0x3f800000)
 10997 48bc 8D8B      		std Y+21,r24
 10998 48be 9E8B      		std Y+22,r25
 10999 48c0 AF8B      		std Y+23,r26
 11000 48c2 B88F      		std Y+24,r27
 11001               	.LBB612:
 11002               	.LBB613:
 11003               	.LM689:
 11004 48c4 6D89      		ldd r22,Y+21
 11005 48c6 7E89      		ldd r23,Y+22
 11006 48c8 8F89      		ldd r24,Y+23
 11007 48ca 988D      		ldd r25,Y+24
 11008 48cc 2BEA      		ldi r18,lo8(0x40aaaaab)
 11009 48ce 3AEA      		ldi r19,hi8(0x40aaaaab)
 11010 48d0 4AEA      		ldi r20,hlo8(0x40aaaaab)
 11011 48d2 50E4      		ldi r21,hhi8(0x40aaaaab)
 11012 48d4 0E94 0000 		call __mulsf3
 11013 48d8 DC01      		movw r26,r24
 11014 48da CB01      		movw r24,r22
 11015 48dc 898B      		std Y+17,r24
 11016 48de 9A8B      		std Y+18,r25
 11017 48e0 AB8B      		std Y+19,r26
 11018 48e2 BC8B      		std Y+20,r27
 11019               	.LM690:
 11020 48e4 6989      		ldd r22,Y+17
 11021 48e6 7A89      		ldd r23,Y+18
 11022 48e8 8B89      		ldd r24,Y+19
 11023 48ea 9C89      		ldd r25,Y+20
 11024 48ec 20E0      		ldi r18,lo8(0x3f800000)
 11025 48ee 30E0      		ldi r19,hi8(0x3f800000)
 11026 48f0 40E8      		ldi r20,hlo8(0x3f800000)
 11027 48f2 5FE3      		ldi r21,hhi8(0x3f800000)
 11028 48f4 0E94 0000 		call __ltsf2
 11029 48f8 8823      		tst r24
 11030 48fa 04F4      		brge .L754
 11031               	.L730:
 11032               	.LM691:
 11033 48fc 81E0      		ldi r24,lo8(1)
 11034 48fe 888B      		std Y+16,r24
 11035 4900 00C0      		rjmp .L697
 11036               	.L754:
 11037               	.LM692:
 11038 4902 6989      		ldd r22,Y+17
 11039 4904 7A89      		ldd r23,Y+18
 11040 4906 8B89      		ldd r24,Y+19
 11041 4908 9C89      		ldd r25,Y+20
 11042 490a 20E0      		ldi r18,lo8(0x437f0000)
 11043 490c 30E0      		ldi r19,hi8(0x437f0000)
 11044 490e 4FE7      		ldi r20,hlo8(0x437f0000)
 11045 4910 53E4      		ldi r21,hhi8(0x437f0000)
 11046 4912 0E94 0000 		call __gtsf2
 11047 4916 1816      		cp __zero_reg__,r24
 11048 4918 04F0      		brlt .+2
 11049 491a 00C0      		rjmp .L755
 11050               	.L731:
 11051               	.LM693:
 11052 491c 6D89      		ldd r22,Y+21
 11053 491e 7E89      		ldd r23,Y+22
 11054 4920 8F89      		ldd r24,Y+23
 11055 4922 988D      		ldd r25,Y+24
 11056 4924 20E0      		ldi r18,lo8(0x447a0000)
 11057 4926 30E0      		ldi r19,hi8(0x447a0000)
 11058 4928 4AE7      		ldi r20,hlo8(0x447a0000)
 11059 492a 54E4      		ldi r21,hhi8(0x447a0000)
 11060 492c 0E94 0000 		call __divsf3
 11061 4930 DC01      		movw r26,r24
 11062 4932 CB01      		movw r24,r22
 11063 4934 8C87      		std Y+12,r24
 11064 4936 9D87      		std Y+13,r25
 11065 4938 AE87      		std Y+14,r26
 11066 493a BF87      		std Y+15,r27
 11067               	.LBB614:
 11068               	.LBB615:
 11069               	.LM694:
 11070 493c 6C85      		ldd r22,Y+12
 11071 493e 7D85      		ldd r23,Y+13
 11072 4940 8E85      		ldd r24,Y+14
 11073 4942 9F85      		ldd r25,Y+15
 11074 4944 20E0      		ldi r18,lo8(0x457a0000)
 11075 4946 30E0      		ldi r19,hi8(0x457a0000)
 11076 4948 4AE7      		ldi r20,hlo8(0x457a0000)
 11077 494a 55E4      		ldi r21,hhi8(0x457a0000)
 11078 494c 0E94 0000 		call __mulsf3
 11079 4950 DC01      		movw r26,r24
 11080 4952 CB01      		movw r24,r22
 11081 4954 8887      		std Y+8,r24
 11082 4956 9987      		std Y+9,r25
 11083 4958 AA87      		std Y+10,r26
 11084 495a BB87      		std Y+11,r27
 11085               	.LM695:
 11086 495c 6885      		ldd r22,Y+8
 11087 495e 7985      		ldd r23,Y+9
 11088 4960 8A85      		ldd r24,Y+10
 11089 4962 9B85      		ldd r25,Y+11
 11090 4964 20E0      		ldi r18,lo8(0x3f800000)
 11091 4966 30E0      		ldi r19,hi8(0x3f800000)
 11092 4968 40E8      		ldi r20,hlo8(0x3f800000)
 11093 496a 5FE3      		ldi r21,hhi8(0x3f800000)
 11094 496c 0E94 0000 		call __ltsf2
 11095 4970 8823      		tst r24
 11096 4972 04F4      		brge .L756
 11097               	.L732:
 11098               	.LM696:
 11099 4974 81E0      		ldi r24,lo8(1)
 11100 4976 90E0      		ldi r25,hi8(1)
 11101 4978 9F83      		std Y+7,r25
 11102 497a 8E83      		std Y+6,r24
 11103 497c 00C0      		rjmp .L702
 11104               	.L756:
 11105               	.LM697:
 11106 497e 6885      		ldd r22,Y+8
 11107 4980 7985      		ldd r23,Y+9
 11108 4982 8A85      		ldd r24,Y+10
 11109 4984 9B85      		ldd r25,Y+11
 11110 4986 20E0      		ldi r18,lo8(0x477fff00)
 11111 4988 3FEF      		ldi r19,hi8(0x477fff00)
 11112 498a 4FE7      		ldi r20,hlo8(0x477fff00)
 11113 498c 57E4      		ldi r21,hhi8(0x477fff00)
 11114 498e 0E94 0000 		call __gtsf2
 11115 4992 1816      		cp __zero_reg__,r24
 11116 4994 04F4      		brge .L757
 11117               	.L733:
 11118               	.LM698:
 11119 4996 6C85      		ldd r22,Y+12
 11120 4998 7D85      		ldd r23,Y+13
 11121 499a 8E85      		ldd r24,Y+14
 11122 499c 9F85      		ldd r25,Y+15
 11123 499e 20E0      		ldi r18,lo8(0x41200000)
 11124 49a0 30E0      		ldi r19,hi8(0x41200000)
 11125 49a2 40E2      		ldi r20,hlo8(0x41200000)
 11126 49a4 51E4      		ldi r21,hhi8(0x41200000)
 11127 49a6 0E94 0000 		call __mulsf3
 11128 49aa DC01      		movw r26,r24
 11129 49ac CB01      		movw r24,r22
 11130 49ae BC01      		movw r22,r24
 11131 49b0 CD01      		movw r24,r26
 11132 49b2 0E94 0000 		call __fixunssfsi
 11133 49b6 DC01      		movw r26,r24
 11134 49b8 CB01      		movw r24,r22
 11135 49ba 9F83      		std Y+7,r25
 11136 49bc 8E83      		std Y+6,r24
 11137 49be 00C0      		rjmp .L705
 11138               	.L706:
 11139 49c0 80E9      		ldi r24,lo8(400)
 11140 49c2 91E0      		ldi r25,hi8(400)
 11141 49c4 9D83      		std Y+5,r25
 11142 49c6 8C83      		std Y+4,r24
 11143               	.LBB616:
 11144               	.LBB617:
 11145               	.LM699:
 11146 49c8 8C81      		ldd r24,Y+4
 11147 49ca 9D81      		ldd r25,Y+5
 11148               	/* #APP */
 11149               	 ;  105 "d:/winavr-20100110/lib/gcc/../../avr/include/util/delay_basic.h" 1
 11150 49cc 0197      		1: sbiw r24,1
 11151 49ce 01F4      		brne 1b
 11152               	 ;  0 "" 2
 11153               	/* #NOAPP */
 11154 49d0 9D83      		std Y+5,r25
 11155 49d2 8C83      		std Y+4,r24
 11156               	.LBE617:
 11157               	.LBE616:
 11158               	.LM700:
 11159 49d4 8E81      		ldd r24,Y+6
 11160 49d6 9F81      		ldd r25,Y+7
 11161 49d8 0197      		sbiw r24,1
 11162 49da 9F83      		std Y+7,r25
 11163 49dc 8E83      		std Y+6,r24
 11164               	.L705:
 11165               	.LM701:
 11166 49de 8E81      		ldd r24,Y+6
 11167 49e0 9F81      		ldd r25,Y+7
 11168 49e2 0097      		sbiw r24,0
 11169 49e4 01F4      		brne .L706
 11170 49e6 00C0      		rjmp .L708
 11171               	.L757:
 11172               	.LM702:
 11173 49e8 6885      		ldd r22,Y+8
 11174 49ea 7985      		ldd r23,Y+9
 11175 49ec 8A85      		ldd r24,Y+10
 11176 49ee 9B85      		ldd r25,Y+11
 11177 49f0 0E94 0000 		call __fixunssfsi
 11178 49f4 DC01      		movw r26,r24
 11179 49f6 CB01      		movw r24,r22
 11180 49f8 9F83      		std Y+7,r25
 11181 49fa 8E83      		std Y+6,r24
 11182               	.L702:
 11183 49fc 8E81      		ldd r24,Y+6
 11184 49fe 9F81      		ldd r25,Y+7
 11185 4a00 9B83      		std Y+3,r25
 11186 4a02 8A83      		std Y+2,r24
 11187               	.LBB618:
 11188               	.LBB619:
 11189               	.LM703:
 11190 4a04 8A81      		ldd r24,Y+2
 11191 4a06 9B81      		ldd r25,Y+3
 11192               	/* #APP */
 11193               	 ;  105 "d:/winavr-20100110/lib/gcc/../../avr/include/util/delay_basic.h" 1
 11194 4a08 0197      		1: sbiw r24,1
 11195 4a0a 01F4      		brne 1b
 11196               	 ;  0 "" 2
 11197               	/* #NOAPP */
 11198 4a0c 9B83      		std Y+3,r25
 11199 4a0e 8A83      		std Y+2,r24
 11200 4a10 00C0      		rjmp .L708
 11201               	.L755:
 11202               	.LBE619:
 11203               	.LBE618:
 11204               	.LBE615:
 11205               	.LBE614:
 11206               	.LM704:
 11207 4a12 6989      		ldd r22,Y+17
 11208 4a14 7A89      		ldd r23,Y+18
 11209 4a16 8B89      		ldd r24,Y+19
 11210 4a18 9C89      		ldd r25,Y+20
 11211 4a1a 0E94 0000 		call __fixunssfsi
 11212 4a1e DC01      		movw r26,r24
 11213 4a20 CB01      		movw r24,r22
 11214 4a22 888B      		std Y+16,r24
 11215               	.L697:
 11216 4a24 8889      		ldd r24,Y+16
 11217 4a26 8983      		std Y+1,r24
 11218               	.LBB620:
 11219               	.LBB621:
 11220               	.LM705:
 11221 4a28 8981      		ldd r24,Y+1
 11222               	/* #APP */
 11223               	 ;  83 "d:/winavr-20100110/lib/gcc/../../avr/include/util/delay_basic.h" 1
 11224 4a2a 8A95      		1: dec r24
 11225 4a2c 01F4      		brne 1b
 11226               	 ;  0 "" 2
 11227               	/* #NOAPP */
 11228 4a2e 8983      		std Y+1,r24
 11229               	.L708:
 11230               	.LBE621:
 11231               	.LBE620:
 11232               	.LBE613:
 11233               	.LBE612:
 11234               	.LM706:
 11235 4a30 A5E3      		ldi r26,lo8(53)
 11236 4a32 B0E0      		ldi r27,hi8(53)
 11237 4a34 E5E3      		ldi r30,lo8(53)
 11238 4a36 F0E0      		ldi r31,hi8(53)
 11239 4a38 8081      		ld r24,Z
 11240 4a3a 8061      		ori r24,lo8(16)
 11241 4a3c 8C93      		st X,r24
 11242               	/* epilogue start */
 11243               	.LM707:
 11244 4a3e C057      		subi r28,lo8(-(144))
 11245 4a40 DF4F      		sbci r29,hi8(-(144))
 11246 4a42 0FB6      		in __tmp_reg__,__SREG__
 11247 4a44 F894      		cli
 11248 4a46 DEBF      		out __SP_H__,r29
 11249 4a48 0FBE      		out __SREG__,__tmp_reg__
 11250 4a4a CDBF      		out __SP_L__,r28
 11251 4a4c CF91      		pop r28
 11252 4a4e DF91      		pop r29
 11253 4a50 1F91      		pop r17
 11254 4a52 0F91      		pop r16
 11255 4a54 0895      		ret
 11256               	.LFE9:
 11258               		.comm PS2byte,1,1
 11259               		.comm PS2data4,1,1
 11260               		.comm PS2data5,1,1
 11261               		.comm PS2data6,1,1
 11262               		.comm PS2data7,1,1
 11263               		.comm PS2data8,1,1
 11264               		.comm PS2data9,1,1
 11265               		.comm i,1,1
 11314               	.Letext0:
DEFINED SYMBOLS
                            *ABS*:00000000 ps2.c
C:\Users\Sourabh\AppData\Local\Temp/cchGOznd.s:2      *ABS*:0000003f __SREG__
C:\Users\Sourabh\AppData\Local\Temp/cchGOznd.s:3      *ABS*:0000003e __SP_H__
C:\Users\Sourabh\AppData\Local\Temp/cchGOznd.s:4      *ABS*:0000003d __SP_L__
C:\Users\Sourabh\AppData\Local\Temp/cchGOznd.s:5      *ABS*:00000034 __CCP__
C:\Users\Sourabh\AppData\Local\Temp/cchGOznd.s:6      *ABS*:00000000 __tmp_reg__
C:\Users\Sourabh\AppData\Local\Temp/cchGOznd.s:7      *ABS*:00000001 __zero_reg__
C:\Users\Sourabh\AppData\Local\Temp/cchGOznd.s:18     .text:00000000 main
C:\Users\Sourabh\AppData\Local\Temp/cchGOznd.s:7219   .text:00002fc0 config
C:\Users\Sourabh\AppData\Local\Temp/cchGOznd.s:9050   .text:00003bc4 analog
C:\Users\Sourabh\AppData\Local\Temp/cchGOznd.s:1241   .text:000007ca ReadGamepad
                            *COM*:00000001 PS2data5
                            *COM*:00000001 PS2data8
                            *COM*:00000001 PS2data7
                            *COM*:00000001 PS2byte
                            *COM*:00000001 i
                            *COM*:00000001 PS2data4
                            *COM*:00000001 PS2data6
                            *COM*:00000001 PS2data9

UNDEFINED SYMBOLS
__mulsf3
__ltsf2
__gtsf2
__divsf3
__fixunssfsi
__do_clear_bss
