   1               		.file	"fullfinal.c"
   2               	__SREG__ = 0x3f
   3               	__SP_H__ = 0x3e
   4               	__SP_L__ = 0x3d
   5               	__CCP__  = 0x34
   6               	__tmp_reg__ = 0
   7               	__zero_reg__ = 1
  15               	.Ltext0:
  16               	.global	main
  18               	main:
  19               	.LFB6:
  20               	.LM1:
  21 0000 0F93      		push r16
  22 0002 1F93      		push r17
  23 0004 DF93      		push r29
  24 0006 CF93      		push r28
  25 0008 CDB7      		in r28,__SP_L__
  26 000a DEB7      		in r29,__SP_H__
  27 000c C057      		subi r28,lo8(-(-112))
  28 000e D040      		sbci r29,hi8(-(-112))
  29 0010 0FB6      		in __tmp_reg__,__SREG__
  30 0012 F894      		cli
  31 0014 DEBF      		out __SP_H__,r29
  32 0016 0FBE      		out __SREG__,__tmp_reg__
  33 0018 CDBF      		out __SP_L__,r28
  34               	/* prologue: function */
  35               	/* frame size = 112 */
  36               	.LM2:
  37 001a EAE3      		ldi r30,lo8(58)
  38 001c F0E0      		ldi r31,hi8(58)
  39 001e 8FEF      		ldi r24,lo8(-1)
  40 0020 8083      		st Z,r24
  41               	.LM3:
  42 0022 E7E3      		ldi r30,lo8(55)
  43 0024 F0E0      		ldi r31,hi8(55)
  44 0026 8DEE      		ldi r24,lo8(-19)
  45 0028 8083      		st Z,r24
  46               	.LM4:
  47 002a E1E3      		ldi r30,lo8(49)
  48 002c F0E0      		ldi r31,hi8(49)
  49 002e 85EF      		ldi r24,lo8(-11)
  50 0030 8083      		st Z,r24
  51               	.LM5:
  52 0032 EBE3      		ldi r30,lo8(59)
  53 0034 F0E0      		ldi r31,hi8(59)
  54 0036 8CE0      		ldi r24,lo8(12)
  55 0038 8083      		st Z,r24
  56               	.LM6:
  57 003a E8E3      		ldi r30,lo8(56)
  58 003c F0E0      		ldi r31,hi8(56)
  59 003e 82E1      		ldi r24,lo8(18)
  60 0040 8083      		st Z,r24
  61               	.LM7:
  62 0042 E2E3      		ldi r30,lo8(50)
  63 0044 F0E0      		ldi r31,hi8(50)
  64 0046 8AE1      		ldi r24,lo8(26)
  65 0048 8083      		st Z,r24
  66 004a 00C0      		rjmp .L2
  67               	.L5:
  68               	.LM8:
  69 004c E6E3      		ldi r30,lo8(54)
  70 004e F0E0      		ldi r31,hi8(54)
  71 0050 8081      		ld r24,Z
  72 0052 882F      		mov r24,r24
  73 0054 90E0      		ldi r25,lo8(0)
  74 0056 8271      		andi r24,lo8(18)
  75 0058 9070      		andi r25,hi8(18)
  76 005a 0097      		sbiw r24,0
  77 005c 01F4      		brne .L3
  78               	.LM9:
  79 005e EBE3      		ldi r30,lo8(59)
  80 0060 F0E0      		ldi r31,hi8(59)
  81 0062 8CE0      		ldi r24,lo8(12)
  82 0064 8083      		st Z,r24
  83 0066 00C0      		rjmp .L2
  84               	.L3:
  85               	.LM10:
  86 0068 E6E3      		ldi r30,lo8(54)
  87 006a F0E0      		ldi r31,hi8(54)
  88 006c 8081      		ld r24,Z
  89 006e 882F      		mov r24,r24
  90 0070 90E0      		ldi r25,lo8(0)
  91 0072 8270      		andi r24,lo8(2)
  92 0074 9070      		andi r25,hi8(2)
  93 0076 0097      		sbiw r24,0
  94 0078 01F0      		breq .L4
  95               	.LM11:
  96 007a EBE3      		ldi r30,lo8(59)
  97 007c F0E0      		ldi r31,hi8(59)
  98 007e 8CE4      		ldi r24,lo8(76)
  99 0080 8083      		st Z,r24
 100 0082 00C0      		rjmp .L2
 101               	.L4:
 102               	.LM12:
 103 0084 EBE3      		ldi r30,lo8(59)
 104 0086 F0E0      		ldi r31,hi8(59)
 105 0088 8CE1      		ldi r24,lo8(28)
 106 008a 8083      		st Z,r24
 107               	.L2:
 108               	.LM13:
 109 008c E0E3      		ldi r30,lo8(48)
 110 008e F0E0      		ldi r31,hi8(48)
 111 0090 8081      		ld r24,Z
 112 0092 882F      		mov r24,r24
 113 0094 90E0      		ldi r25,lo8(0)
 114 0096 8870      		andi r24,lo8(8)
 115 0098 9070      		andi r25,hi8(8)
 116 009a 0097      		sbiw r24,0
 117 009c 01F4      		brne .L5
 118               	.LM14:
 119 009e E2E3      		ldi r30,lo8(50)
 120 00a0 F0E0      		ldi r31,hi8(50)
 121 00a2 8AE1      		ldi r24,lo8(26)
 122 00a4 8083      		st Z,r24
 123               	.LM15:
 124 00a6 EBE3      		ldi r30,lo8(59)
 125 00a8 F0E0      		ldi r31,hi8(59)
 126 00aa 84E5      		ldi r24,lo8(84)
 127 00ac 8083      		st Z,r24
 128 00ae FE01      		movw r30,r28
 129 00b0 E359      		subi r30,lo8(-(109))
 130 00b2 FF4F      		sbci r31,hi8(-(109))
 131 00b4 80E0      		ldi r24,lo8(0x43fa0000)
 132 00b6 90E0      		ldi r25,hi8(0x43fa0000)
 133 00b8 AAEF      		ldi r26,hlo8(0x43fa0000)
 134 00ba B3E4      		ldi r27,hhi8(0x43fa0000)
 135 00bc 8083      		st Z,r24
 136 00be 9183      		std Z+1,r25
 137 00c0 A283      		std Z+2,r26
 138 00c2 B383      		std Z+3,r27
 139               	.LBB50:
 140               	.LBB51:
 141               	.LM16:
 142 00c4 8E01      		movw r16,r28
 143 00c6 0759      		subi r16,lo8(-(105))
 144 00c8 1F4F      		sbci r17,hi8(-(105))
 145 00ca FE01      		movw r30,r28
 146 00cc E359      		subi r30,lo8(-(109))
 147 00ce FF4F      		sbci r31,hi8(-(109))
 148 00d0 6081      		ld r22,Z
 149 00d2 7181      		ldd r23,Z+1
 150 00d4 8281      		ldd r24,Z+2
 151 00d6 9381      		ldd r25,Z+3
 152 00d8 20E0      		ldi r18,lo8(0x44fa0000)
 153 00da 30E0      		ldi r19,hi8(0x44fa0000)
 154 00dc 4AEF      		ldi r20,hlo8(0x44fa0000)
 155 00de 54E4      		ldi r21,hhi8(0x44fa0000)
 156 00e0 0E94 0000 		call __mulsf3
 157 00e4 DC01      		movw r26,r24
 158 00e6 CB01      		movw r24,r22
 159 00e8 F801      		movw r30,r16
 160 00ea 8083      		st Z,r24
 161 00ec 9183      		std Z+1,r25
 162 00ee A283      		std Z+2,r26
 163 00f0 B383      		std Z+3,r27
 164               	.LM17:
 165 00f2 FE01      		movw r30,r28
 166 00f4 E759      		subi r30,lo8(-(105))
 167 00f6 FF4F      		sbci r31,hi8(-(105))
 168 00f8 6081      		ld r22,Z
 169 00fa 7181      		ldd r23,Z+1
 170 00fc 8281      		ldd r24,Z+2
 171 00fe 9381      		ldd r25,Z+3
 172 0100 20E0      		ldi r18,lo8(0x3f800000)
 173 0102 30E0      		ldi r19,hi8(0x3f800000)
 174 0104 40E8      		ldi r20,hlo8(0x3f800000)
 175 0106 5FE3      		ldi r21,hhi8(0x3f800000)
 176 0108 0E94 0000 		call __ltsf2
 177 010c 8823      		tst r24
 178 010e 04F4      		brge .L95
 179               	.L79:
 180               	.LM18:
 181 0110 FE01      		movw r30,r28
 182 0112 E959      		subi r30,lo8(-(103))
 183 0114 FF4F      		sbci r31,hi8(-(103))
 184 0116 81E0      		ldi r24,lo8(1)
 185 0118 90E0      		ldi r25,hi8(1)
 186 011a 9183      		std Z+1,r25
 187 011c 8083      		st Z,r24
 188 011e 00C0      		rjmp .L8
 189               	.L95:
 190               	.LM19:
 191 0120 FE01      		movw r30,r28
 192 0122 E759      		subi r30,lo8(-(105))
 193 0124 FF4F      		sbci r31,hi8(-(105))
 194 0126 6081      		ld r22,Z
 195 0128 7181      		ldd r23,Z+1
 196 012a 8281      		ldd r24,Z+2
 197 012c 9381      		ldd r25,Z+3
 198 012e 20E0      		ldi r18,lo8(0x477fff00)
 199 0130 3FEF      		ldi r19,hi8(0x477fff00)
 200 0132 4FE7      		ldi r20,hlo8(0x477fff00)
 201 0134 57E4      		ldi r21,hhi8(0x477fff00)
 202 0136 0E94 0000 		call __gtsf2
 203 013a 1816      		cp __zero_reg__,r24
 204 013c 04F0      		brlt .+2
 205 013e 00C0      		rjmp .L96
 206               	.L80:
 207               	.LM20:
 208 0140 FE01      		movw r30,r28
 209 0142 E359      		subi r30,lo8(-(109))
 210 0144 FF4F      		sbci r31,hi8(-(109))
 211 0146 6081      		ld r22,Z
 212 0148 7181      		ldd r23,Z+1
 213 014a 8281      		ldd r24,Z+2
 214 014c 9381      		ldd r25,Z+3
 215 014e 20E0      		ldi r18,lo8(0x41200000)
 216 0150 30E0      		ldi r19,hi8(0x41200000)
 217 0152 40E2      		ldi r20,hlo8(0x41200000)
 218 0154 51E4      		ldi r21,hhi8(0x41200000)
 219 0156 0E94 0000 		call __mulsf3
 220 015a DC01      		movw r26,r24
 221 015c CB01      		movw r24,r22
 222 015e 8E01      		movw r16,r28
 223 0160 0959      		subi r16,lo8(-(103))
 224 0162 1F4F      		sbci r17,hi8(-(103))
 225 0164 BC01      		movw r22,r24
 226 0166 CD01      		movw r24,r26
 227 0168 0E94 0000 		call __fixunssfsi
 228 016c DC01      		movw r26,r24
 229 016e CB01      		movw r24,r22
 230 0170 F801      		movw r30,r16
 231 0172 9183      		std Z+1,r25
 232 0174 8083      		st Z,r24
 233 0176 00C0      		rjmp .L11
 234               	.L12:
 235 0178 FE01      		movw r30,r28
 236 017a EB59      		subi r30,lo8(-(101))
 237 017c FF4F      		sbci r31,hi8(-(101))
 238 017e 88EC      		ldi r24,lo8(200)
 239 0180 90E0      		ldi r25,hi8(200)
 240 0182 9183      		std Z+1,r25
 241 0184 8083      		st Z,r24
 242               	.LBB52:
 243               	.LBB53:
 244               	.LM21:
 245 0186 FE01      		movw r30,r28
 246 0188 EB59      		subi r30,lo8(-(101))
 247 018a FF4F      		sbci r31,hi8(-(101))
 248 018c 8081      		ld r24,Z
 249 018e 9181      		ldd r25,Z+1
 250               	/* #APP */
 251               	 ;  105 "c:/winavr-20100110/lib/gcc/../../avr/include/util/delay_basic.h" 1
 252 0190 0197      		1: sbiw r24,1
 253 0192 01F4      		brne 1b
 254               	 ;  0 "" 2
 255               	/* #NOAPP */
 256 0194 FE01      		movw r30,r28
 257 0196 EB59      		subi r30,lo8(-(101))
 258 0198 FF4F      		sbci r31,hi8(-(101))
 259 019a 9183      		std Z+1,r25
 260 019c 8083      		st Z,r24
 261               	.LBE53:
 262               	.LBE52:
 263               	.LM22:
 264 019e DE01      		movw r26,r28
 265 01a0 A959      		subi r26,lo8(-(103))
 266 01a2 BF4F      		sbci r27,hi8(-(103))
 267 01a4 FE01      		movw r30,r28
 268 01a6 E959      		subi r30,lo8(-(103))
 269 01a8 FF4F      		sbci r31,hi8(-(103))
 270 01aa 8081      		ld r24,Z
 271 01ac 9181      		ldd r25,Z+1
 272 01ae 0197      		sbiw r24,1
 273 01b0 1196      		adiw r26,1
 274 01b2 9C93      		st X,r25
 275 01b4 8E93      		st -X,r24
 276               	.L11:
 277               	.LM23:
 278 01b6 FE01      		movw r30,r28
 279 01b8 E959      		subi r30,lo8(-(103))
 280 01ba FF4F      		sbci r31,hi8(-(103))
 281 01bc 8081      		ld r24,Z
 282 01be 9181      		ldd r25,Z+1
 283 01c0 0097      		sbiw r24,0
 284 01c2 01F4      		brne .L12
 285 01c4 00C0      		rjmp .L13
 286               	.L96:
 287               	.LM24:
 288 01c6 8E01      		movw r16,r28
 289 01c8 0959      		subi r16,lo8(-(103))
 290 01ca 1F4F      		sbci r17,hi8(-(103))
 291 01cc FE01      		movw r30,r28
 292 01ce E759      		subi r30,lo8(-(105))
 293 01d0 FF4F      		sbci r31,hi8(-(105))
 294 01d2 6081      		ld r22,Z
 295 01d4 7181      		ldd r23,Z+1
 296 01d6 8281      		ldd r24,Z+2
 297 01d8 9381      		ldd r25,Z+3
 298 01da 0E94 0000 		call __fixunssfsi
 299 01de DC01      		movw r26,r24
 300 01e0 CB01      		movw r24,r22
 301 01e2 F801      		movw r30,r16
 302 01e4 9183      		std Z+1,r25
 303 01e6 8083      		st Z,r24
 304               	.L8:
 305 01e8 DE01      		movw r26,r28
 306 01ea AD59      		subi r26,lo8(-(99))
 307 01ec BF4F      		sbci r27,hi8(-(99))
 308 01ee FE01      		movw r30,r28
 309 01f0 E959      		subi r30,lo8(-(103))
 310 01f2 FF4F      		sbci r31,hi8(-(103))
 311 01f4 8081      		ld r24,Z
 312 01f6 9181      		ldd r25,Z+1
 313 01f8 8D93      		st X+,r24
 314 01fa 9C93      		st X,r25
 315               	.LBB54:
 316               	.LBB55:
 317               	.LM25:
 318 01fc FE01      		movw r30,r28
 319 01fe ED59      		subi r30,lo8(-(99))
 320 0200 FF4F      		sbci r31,hi8(-(99))
 321 0202 8081      		ld r24,Z
 322 0204 9181      		ldd r25,Z+1
 323               	/* #APP */
 324               	 ;  105 "c:/winavr-20100110/lib/gcc/../../avr/include/util/delay_basic.h" 1
 325 0206 0197      		1: sbiw r24,1
 326 0208 01F4      		brne 1b
 327               	 ;  0 "" 2
 328               	/* #NOAPP */
 329 020a FE01      		movw r30,r28
 330 020c ED59      		subi r30,lo8(-(99))
 331 020e FF4F      		sbci r31,hi8(-(99))
 332 0210 9183      		std Z+1,r25
 333 0212 8083      		st Z,r24
 334               	.L13:
 335               	.LBE55:
 336               	.LBE54:
 337               	.LBE51:
 338               	.LBE50:
 339               	.LM26:
 340 0214 EBE3      		ldi r30,lo8(59)
 341 0216 F0E0      		ldi r31,hi8(59)
 342 0218 80E5      		ldi r24,lo8(80)
 343 021a 8083      		st Z,r24
 344 021c FE01      		movw r30,r28
 345 021e E15A      		subi r30,lo8(-(95))
 346 0220 FF4F      		sbci r31,hi8(-(95))
 347 0222 80E0      		ldi r24,lo8(0x43fa0000)
 348 0224 90E0      		ldi r25,hi8(0x43fa0000)
 349 0226 AAEF      		ldi r26,hlo8(0x43fa0000)
 350 0228 B3E4      		ldi r27,hhi8(0x43fa0000)
 351 022a 8083      		st Z,r24
 352 022c 9183      		std Z+1,r25
 353 022e A283      		std Z+2,r26
 354 0230 B383      		std Z+3,r27
 355               	.LBB56:
 356               	.LBB57:
 357               	.LM27:
 358 0232 8E01      		movw r16,r28
 359 0234 055A      		subi r16,lo8(-(91))
 360 0236 1F4F      		sbci r17,hi8(-(91))
 361 0238 FE01      		movw r30,r28
 362 023a E15A      		subi r30,lo8(-(95))
 363 023c FF4F      		sbci r31,hi8(-(95))
 364 023e 6081      		ld r22,Z
 365 0240 7181      		ldd r23,Z+1
 366 0242 8281      		ldd r24,Z+2
 367 0244 9381      		ldd r25,Z+3
 368 0246 20E0      		ldi r18,lo8(0x44fa0000)
 369 0248 30E0      		ldi r19,hi8(0x44fa0000)
 370 024a 4AEF      		ldi r20,hlo8(0x44fa0000)
 371 024c 54E4      		ldi r21,hhi8(0x44fa0000)
 372 024e 0E94 0000 		call __mulsf3
 373 0252 DC01      		movw r26,r24
 374 0254 CB01      		movw r24,r22
 375 0256 F801      		movw r30,r16
 376 0258 8083      		st Z,r24
 377 025a 9183      		std Z+1,r25
 378 025c A283      		std Z+2,r26
 379 025e B383      		std Z+3,r27
 380               	.LM28:
 381 0260 FE01      		movw r30,r28
 382 0262 E55A      		subi r30,lo8(-(91))
 383 0264 FF4F      		sbci r31,hi8(-(91))
 384 0266 6081      		ld r22,Z
 385 0268 7181      		ldd r23,Z+1
 386 026a 8281      		ldd r24,Z+2
 387 026c 9381      		ldd r25,Z+3
 388 026e 20E0      		ldi r18,lo8(0x3f800000)
 389 0270 30E0      		ldi r19,hi8(0x3f800000)
 390 0272 40E8      		ldi r20,hlo8(0x3f800000)
 391 0274 5FE3      		ldi r21,hhi8(0x3f800000)
 392 0276 0E94 0000 		call __ltsf2
 393 027a 8823      		tst r24
 394 027c 04F4      		brge .L97
 395               	.L81:
 396               	.LM29:
 397 027e FE01      		movw r30,r28
 398 0280 E75A      		subi r30,lo8(-(89))
 399 0282 FF4F      		sbci r31,hi8(-(89))
 400 0284 81E0      		ldi r24,lo8(1)
 401 0286 90E0      		ldi r25,hi8(1)
 402 0288 9183      		std Z+1,r25
 403 028a 8083      		st Z,r24
 404 028c 00C0      		rjmp .L16
 405               	.L97:
 406               	.LM30:
 407 028e FE01      		movw r30,r28
 408 0290 E55A      		subi r30,lo8(-(91))
 409 0292 FF4F      		sbci r31,hi8(-(91))
 410 0294 6081      		ld r22,Z
 411 0296 7181      		ldd r23,Z+1
 412 0298 8281      		ldd r24,Z+2
 413 029a 9381      		ldd r25,Z+3
 414 029c 20E0      		ldi r18,lo8(0x477fff00)
 415 029e 3FEF      		ldi r19,hi8(0x477fff00)
 416 02a0 4FE7      		ldi r20,hlo8(0x477fff00)
 417 02a2 57E4      		ldi r21,hhi8(0x477fff00)
 418 02a4 0E94 0000 		call __gtsf2
 419 02a8 1816      		cp __zero_reg__,r24
 420 02aa 04F0      		brlt .+2
 421 02ac 00C0      		rjmp .L98
 422               	.L82:
 423               	.LM31:
 424 02ae FE01      		movw r30,r28
 425 02b0 E15A      		subi r30,lo8(-(95))
 426 02b2 FF4F      		sbci r31,hi8(-(95))
 427 02b4 6081      		ld r22,Z
 428 02b6 7181      		ldd r23,Z+1
 429 02b8 8281      		ldd r24,Z+2
 430 02ba 9381      		ldd r25,Z+3
 431 02bc 20E0      		ldi r18,lo8(0x41200000)
 432 02be 30E0      		ldi r19,hi8(0x41200000)
 433 02c0 40E2      		ldi r20,hlo8(0x41200000)
 434 02c2 51E4      		ldi r21,hhi8(0x41200000)
 435 02c4 0E94 0000 		call __mulsf3
 436 02c8 DC01      		movw r26,r24
 437 02ca CB01      		movw r24,r22
 438 02cc 8E01      		movw r16,r28
 439 02ce 075A      		subi r16,lo8(-(89))
 440 02d0 1F4F      		sbci r17,hi8(-(89))
 441 02d2 BC01      		movw r22,r24
 442 02d4 CD01      		movw r24,r26
 443 02d6 0E94 0000 		call __fixunssfsi
 444 02da DC01      		movw r26,r24
 445 02dc CB01      		movw r24,r22
 446 02de F801      		movw r30,r16
 447 02e0 9183      		std Z+1,r25
 448 02e2 8083      		st Z,r24
 449 02e4 00C0      		rjmp .L19
 450               	.L20:
 451 02e6 FE01      		movw r30,r28
 452 02e8 E95A      		subi r30,lo8(-(87))
 453 02ea FF4F      		sbci r31,hi8(-(87))
 454 02ec 88EC      		ldi r24,lo8(200)
 455 02ee 90E0      		ldi r25,hi8(200)
 456 02f0 9183      		std Z+1,r25
 457 02f2 8083      		st Z,r24
 458               	.LBB58:
 459               	.LBB59:
 460               	.LM32:
 461 02f4 FE01      		movw r30,r28
 462 02f6 E95A      		subi r30,lo8(-(87))
 463 02f8 FF4F      		sbci r31,hi8(-(87))
 464 02fa 8081      		ld r24,Z
 465 02fc 9181      		ldd r25,Z+1
 466               	/* #APP */
 467               	 ;  105 "c:/winavr-20100110/lib/gcc/../../avr/include/util/delay_basic.h" 1
 468 02fe 0197      		1: sbiw r24,1
 469 0300 01F4      		brne 1b
 470               	 ;  0 "" 2
 471               	/* #NOAPP */
 472 0302 FE01      		movw r30,r28
 473 0304 E95A      		subi r30,lo8(-(87))
 474 0306 FF4F      		sbci r31,hi8(-(87))
 475 0308 9183      		std Z+1,r25
 476 030a 8083      		st Z,r24
 477               	.LBE59:
 478               	.LBE58:
 479               	.LM33:
 480 030c DE01      		movw r26,r28
 481 030e A75A      		subi r26,lo8(-(89))
 482 0310 BF4F      		sbci r27,hi8(-(89))
 483 0312 FE01      		movw r30,r28
 484 0314 E75A      		subi r30,lo8(-(89))
 485 0316 FF4F      		sbci r31,hi8(-(89))
 486 0318 8081      		ld r24,Z
 487 031a 9181      		ldd r25,Z+1
 488 031c 0197      		sbiw r24,1
 489 031e 1196      		adiw r26,1
 490 0320 9C93      		st X,r25
 491 0322 8E93      		st -X,r24
 492               	.L19:
 493               	.LM34:
 494 0324 FE01      		movw r30,r28
 495 0326 E75A      		subi r30,lo8(-(89))
 496 0328 FF4F      		sbci r31,hi8(-(89))
 497 032a 8081      		ld r24,Z
 498 032c 9181      		ldd r25,Z+1
 499 032e 0097      		sbiw r24,0
 500 0330 01F4      		brne .L20
 501 0332 00C0      		rjmp .L21
 502               	.L98:
 503               	.LM35:
 504 0334 8E01      		movw r16,r28
 505 0336 075A      		subi r16,lo8(-(89))
 506 0338 1F4F      		sbci r17,hi8(-(89))
 507 033a FE01      		movw r30,r28
 508 033c E55A      		subi r30,lo8(-(91))
 509 033e FF4F      		sbci r31,hi8(-(91))
 510 0340 6081      		ld r22,Z
 511 0342 7181      		ldd r23,Z+1
 512 0344 8281      		ldd r24,Z+2
 513 0346 9381      		ldd r25,Z+3
 514 0348 0E94 0000 		call __fixunssfsi
 515 034c DC01      		movw r26,r24
 516 034e CB01      		movw r24,r22
 517 0350 F801      		movw r30,r16
 518 0352 9183      		std Z+1,r25
 519 0354 8083      		st Z,r24
 520               	.L16:
 521 0356 DE01      		movw r26,r28
 522 0358 AB5A      		subi r26,lo8(-(85))
 523 035a BF4F      		sbci r27,hi8(-(85))
 524 035c FE01      		movw r30,r28
 525 035e E75A      		subi r30,lo8(-(89))
 526 0360 FF4F      		sbci r31,hi8(-(89))
 527 0362 8081      		ld r24,Z
 528 0364 9181      		ldd r25,Z+1
 529 0366 8D93      		st X+,r24
 530 0368 9C93      		st X,r25
 531               	.LBB60:
 532               	.LBB61:
 533               	.LM36:
 534 036a FE01      		movw r30,r28
 535 036c EB5A      		subi r30,lo8(-(85))
 536 036e FF4F      		sbci r31,hi8(-(85))
 537 0370 8081      		ld r24,Z
 538 0372 9181      		ldd r25,Z+1
 539               	/* #APP */
 540               	 ;  105 "c:/winavr-20100110/lib/gcc/../../avr/include/util/delay_basic.h" 1
 541 0374 0197      		1: sbiw r24,1
 542 0376 01F4      		brne 1b
 543               	 ;  0 "" 2
 544               	/* #NOAPP */
 545 0378 FE01      		movw r30,r28
 546 037a EB5A      		subi r30,lo8(-(85))
 547 037c FF4F      		sbci r31,hi8(-(85))
 548 037e 9183      		std Z+1,r25
 549 0380 8083      		st Z,r24
 550               	.L21:
 551               	.LBE61:
 552               	.LBE60:
 553               	.LBE57:
 554               	.LBE56:
 555               	.LM37:
 556 0382 EBE3      		ldi r30,lo8(59)
 557 0384 F0E0      		ldi r31,hi8(59)
 558 0386 84E5      		ldi r24,lo8(84)
 559 0388 8083      		st Z,r24
 560 038a FE01      		movw r30,r28
 561 038c EF5A      		subi r30,lo8(-(81))
 562 038e FF4F      		sbci r31,hi8(-(81))
 563 0390 80E0      		ldi r24,lo8(0x42c80000)
 564 0392 90E0      		ldi r25,hi8(0x42c80000)
 565 0394 A8EC      		ldi r26,hlo8(0x42c80000)
 566 0396 B2E4      		ldi r27,hhi8(0x42c80000)
 567 0398 8083      		st Z,r24
 568 039a 9183      		std Z+1,r25
 569 039c A283      		std Z+2,r26
 570 039e B383      		std Z+3,r27
 571               	.LBB62:
 572               	.LBB63:
 573               	.LM38:
 574 03a0 8E01      		movw r16,r28
 575 03a2 035B      		subi r16,lo8(-(77))
 576 03a4 1F4F      		sbci r17,hi8(-(77))
 577 03a6 FE01      		movw r30,r28
 578 03a8 EF5A      		subi r30,lo8(-(81))
 579 03aa FF4F      		sbci r31,hi8(-(81))
 580 03ac 6081      		ld r22,Z
 581 03ae 7181      		ldd r23,Z+1
 582 03b0 8281      		ldd r24,Z+2
 583 03b2 9381      		ldd r25,Z+3
 584 03b4 20E0      		ldi r18,lo8(0x44fa0000)
 585 03b6 30E0      		ldi r19,hi8(0x44fa0000)
 586 03b8 4AEF      		ldi r20,hlo8(0x44fa0000)
 587 03ba 54E4      		ldi r21,hhi8(0x44fa0000)
 588 03bc 0E94 0000 		call __mulsf3
 589 03c0 DC01      		movw r26,r24
 590 03c2 CB01      		movw r24,r22
 591 03c4 F801      		movw r30,r16
 592 03c6 8083      		st Z,r24
 593 03c8 9183      		std Z+1,r25
 594 03ca A283      		std Z+2,r26
 595 03cc B383      		std Z+3,r27
 596               	.LM39:
 597 03ce FE01      		movw r30,r28
 598 03d0 E35B      		subi r30,lo8(-(77))
 599 03d2 FF4F      		sbci r31,hi8(-(77))
 600 03d4 6081      		ld r22,Z
 601 03d6 7181      		ldd r23,Z+1
 602 03d8 8281      		ldd r24,Z+2
 603 03da 9381      		ldd r25,Z+3
 604 03dc 20E0      		ldi r18,lo8(0x3f800000)
 605 03de 30E0      		ldi r19,hi8(0x3f800000)
 606 03e0 40E8      		ldi r20,hlo8(0x3f800000)
 607 03e2 5FE3      		ldi r21,hhi8(0x3f800000)
 608 03e4 0E94 0000 		call __ltsf2
 609 03e8 8823      		tst r24
 610 03ea 04F4      		brge .L99
 611               	.L83:
 612               	.LM40:
 613 03ec FE01      		movw r30,r28
 614 03ee E55B      		subi r30,lo8(-(75))
 615 03f0 FF4F      		sbci r31,hi8(-(75))
 616 03f2 81E0      		ldi r24,lo8(1)
 617 03f4 90E0      		ldi r25,hi8(1)
 618 03f6 9183      		std Z+1,r25
 619 03f8 8083      		st Z,r24
 620 03fa 00C0      		rjmp .L24
 621               	.L99:
 622               	.LM41:
 623 03fc FE01      		movw r30,r28
 624 03fe E35B      		subi r30,lo8(-(77))
 625 0400 FF4F      		sbci r31,hi8(-(77))
 626 0402 6081      		ld r22,Z
 627 0404 7181      		ldd r23,Z+1
 628 0406 8281      		ldd r24,Z+2
 629 0408 9381      		ldd r25,Z+3
 630 040a 20E0      		ldi r18,lo8(0x477fff00)
 631 040c 3FEF      		ldi r19,hi8(0x477fff00)
 632 040e 4FE7      		ldi r20,hlo8(0x477fff00)
 633 0410 57E4      		ldi r21,hhi8(0x477fff00)
 634 0412 0E94 0000 		call __gtsf2
 635 0416 1816      		cp __zero_reg__,r24
 636 0418 04F0      		brlt .+2
 637 041a 00C0      		rjmp .L100
 638               	.L84:
 639               	.LM42:
 640 041c FE01      		movw r30,r28
 641 041e EF5A      		subi r30,lo8(-(81))
 642 0420 FF4F      		sbci r31,hi8(-(81))
 643 0422 6081      		ld r22,Z
 644 0424 7181      		ldd r23,Z+1
 645 0426 8281      		ldd r24,Z+2
 646 0428 9381      		ldd r25,Z+3
 647 042a 20E0      		ldi r18,lo8(0x41200000)
 648 042c 30E0      		ldi r19,hi8(0x41200000)
 649 042e 40E2      		ldi r20,hlo8(0x41200000)
 650 0430 51E4      		ldi r21,hhi8(0x41200000)
 651 0432 0E94 0000 		call __mulsf3
 652 0436 DC01      		movw r26,r24
 653 0438 CB01      		movw r24,r22
 654 043a 8E01      		movw r16,r28
 655 043c 055B      		subi r16,lo8(-(75))
 656 043e 1F4F      		sbci r17,hi8(-(75))
 657 0440 BC01      		movw r22,r24
 658 0442 CD01      		movw r24,r26
 659 0444 0E94 0000 		call __fixunssfsi
 660 0448 DC01      		movw r26,r24
 661 044a CB01      		movw r24,r22
 662 044c F801      		movw r30,r16
 663 044e 9183      		std Z+1,r25
 664 0450 8083      		st Z,r24
 665 0452 00C0      		rjmp .L27
 666               	.L28:
 667 0454 FE01      		movw r30,r28
 668 0456 E75B      		subi r30,lo8(-(73))
 669 0458 FF4F      		sbci r31,hi8(-(73))
 670 045a 88EC      		ldi r24,lo8(200)
 671 045c 90E0      		ldi r25,hi8(200)
 672 045e 9183      		std Z+1,r25
 673 0460 8083      		st Z,r24
 674               	.LBB64:
 675               	.LBB65:
 676               	.LM43:
 677 0462 FE01      		movw r30,r28
 678 0464 E75B      		subi r30,lo8(-(73))
 679 0466 FF4F      		sbci r31,hi8(-(73))
 680 0468 8081      		ld r24,Z
 681 046a 9181      		ldd r25,Z+1
 682               	/* #APP */
 683               	 ;  105 "c:/winavr-20100110/lib/gcc/../../avr/include/util/delay_basic.h" 1
 684 046c 0197      		1: sbiw r24,1
 685 046e 01F4      		brne 1b
 686               	 ;  0 "" 2
 687               	/* #NOAPP */
 688 0470 FE01      		movw r30,r28
 689 0472 E75B      		subi r30,lo8(-(73))
 690 0474 FF4F      		sbci r31,hi8(-(73))
 691 0476 9183      		std Z+1,r25
 692 0478 8083      		st Z,r24
 693               	.LBE65:
 694               	.LBE64:
 695               	.LM44:
 696 047a DE01      		movw r26,r28
 697 047c A55B      		subi r26,lo8(-(75))
 698 047e BF4F      		sbci r27,hi8(-(75))
 699 0480 FE01      		movw r30,r28
 700 0482 E55B      		subi r30,lo8(-(75))
 701 0484 FF4F      		sbci r31,hi8(-(75))
 702 0486 8081      		ld r24,Z
 703 0488 9181      		ldd r25,Z+1
 704 048a 0197      		sbiw r24,1
 705 048c 1196      		adiw r26,1
 706 048e 9C93      		st X,r25
 707 0490 8E93      		st -X,r24
 708               	.L27:
 709               	.LM45:
 710 0492 FE01      		movw r30,r28
 711 0494 E55B      		subi r30,lo8(-(75))
 712 0496 FF4F      		sbci r31,hi8(-(75))
 713 0498 8081      		ld r24,Z
 714 049a 9181      		ldd r25,Z+1
 715 049c 0097      		sbiw r24,0
 716 049e 01F4      		brne .L28
 717 04a0 00C0      		rjmp .L29
 718               	.L100:
 719               	.LM46:
 720 04a2 8E01      		movw r16,r28
 721 04a4 055B      		subi r16,lo8(-(75))
 722 04a6 1F4F      		sbci r17,hi8(-(75))
 723 04a8 FE01      		movw r30,r28
 724 04aa E35B      		subi r30,lo8(-(77))
 725 04ac FF4F      		sbci r31,hi8(-(77))
 726 04ae 6081      		ld r22,Z
 727 04b0 7181      		ldd r23,Z+1
 728 04b2 8281      		ldd r24,Z+2
 729 04b4 9381      		ldd r25,Z+3
 730 04b6 0E94 0000 		call __fixunssfsi
 731 04ba DC01      		movw r26,r24
 732 04bc CB01      		movw r24,r22
 733 04be F801      		movw r30,r16
 734 04c0 9183      		std Z+1,r25
 735 04c2 8083      		st Z,r24
 736               	.L24:
 737 04c4 DE01      		movw r26,r28
 738 04c6 A95B      		subi r26,lo8(-(71))
 739 04c8 BF4F      		sbci r27,hi8(-(71))
 740 04ca FE01      		movw r30,r28
 741 04cc E55B      		subi r30,lo8(-(75))
 742 04ce FF4F      		sbci r31,hi8(-(75))
 743 04d0 8081      		ld r24,Z
 744 04d2 9181      		ldd r25,Z+1
 745 04d4 8D93      		st X+,r24
 746 04d6 9C93      		st X,r25
 747               	.LBB66:
 748               	.LBB67:
 749               	.LM47:
 750 04d8 FE01      		movw r30,r28
 751 04da E95B      		subi r30,lo8(-(71))
 752 04dc FF4F      		sbci r31,hi8(-(71))
 753 04de 8081      		ld r24,Z
 754 04e0 9181      		ldd r25,Z+1
 755               	/* #APP */
 756               	 ;  105 "c:/winavr-20100110/lib/gcc/../../avr/include/util/delay_basic.h" 1
 757 04e2 0197      		1: sbiw r24,1
 758 04e4 01F4      		brne 1b
 759               	 ;  0 "" 2
 760               	/* #NOAPP */
 761 04e6 FE01      		movw r30,r28
 762 04e8 E95B      		subi r30,lo8(-(71))
 763 04ea FF4F      		sbci r31,hi8(-(71))
 764 04ec 9183      		std Z+1,r25
 765 04ee 8083      		st Z,r24
 766               	.L29:
 767               	.LBE67:
 768               	.LBE66:
 769               	.LBE63:
 770               	.LBE62:
 771               	.LM48:
 772 04f0 A2E3      		ldi r26,lo8(50)
 773 04f2 B0E0      		ldi r27,hi8(50)
 774 04f4 E2E3      		ldi r30,lo8(50)
 775 04f6 F0E0      		ldi r31,hi8(50)
 776 04f8 8081      		ld r24,Z
 777 04fa 8F7E      		andi r24,lo8(-17)
 778 04fc 8C93      		st X,r24
 779 04fe FE01      		movw r30,r28
 780 0500 ED5B      		subi r30,lo8(-(67))
 781 0502 FF4F      		sbci r31,hi8(-(67))
 782 0504 80E0      		ldi r24,lo8(0x447a0000)
 783 0506 90E0      		ldi r25,hi8(0x447a0000)
 784 0508 AAE7      		ldi r26,hlo8(0x447a0000)
 785 050a B4E4      		ldi r27,hhi8(0x447a0000)
 786 050c 8083      		st Z,r24
 787 050e 9183      		std Z+1,r25
 788 0510 A283      		std Z+2,r26
 789 0512 B383      		std Z+3,r27
 790               	.LBB68:
 791               	.LBB69:
 792               	.LM49:
 793 0514 8E01      		movw r16,r28
 794 0516 015C      		subi r16,lo8(-(63))
 795 0518 1F4F      		sbci r17,hi8(-(63))
 796 051a FE01      		movw r30,r28
 797 051c ED5B      		subi r30,lo8(-(67))
 798 051e FF4F      		sbci r31,hi8(-(67))
 799 0520 6081      		ld r22,Z
 800 0522 7181      		ldd r23,Z+1
 801 0524 8281      		ldd r24,Z+2
 802 0526 9381      		ldd r25,Z+3
 803 0528 20E0      		ldi r18,lo8(0x44fa0000)
 804 052a 30E0      		ldi r19,hi8(0x44fa0000)
 805 052c 4AEF      		ldi r20,hlo8(0x44fa0000)
 806 052e 54E4      		ldi r21,hhi8(0x44fa0000)
 807 0530 0E94 0000 		call __mulsf3
 808 0534 DC01      		movw r26,r24
 809 0536 CB01      		movw r24,r22
 810 0538 F801      		movw r30,r16
 811 053a 8083      		st Z,r24
 812 053c 9183      		std Z+1,r25
 813 053e A283      		std Z+2,r26
 814 0540 B383      		std Z+3,r27
 815               	.LM50:
 816 0542 FE01      		movw r30,r28
 817 0544 FF96      		adiw r30,63
 818 0546 6081      		ld r22,Z
 819 0548 7181      		ldd r23,Z+1
 820 054a 8281      		ldd r24,Z+2
 821 054c 9381      		ldd r25,Z+3
 822 054e 20E0      		ldi r18,lo8(0x3f800000)
 823 0550 30E0      		ldi r19,hi8(0x3f800000)
 824 0552 40E8      		ldi r20,hlo8(0x3f800000)
 825 0554 5FE3      		ldi r21,hhi8(0x3f800000)
 826 0556 0E94 0000 		call __ltsf2
 827 055a 8823      		tst r24
 828 055c 04F4      		brge .L101
 829               	.L85:
 830               	.LM51:
 831 055e 81E0      		ldi r24,lo8(1)
 832 0560 90E0      		ldi r25,hi8(1)
 833 0562 9EAF      		std Y+62,r25
 834 0564 8DAF      		std Y+61,r24
 835 0566 00C0      		rjmp .L32
 836               	.L101:
 837               	.LM52:
 838 0568 FE01      		movw r30,r28
 839 056a FF96      		adiw r30,63
 840 056c 6081      		ld r22,Z
 841 056e 7181      		ldd r23,Z+1
 842 0570 8281      		ldd r24,Z+2
 843 0572 9381      		ldd r25,Z+3
 844 0574 20E0      		ldi r18,lo8(0x477fff00)
 845 0576 3FEF      		ldi r19,hi8(0x477fff00)
 846 0578 4FE7      		ldi r20,hlo8(0x477fff00)
 847 057a 57E4      		ldi r21,hhi8(0x477fff00)
 848 057c 0E94 0000 		call __gtsf2
 849 0580 1816      		cp __zero_reg__,r24
 850 0582 04F4      		brge .L102
 851               	.L86:
 852               	.LM53:
 853 0584 FE01      		movw r30,r28
 854 0586 ED5B      		subi r30,lo8(-(67))
 855 0588 FF4F      		sbci r31,hi8(-(67))
 856 058a 6081      		ld r22,Z
 857 058c 7181      		ldd r23,Z+1
 858 058e 8281      		ldd r24,Z+2
 859 0590 9381      		ldd r25,Z+3
 860 0592 20E0      		ldi r18,lo8(0x41200000)
 861 0594 30E0      		ldi r19,hi8(0x41200000)
 862 0596 40E2      		ldi r20,hlo8(0x41200000)
 863 0598 51E4      		ldi r21,hhi8(0x41200000)
 864 059a 0E94 0000 		call __mulsf3
 865 059e DC01      		movw r26,r24
 866 05a0 CB01      		movw r24,r22
 867 05a2 BC01      		movw r22,r24
 868 05a4 CD01      		movw r24,r26
 869 05a6 0E94 0000 		call __fixunssfsi
 870 05aa DC01      		movw r26,r24
 871 05ac CB01      		movw r24,r22
 872 05ae 9EAF      		std Y+62,r25
 873 05b0 8DAF      		std Y+61,r24
 874 05b2 00C0      		rjmp .L35
 875               	.L36:
 876 05b4 88EC      		ldi r24,lo8(200)
 877 05b6 90E0      		ldi r25,hi8(200)
 878 05b8 9CAF      		std Y+60,r25
 879 05ba 8BAF      		std Y+59,r24
 880               	.LBB70:
 881               	.LBB71:
 882               	.LM54:
 883 05bc 8BAD      		ldd r24,Y+59
 884 05be 9CAD      		ldd r25,Y+60
 885               	/* #APP */
 886               	 ;  105 "c:/winavr-20100110/lib/gcc/../../avr/include/util/delay_basic.h" 1
 887 05c0 0197      		1: sbiw r24,1
 888 05c2 01F4      		brne 1b
 889               	 ;  0 "" 2
 890               	/* #NOAPP */
 891 05c4 9CAF      		std Y+60,r25
 892 05c6 8BAF      		std Y+59,r24
 893               	.LBE71:
 894               	.LBE70:
 895               	.LM55:
 896 05c8 8DAD      		ldd r24,Y+61
 897 05ca 9EAD      		ldd r25,Y+62
 898 05cc 0197      		sbiw r24,1
 899 05ce 9EAF      		std Y+62,r25
 900 05d0 8DAF      		std Y+61,r24
 901               	.L35:
 902               	.LM56:
 903 05d2 8DAD      		ldd r24,Y+61
 904 05d4 9EAD      		ldd r25,Y+62
 905 05d6 0097      		sbiw r24,0
 906 05d8 01F4      		brne .L36
 907 05da 00C0      		rjmp .L37
 908               	.L102:
 909               	.LM57:
 910 05dc FE01      		movw r30,r28
 911 05de FF96      		adiw r30,63
 912 05e0 6081      		ld r22,Z
 913 05e2 7181      		ldd r23,Z+1
 914 05e4 8281      		ldd r24,Z+2
 915 05e6 9381      		ldd r25,Z+3
 916 05e8 0E94 0000 		call __fixunssfsi
 917 05ec DC01      		movw r26,r24
 918 05ee CB01      		movw r24,r22
 919 05f0 9EAF      		std Y+62,r25
 920 05f2 8DAF      		std Y+61,r24
 921               	.L32:
 922 05f4 8DAD      		ldd r24,Y+61
 923 05f6 9EAD      		ldd r25,Y+62
 924 05f8 9AAF      		std Y+58,r25
 925 05fa 89AF      		std Y+57,r24
 926               	.LBB72:
 927               	.LBB73:
 928               	.LM58:
 929 05fc 89AD      		ldd r24,Y+57
 930 05fe 9AAD      		ldd r25,Y+58
 931               	/* #APP */
 932               	 ;  105 "c:/winavr-20100110/lib/gcc/../../avr/include/util/delay_basic.h" 1
 933 0600 0197      		1: sbiw r24,1
 934 0602 01F4      		brne 1b
 935               	 ;  0 "" 2
 936               	/* #NOAPP */
 937 0604 9AAF      		std Y+58,r25
 938 0606 89AF      		std Y+57,r24
 939               	.L37:
 940               	.LBE73:
 941               	.LBE72:
 942               	.LBE69:
 943               	.LBE68:
 944               	.LM59:
 945 0608 A2E3      		ldi r26,lo8(50)
 946 060a B0E0      		ldi r27,hi8(50)
 947 060c E2E3      		ldi r30,lo8(50)
 948 060e F0E0      		ldi r31,hi8(50)
 949 0610 8081      		ld r24,Z
 950 0612 8061      		ori r24,lo8(16)
 951 0614 8C93      		st X,r24
 952               	.LM60:
 953 0616 EBE3      		ldi r30,lo8(59)
 954 0618 F0E0      		ldi r31,hi8(59)
 955 061a 8CE5      		ldi r24,lo8(92)
 956 061c 8083      		st Z,r24
 957 061e 80E0      		ldi r24,lo8(0x43fa0000)
 958 0620 90E0      		ldi r25,hi8(0x43fa0000)
 959 0622 AAEF      		ldi r26,hlo8(0x43fa0000)
 960 0624 B3E4      		ldi r27,hhi8(0x43fa0000)
 961 0626 8DAB      		std Y+53,r24
 962 0628 9EAB      		std Y+54,r25
 963 062a AFAB      		std Y+55,r26
 964 062c B8AF      		std Y+56,r27
 965               	.LBB74:
 966               	.LBB75:
 967               	.LM61:
 968 062e 6DA9      		ldd r22,Y+53
 969 0630 7EA9      		ldd r23,Y+54
 970 0632 8FA9      		ldd r24,Y+55
 971 0634 98AD      		ldd r25,Y+56
 972 0636 20E0      		ldi r18,lo8(0x44fa0000)
 973 0638 30E0      		ldi r19,hi8(0x44fa0000)
 974 063a 4AEF      		ldi r20,hlo8(0x44fa0000)
 975 063c 54E4      		ldi r21,hhi8(0x44fa0000)
 976 063e 0E94 0000 		call __mulsf3
 977 0642 DC01      		movw r26,r24
 978 0644 CB01      		movw r24,r22
 979 0646 89AB      		std Y+49,r24
 980 0648 9AAB      		std Y+50,r25
 981 064a ABAB      		std Y+51,r26
 982 064c BCAB      		std Y+52,r27
 983               	.LM62:
 984 064e 69A9      		ldd r22,Y+49
 985 0650 7AA9      		ldd r23,Y+50
 986 0652 8BA9      		ldd r24,Y+51
 987 0654 9CA9      		ldd r25,Y+52
 988 0656 20E0      		ldi r18,lo8(0x3f800000)
 989 0658 30E0      		ldi r19,hi8(0x3f800000)
 990 065a 40E8      		ldi r20,hlo8(0x3f800000)
 991 065c 5FE3      		ldi r21,hhi8(0x3f800000)
 992 065e 0E94 0000 		call __ltsf2
 993 0662 8823      		tst r24
 994 0664 04F4      		brge .L103
 995               	.L87:
 996               	.LM63:
 997 0666 81E0      		ldi r24,lo8(1)
 998 0668 90E0      		ldi r25,hi8(1)
 999 066a 98AB      		std Y+48,r25
 1000 066c 8FA7      		std Y+47,r24
 1001 066e 00C0      		rjmp .L40
 1002               	.L103:
 1003               	.LM64:
 1004 0670 69A9      		ldd r22,Y+49
 1005 0672 7AA9      		ldd r23,Y+50
 1006 0674 8BA9      		ldd r24,Y+51
 1007 0676 9CA9      		ldd r25,Y+52
 1008 0678 20E0      		ldi r18,lo8(0x477fff00)
 1009 067a 3FEF      		ldi r19,hi8(0x477fff00)
 1010 067c 4FE7      		ldi r20,hlo8(0x477fff00)
 1011 067e 57E4      		ldi r21,hhi8(0x477fff00)
 1012 0680 0E94 0000 		call __gtsf2
 1013 0684 1816      		cp __zero_reg__,r24
 1014 0686 04F4      		brge .L104
 1015               	.L88:
 1016               	.LM65:
 1017 0688 6DA9      		ldd r22,Y+53
 1018 068a 7EA9      		ldd r23,Y+54
 1019 068c 8FA9      		ldd r24,Y+55
 1020 068e 98AD      		ldd r25,Y+56
 1021 0690 20E0      		ldi r18,lo8(0x41200000)
 1022 0692 30E0      		ldi r19,hi8(0x41200000)
 1023 0694 40E2      		ldi r20,hlo8(0x41200000)
 1024 0696 51E4      		ldi r21,hhi8(0x41200000)
 1025 0698 0E94 0000 		call __mulsf3
 1026 069c DC01      		movw r26,r24
 1027 069e CB01      		movw r24,r22
 1028 06a0 BC01      		movw r22,r24
 1029 06a2 CD01      		movw r24,r26
 1030 06a4 0E94 0000 		call __fixunssfsi
 1031 06a8 DC01      		movw r26,r24
 1032 06aa CB01      		movw r24,r22
 1033 06ac 98AB      		std Y+48,r25
 1034 06ae 8FA7      		std Y+47,r24
 1035 06b0 00C0      		rjmp .L43
 1036               	.L44:
 1037 06b2 88EC      		ldi r24,lo8(200)
 1038 06b4 90E0      		ldi r25,hi8(200)
 1039 06b6 9EA7      		std Y+46,r25
 1040 06b8 8DA7      		std Y+45,r24
 1041               	.LBB76:
 1042               	.LBB77:
 1043               	.LM66:
 1044 06ba 8DA5      		ldd r24,Y+45
 1045 06bc 9EA5      		ldd r25,Y+46
 1046               	/* #APP */
 1047               	 ;  105 "c:/winavr-20100110/lib/gcc/../../avr/include/util/delay_basic.h" 1
 1048 06be 0197      		1: sbiw r24,1
 1049 06c0 01F4      		brne 1b
 1050               	 ;  0 "" 2
 1051               	/* #NOAPP */
 1052 06c2 9EA7      		std Y+46,r25
 1053 06c4 8DA7      		std Y+45,r24
 1054               	.LBE77:
 1055               	.LBE76:
 1056               	.LM67:
 1057 06c6 8FA5      		ldd r24,Y+47
 1058 06c8 98A9      		ldd r25,Y+48
 1059 06ca 0197      		sbiw r24,1
 1060 06cc 98AB      		std Y+48,r25
 1061 06ce 8FA7      		std Y+47,r24
 1062               	.L43:
 1063               	.LM68:
 1064 06d0 8FA5      		ldd r24,Y+47
 1065 06d2 98A9      		ldd r25,Y+48
 1066 06d4 0097      		sbiw r24,0
 1067 06d6 01F4      		brne .L44
 1068 06d8 00C0      		rjmp .L45
 1069               	.L104:
 1070               	.LM69:
 1071 06da 69A9      		ldd r22,Y+49
 1072 06dc 7AA9      		ldd r23,Y+50
 1073 06de 8BA9      		ldd r24,Y+51
 1074 06e0 9CA9      		ldd r25,Y+52
 1075 06e2 0E94 0000 		call __fixunssfsi
 1076 06e6 DC01      		movw r26,r24
 1077 06e8 CB01      		movw r24,r22
 1078 06ea 98AB      		std Y+48,r25
 1079 06ec 8FA7      		std Y+47,r24
 1080               	.L40:
 1081 06ee 8FA5      		ldd r24,Y+47
 1082 06f0 98A9      		ldd r25,Y+48
 1083 06f2 9CA7      		std Y+44,r25
 1084 06f4 8BA7      		std Y+43,r24
 1085               	.LBB78:
 1086               	.LBB79:
 1087               	.LM70:
 1088 06f6 8BA5      		ldd r24,Y+43
 1089 06f8 9CA5      		ldd r25,Y+44
 1090               	/* #APP */
 1091               	 ;  105 "c:/winavr-20100110/lib/gcc/../../avr/include/util/delay_basic.h" 1
 1092 06fa 0197      		1: sbiw r24,1
 1093 06fc 01F4      		brne 1b
 1094               	 ;  0 "" 2
 1095               	/* #NOAPP */
 1096 06fe 9CA7      		std Y+44,r25
 1097 0700 8BA7      		std Y+43,r24
 1098               	.L45:
 1099               	.LBE79:
 1100               	.LBE78:
 1101               	.LBE75:
 1102               	.LBE74:
 1103               	.LM71:
 1104 0702 E2E3      		ldi r30,lo8(50)
 1105 0704 F0E0      		ldi r31,hi8(50)
 1106 0706 8AE1      		ldi r24,lo8(26)
 1107 0708 8083      		st Z,r24
 1108 070a 00C0      		rjmp .L46
 1109               	.L49:
 1110               	.LM72:
 1111 070c E6E3      		ldi r30,lo8(54)
 1112 070e F0E0      		ldi r31,hi8(54)
 1113 0710 8081      		ld r24,Z
 1114 0712 882F      		mov r24,r24
 1115 0714 90E0      		ldi r25,lo8(0)
 1116 0716 8271      		andi r24,lo8(18)
 1117 0718 9070      		andi r25,hi8(18)
 1118 071a 0097      		sbiw r24,0
 1119 071c 01F4      		brne .L47
 1120               	.LM73:
 1121 071e EBE3      		ldi r30,lo8(59)
 1122 0720 F0E0      		ldi r31,hi8(59)
 1123 0722 8CEF      		ldi r24,lo8(-4)
 1124 0724 8083      		st Z,r24
 1125 0726 00C0      		rjmp .L46
 1126               	.L47:
 1127               	.LM74:
 1128 0728 E6E3      		ldi r30,lo8(54)
 1129 072a F0E0      		ldi r31,hi8(54)
 1130 072c 8081      		ld r24,Z
 1131 072e 882F      		mov r24,r24
 1132 0730 90E0      		ldi r25,lo8(0)
 1133 0732 8071      		andi r24,lo8(16)
 1134 0734 9070      		andi r25,hi8(16)
 1135 0736 0097      		sbiw r24,0
 1136 0738 01F0      		breq .L48
 1137               	.LM75:
 1138 073a EBE3      		ldi r30,lo8(59)
 1139 073c F0E0      		ldi r31,hi8(59)
 1140 073e 8CEB      		ldi r24,lo8(-68)
 1141 0740 8083      		st Z,r24
 1142 0742 00C0      		rjmp .L46
 1143               	.L48:
 1144               	.LM76:
 1145 0744 EBE3      		ldi r30,lo8(59)
 1146 0746 F0E0      		ldi r31,hi8(59)
 1147 0748 8CEE      		ldi r24,lo8(-20)
 1148 074a 8083      		st Z,r24
 1149               	.L46:
 1150               	.LM77:
 1151 074c E0E3      		ldi r30,lo8(48)
 1152 074e F0E0      		ldi r31,hi8(48)
 1153 0750 8081      		ld r24,Z
 1154 0752 882F      		mov r24,r24
 1155 0754 90E0      		ldi r25,lo8(0)
 1156 0756 8270      		andi r24,lo8(2)
 1157 0758 9070      		andi r25,hi8(2)
 1158 075a 0097      		sbiw r24,0
 1159 075c 01F4      		brne .L49
 1160               	.LM78:
 1161 075e E2E3      		ldi r30,lo8(50)
 1162 0760 F0E0      		ldi r31,hi8(50)
 1163 0762 8AE1      		ldi r24,lo8(26)
 1164 0764 8083      		st Z,r24
 1165               	.LM79:
 1166 0766 EBE3      		ldi r30,lo8(59)
 1167 0768 F0E0      		ldi r31,hi8(59)
 1168 076a 84E5      		ldi r24,lo8(84)
 1169 076c 8083      		st Z,r24
 1170 076e 80E0      		ldi r24,lo8(0x43fa0000)
 1171 0770 90E0      		ldi r25,hi8(0x43fa0000)
 1172 0772 AAEF      		ldi r26,hlo8(0x43fa0000)
 1173 0774 B3E4      		ldi r27,hhi8(0x43fa0000)
 1174 0776 8FA3      		std Y+39,r24
 1175 0778 98A7      		std Y+40,r25
 1176 077a A9A7      		std Y+41,r26
 1177 077c BAA7      		std Y+42,r27
 1178               	.LBB80:
 1179               	.LBB81:
 1180               	.LM80:
 1181 077e 6FA1      		ldd r22,Y+39
 1182 0780 78A5      		ldd r23,Y+40
 1183 0782 89A5      		ldd r24,Y+41
 1184 0784 9AA5      		ldd r25,Y+42
 1185 0786 20E0      		ldi r18,lo8(0x44fa0000)
 1186 0788 30E0      		ldi r19,hi8(0x44fa0000)
 1187 078a 4AEF      		ldi r20,hlo8(0x44fa0000)
 1188 078c 54E4      		ldi r21,hhi8(0x44fa0000)
 1189 078e 0E94 0000 		call __mulsf3
 1190 0792 DC01      		movw r26,r24
 1191 0794 CB01      		movw r24,r22
 1192 0796 8BA3      		std Y+35,r24
 1193 0798 9CA3      		std Y+36,r25
 1194 079a ADA3      		std Y+37,r26
 1195 079c BEA3      		std Y+38,r27
 1196               	.LM81:
 1197 079e 6BA1      		ldd r22,Y+35
 1198 07a0 7CA1      		ldd r23,Y+36
 1199 07a2 8DA1      		ldd r24,Y+37
 1200 07a4 9EA1      		ldd r25,Y+38
 1201 07a6 20E0      		ldi r18,lo8(0x3f800000)
 1202 07a8 30E0      		ldi r19,hi8(0x3f800000)
 1203 07aa 40E8      		ldi r20,hlo8(0x3f800000)
 1204 07ac 5FE3      		ldi r21,hhi8(0x3f800000)
 1205 07ae 0E94 0000 		call __ltsf2
 1206 07b2 8823      		tst r24
 1207 07b4 04F4      		brge .L105
 1208               	.L89:
 1209               	.LM82:
 1210 07b6 81E0      		ldi r24,lo8(1)
 1211 07b8 90E0      		ldi r25,hi8(1)
 1212 07ba 9AA3      		std Y+34,r25
 1213 07bc 89A3      		std Y+33,r24
 1214 07be 00C0      		rjmp .L52
 1215               	.L105:
 1216               	.LM83:
 1217 07c0 6BA1      		ldd r22,Y+35
 1218 07c2 7CA1      		ldd r23,Y+36
 1219 07c4 8DA1      		ldd r24,Y+37
 1220 07c6 9EA1      		ldd r25,Y+38
 1221 07c8 20E0      		ldi r18,lo8(0x477fff00)
 1222 07ca 3FEF      		ldi r19,hi8(0x477fff00)
 1223 07cc 4FE7      		ldi r20,hlo8(0x477fff00)
 1224 07ce 57E4      		ldi r21,hhi8(0x477fff00)
 1225 07d0 0E94 0000 		call __gtsf2
 1226 07d4 1816      		cp __zero_reg__,r24
 1227 07d6 04F4      		brge .L106
 1228               	.L90:
 1229               	.LM84:
 1230 07d8 6FA1      		ldd r22,Y+39
 1231 07da 78A5      		ldd r23,Y+40
 1232 07dc 89A5      		ldd r24,Y+41
 1233 07de 9AA5      		ldd r25,Y+42
 1234 07e0 20E0      		ldi r18,lo8(0x41200000)
 1235 07e2 30E0      		ldi r19,hi8(0x41200000)
 1236 07e4 40E2      		ldi r20,hlo8(0x41200000)
 1237 07e6 51E4      		ldi r21,hhi8(0x41200000)
 1238 07e8 0E94 0000 		call __mulsf3
 1239 07ec DC01      		movw r26,r24
 1240 07ee CB01      		movw r24,r22
 1241 07f0 BC01      		movw r22,r24
 1242 07f2 CD01      		movw r24,r26
 1243 07f4 0E94 0000 		call __fixunssfsi
 1244 07f8 DC01      		movw r26,r24
 1245 07fa CB01      		movw r24,r22
 1246 07fc 9AA3      		std Y+34,r25
 1247 07fe 89A3      		std Y+33,r24
 1248 0800 00C0      		rjmp .L55
 1249               	.L56:
 1250 0802 88EC      		ldi r24,lo8(200)
 1251 0804 90E0      		ldi r25,hi8(200)
 1252 0806 98A3      		std Y+32,r25
 1253 0808 8F8F      		std Y+31,r24
 1254               	.LBB82:
 1255               	.LBB83:
 1256               	.LM85:
 1257 080a 8F8D      		ldd r24,Y+31
 1258 080c 98A1      		ldd r25,Y+32
 1259               	/* #APP */
 1260               	 ;  105 "c:/winavr-20100110/lib/gcc/../../avr/include/util/delay_basic.h" 1
 1261 080e 0197      		1: sbiw r24,1
 1262 0810 01F4      		brne 1b
 1263               	 ;  0 "" 2
 1264               	/* #NOAPP */
 1265 0812 98A3      		std Y+32,r25
 1266 0814 8F8F      		std Y+31,r24
 1267               	.LBE83:
 1268               	.LBE82:
 1269               	.LM86:
 1270 0816 89A1      		ldd r24,Y+33
 1271 0818 9AA1      		ldd r25,Y+34
 1272 081a 0197      		sbiw r24,1
 1273 081c 9AA3      		std Y+34,r25
 1274 081e 89A3      		std Y+33,r24
 1275               	.L55:
 1276               	.LM87:
 1277 0820 89A1      		ldd r24,Y+33
 1278 0822 9AA1      		ldd r25,Y+34
 1279 0824 0097      		sbiw r24,0
 1280 0826 01F4      		brne .L56
 1281 0828 00C0      		rjmp .L57
 1282               	.L106:
 1283               	.LM88:
 1284 082a 6BA1      		ldd r22,Y+35
 1285 082c 7CA1      		ldd r23,Y+36
 1286 082e 8DA1      		ldd r24,Y+37
 1287 0830 9EA1      		ldd r25,Y+38
 1288 0832 0E94 0000 		call __fixunssfsi
 1289 0836 DC01      		movw r26,r24
 1290 0838 CB01      		movw r24,r22
 1291 083a 9AA3      		std Y+34,r25
 1292 083c 89A3      		std Y+33,r24
 1293               	.L52:
 1294 083e 89A1      		ldd r24,Y+33
 1295 0840 9AA1      		ldd r25,Y+34
 1296 0842 9E8F      		std Y+30,r25
 1297 0844 8D8F      		std Y+29,r24
 1298               	.LBB84:
 1299               	.LBB85:
 1300               	.LM89:
 1301 0846 8D8D      		ldd r24,Y+29
 1302 0848 9E8D      		ldd r25,Y+30
 1303               	/* #APP */
 1304               	 ;  105 "c:/winavr-20100110/lib/gcc/../../avr/include/util/delay_basic.h" 1
 1305 084a 0197      		1: sbiw r24,1
 1306 084c 01F4      		brne 1b
 1307               	 ;  0 "" 2
 1308               	/* #NOAPP */
 1309 084e 9E8F      		std Y+30,r25
 1310 0850 8D8F      		std Y+29,r24
 1311               	.L57:
 1312               	.LBE85:
 1313               	.LBE84:
 1314               	.LBE81:
 1315               	.LBE80:
 1316               	.LM90:
 1317 0852 A2E3      		ldi r26,lo8(50)
 1318 0854 B0E0      		ldi r27,hi8(50)
 1319 0856 E2E3      		ldi r30,lo8(50)
 1320 0858 F0E0      		ldi r31,hi8(50)
 1321 085a 8081      		ld r24,Z
 1322 085c 8F7E      		andi r24,lo8(-17)
 1323 085e 8C93      		st X,r24
 1324 0860 80E0      		ldi r24,lo8(0x447a0000)
 1325 0862 90E0      		ldi r25,hi8(0x447a0000)
 1326 0864 AAE7      		ldi r26,hlo8(0x447a0000)
 1327 0866 B4E4      		ldi r27,hhi8(0x447a0000)
 1328 0868 898F      		std Y+25,r24
 1329 086a 9A8F      		std Y+26,r25
 1330 086c AB8F      		std Y+27,r26
 1331 086e BC8F      		std Y+28,r27
 1332               	.LBB86:
 1333               	.LBB87:
 1334               	.LM91:
 1335 0870 698D      		ldd r22,Y+25
 1336 0872 7A8D      		ldd r23,Y+26
 1337 0874 8B8D      		ldd r24,Y+27
 1338 0876 9C8D      		ldd r25,Y+28
 1339 0878 20E0      		ldi r18,lo8(0x44fa0000)
 1340 087a 30E0      		ldi r19,hi8(0x44fa0000)
 1341 087c 4AEF      		ldi r20,hlo8(0x44fa0000)
 1342 087e 54E4      		ldi r21,hhi8(0x44fa0000)
 1343 0880 0E94 0000 		call __mulsf3
 1344 0884 DC01      		movw r26,r24
 1345 0886 CB01      		movw r24,r22
 1346 0888 8D8B      		std Y+21,r24
 1347 088a 9E8B      		std Y+22,r25
 1348 088c AF8B      		std Y+23,r26
 1349 088e B88F      		std Y+24,r27
 1350               	.LM92:
 1351 0890 6D89      		ldd r22,Y+21
 1352 0892 7E89      		ldd r23,Y+22
 1353 0894 8F89      		ldd r24,Y+23
 1354 0896 988D      		ldd r25,Y+24
 1355 0898 20E0      		ldi r18,lo8(0x3f800000)
 1356 089a 30E0      		ldi r19,hi8(0x3f800000)
 1357 089c 40E8      		ldi r20,hlo8(0x3f800000)
 1358 089e 5FE3      		ldi r21,hhi8(0x3f800000)
 1359 08a0 0E94 0000 		call __ltsf2
 1360 08a4 8823      		tst r24
 1361 08a6 04F4      		brge .L107
 1362               	.L91:
 1363               	.LM93:
 1364 08a8 81E0      		ldi r24,lo8(1)
 1365 08aa 90E0      		ldi r25,hi8(1)
 1366 08ac 9C8B      		std Y+20,r25
 1367 08ae 8B8B      		std Y+19,r24
 1368 08b0 00C0      		rjmp .L60
 1369               	.L107:
 1370               	.LM94:
 1371 08b2 6D89      		ldd r22,Y+21
 1372 08b4 7E89      		ldd r23,Y+22
 1373 08b6 8F89      		ldd r24,Y+23
 1374 08b8 988D      		ldd r25,Y+24
 1375 08ba 20E0      		ldi r18,lo8(0x477fff00)
 1376 08bc 3FEF      		ldi r19,hi8(0x477fff00)
 1377 08be 4FE7      		ldi r20,hlo8(0x477fff00)
 1378 08c0 57E4      		ldi r21,hhi8(0x477fff00)
 1379 08c2 0E94 0000 		call __gtsf2
 1380 08c6 1816      		cp __zero_reg__,r24
 1381 08c8 04F4      		brge .L108
 1382               	.L92:
 1383               	.LM95:
 1384 08ca 698D      		ldd r22,Y+25
 1385 08cc 7A8D      		ldd r23,Y+26
 1386 08ce 8B8D      		ldd r24,Y+27
 1387 08d0 9C8D      		ldd r25,Y+28
 1388 08d2 20E0      		ldi r18,lo8(0x41200000)
 1389 08d4 30E0      		ldi r19,hi8(0x41200000)
 1390 08d6 40E2      		ldi r20,hlo8(0x41200000)
 1391 08d8 51E4      		ldi r21,hhi8(0x41200000)
 1392 08da 0E94 0000 		call __mulsf3
 1393 08de DC01      		movw r26,r24
 1394 08e0 CB01      		movw r24,r22
 1395 08e2 BC01      		movw r22,r24
 1396 08e4 CD01      		movw r24,r26
 1397 08e6 0E94 0000 		call __fixunssfsi
 1398 08ea DC01      		movw r26,r24
 1399 08ec CB01      		movw r24,r22
 1400 08ee 9C8B      		std Y+20,r25
 1401 08f0 8B8B      		std Y+19,r24
 1402 08f2 00C0      		rjmp .L63
 1403               	.L64:
 1404 08f4 88EC      		ldi r24,lo8(200)
 1405 08f6 90E0      		ldi r25,hi8(200)
 1406 08f8 9A8B      		std Y+18,r25
 1407 08fa 898B      		std Y+17,r24
 1408               	.LBB88:
 1409               	.LBB89:
 1410               	.LM96:
 1411 08fc 8989      		ldd r24,Y+17
 1412 08fe 9A89      		ldd r25,Y+18
 1413               	/* #APP */
 1414               	 ;  105 "c:/winavr-20100110/lib/gcc/../../avr/include/util/delay_basic.h" 1
 1415 0900 0197      		1: sbiw r24,1
 1416 0902 01F4      		brne 1b
 1417               	 ;  0 "" 2
 1418               	/* #NOAPP */
 1419 0904 9A8B      		std Y+18,r25
 1420 0906 898B      		std Y+17,r24
 1421               	.LBE89:
 1422               	.LBE88:
 1423               	.LM97:
 1424 0908 8B89      		ldd r24,Y+19
 1425 090a 9C89      		ldd r25,Y+20
 1426 090c 0197      		sbiw r24,1
 1427 090e 9C8B      		std Y+20,r25
 1428 0910 8B8B      		std Y+19,r24
 1429               	.L63:
 1430               	.LM98:
 1431 0912 8B89      		ldd r24,Y+19
 1432 0914 9C89      		ldd r25,Y+20
 1433 0916 0097      		sbiw r24,0
 1434 0918 01F4      		brne .L64
 1435 091a 00C0      		rjmp .L65
 1436               	.L108:
 1437               	.LM99:
 1438 091c 6D89      		ldd r22,Y+21
 1439 091e 7E89      		ldd r23,Y+22
 1440 0920 8F89      		ldd r24,Y+23
 1441 0922 988D      		ldd r25,Y+24
 1442 0924 0E94 0000 		call __fixunssfsi
 1443 0928 DC01      		movw r26,r24
 1444 092a CB01      		movw r24,r22
 1445 092c 9C8B      		std Y+20,r25
 1446 092e 8B8B      		std Y+19,r24
 1447               	.L60:
 1448 0930 8B89      		ldd r24,Y+19
 1449 0932 9C89      		ldd r25,Y+20
 1450 0934 988B      		std Y+16,r25
 1451 0936 8F87      		std Y+15,r24
 1452               	.LBB90:
 1453               	.LBB91:
 1454               	.LM100:
 1455 0938 8F85      		ldd r24,Y+15
 1456 093a 9889      		ldd r25,Y+16
 1457               	/* #APP */
 1458               	 ;  105 "c:/winavr-20100110/lib/gcc/../../avr/include/util/delay_basic.h" 1
 1459 093c 0197      		1: sbiw r24,1
 1460 093e 01F4      		brne 1b
 1461               	 ;  0 "" 2
 1462               	/* #NOAPP */
 1463 0940 988B      		std Y+16,r25
 1464 0942 8F87      		std Y+15,r24
 1465               	.L65:
 1466               	.LBE91:
 1467               	.LBE90:
 1468               	.LBE87:
 1469               	.LBE86:
 1470               	.LM101:
 1471 0944 A2E3      		ldi r26,lo8(50)
 1472 0946 B0E0      		ldi r27,hi8(50)
 1473 0948 E2E3      		ldi r30,lo8(50)
 1474 094a F0E0      		ldi r31,hi8(50)
 1475 094c 8081      		ld r24,Z
 1476 094e 8061      		ori r24,lo8(16)
 1477 0950 8C93      		st X,r24
 1478               	.LM102:
 1479 0952 EBE3      		ldi r30,lo8(59)
 1480 0954 F0E0      		ldi r31,hi8(59)
 1481 0956 8CE5      		ldi r24,lo8(92)
 1482 0958 8083      		st Z,r24
 1483 095a 80E0      		ldi r24,lo8(0x43fa0000)
 1484 095c 90E0      		ldi r25,hi8(0x43fa0000)
 1485 095e AAEF      		ldi r26,hlo8(0x43fa0000)
 1486 0960 B3E4      		ldi r27,hhi8(0x43fa0000)
 1487 0962 8B87      		std Y+11,r24
 1488 0964 9C87      		std Y+12,r25
 1489 0966 AD87      		std Y+13,r26
 1490 0968 BE87      		std Y+14,r27
 1491               	.LBB92:
 1492               	.LBB93:
 1493               	.LM103:
 1494 096a 6B85      		ldd r22,Y+11
 1495 096c 7C85      		ldd r23,Y+12
 1496 096e 8D85      		ldd r24,Y+13
 1497 0970 9E85      		ldd r25,Y+14
 1498 0972 20E0      		ldi r18,lo8(0x44fa0000)
 1499 0974 30E0      		ldi r19,hi8(0x44fa0000)
 1500 0976 4AEF      		ldi r20,hlo8(0x44fa0000)
 1501 0978 54E4      		ldi r21,hhi8(0x44fa0000)
 1502 097a 0E94 0000 		call __mulsf3
 1503 097e DC01      		movw r26,r24
 1504 0980 CB01      		movw r24,r22
 1505 0982 8F83      		std Y+7,r24
 1506 0984 9887      		std Y+8,r25
 1507 0986 A987      		std Y+9,r26
 1508 0988 BA87      		std Y+10,r27
 1509               	.LM104:
 1510 098a 6F81      		ldd r22,Y+7
 1511 098c 7885      		ldd r23,Y+8
 1512 098e 8985      		ldd r24,Y+9
 1513 0990 9A85      		ldd r25,Y+10
 1514 0992 20E0      		ldi r18,lo8(0x3f800000)
 1515 0994 30E0      		ldi r19,hi8(0x3f800000)
 1516 0996 40E8      		ldi r20,hlo8(0x3f800000)
 1517 0998 5FE3      		ldi r21,hhi8(0x3f800000)
 1518 099a 0E94 0000 		call __ltsf2
 1519 099e 8823      		tst r24
 1520 09a0 04F4      		brge .L109
 1521               	.L93:
 1522               	.LM105:
 1523 09a2 81E0      		ldi r24,lo8(1)
 1524 09a4 90E0      		ldi r25,hi8(1)
 1525 09a6 9E83      		std Y+6,r25
 1526 09a8 8D83      		std Y+5,r24
 1527 09aa 00C0      		rjmp .L68
 1528               	.L109:
 1529               	.LM106:
 1530 09ac 6F81      		ldd r22,Y+7
 1531 09ae 7885      		ldd r23,Y+8
 1532 09b0 8985      		ldd r24,Y+9
 1533 09b2 9A85      		ldd r25,Y+10
 1534 09b4 20E0      		ldi r18,lo8(0x477fff00)
 1535 09b6 3FEF      		ldi r19,hi8(0x477fff00)
 1536 09b8 4FE7      		ldi r20,hlo8(0x477fff00)
 1537 09ba 57E4      		ldi r21,hhi8(0x477fff00)
 1538 09bc 0E94 0000 		call __gtsf2
 1539 09c0 1816      		cp __zero_reg__,r24
 1540 09c2 04F4      		brge .L110
 1541               	.L94:
 1542               	.LM107:
 1543 09c4 6B85      		ldd r22,Y+11
 1544 09c6 7C85      		ldd r23,Y+12
 1545 09c8 8D85      		ldd r24,Y+13
 1546 09ca 9E85      		ldd r25,Y+14
 1547 09cc 20E0      		ldi r18,lo8(0x41200000)
 1548 09ce 30E0      		ldi r19,hi8(0x41200000)
 1549 09d0 40E2      		ldi r20,hlo8(0x41200000)
 1550 09d2 51E4      		ldi r21,hhi8(0x41200000)
 1551 09d4 0E94 0000 		call __mulsf3
 1552 09d8 DC01      		movw r26,r24
 1553 09da CB01      		movw r24,r22
 1554 09dc BC01      		movw r22,r24
 1555 09de CD01      		movw r24,r26
 1556 09e0 0E94 0000 		call __fixunssfsi
 1557 09e4 DC01      		movw r26,r24
 1558 09e6 CB01      		movw r24,r22
 1559 09e8 9E83      		std Y+6,r25
 1560 09ea 8D83      		std Y+5,r24
 1561 09ec 00C0      		rjmp .L71
 1562               	.L72:
 1563 09ee 88EC      		ldi r24,lo8(200)
 1564 09f0 90E0      		ldi r25,hi8(200)
 1565 09f2 9C83      		std Y+4,r25
 1566 09f4 8B83      		std Y+3,r24
 1567               	.LBB94:
 1568               	.LBB95:
 1569               	.LM108:
 1570 09f6 8B81      		ldd r24,Y+3
 1571 09f8 9C81      		ldd r25,Y+4
 1572               	/* #APP */
 1573               	 ;  105 "c:/winavr-20100110/lib/gcc/../../avr/include/util/delay_basic.h" 1
 1574 09fa 0197      		1: sbiw r24,1
 1575 09fc 01F4      		brne 1b
 1576               	 ;  0 "" 2
 1577               	/* #NOAPP */
 1578 09fe 9C83      		std Y+4,r25
 1579 0a00 8B83      		std Y+3,r24
 1580               	.LBE95:
 1581               	.LBE94:
 1582               	.LM109:
 1583 0a02 8D81      		ldd r24,Y+5
 1584 0a04 9E81      		ldd r25,Y+6
 1585 0a06 0197      		sbiw r24,1
 1586 0a08 9E83      		std Y+6,r25
 1587 0a0a 8D83      		std Y+5,r24
 1588               	.L71:
 1589               	.LM110:
 1590 0a0c 8D81      		ldd r24,Y+5
 1591 0a0e 9E81      		ldd r25,Y+6
 1592 0a10 0097      		sbiw r24,0
 1593 0a12 01F4      		brne .L72
 1594 0a14 00C0      		rjmp .L73
 1595               	.L110:
 1596               	.LM111:
 1597 0a16 6F81      		ldd r22,Y+7
 1598 0a18 7885      		ldd r23,Y+8
 1599 0a1a 8985      		ldd r24,Y+9
 1600 0a1c 9A85      		ldd r25,Y+10
 1601 0a1e 0E94 0000 		call __fixunssfsi
 1602 0a22 DC01      		movw r26,r24
 1603 0a24 CB01      		movw r24,r22
 1604 0a26 9E83      		std Y+6,r25
 1605 0a28 8D83      		std Y+5,r24
 1606               	.L68:
 1607 0a2a 8D81      		ldd r24,Y+5
 1608 0a2c 9E81      		ldd r25,Y+6
 1609 0a2e 9A83      		std Y+2,r25
 1610 0a30 8983      		std Y+1,r24
 1611               	.LBB96:
 1612               	.LBB97:
 1613               	.LM112:
 1614 0a32 8981      		ldd r24,Y+1
 1615 0a34 9A81      		ldd r25,Y+2
 1616               	/* #APP */
 1617               	 ;  105 "c:/winavr-20100110/lib/gcc/../../avr/include/util/delay_basic.h" 1
 1618 0a36 0197      		1: sbiw r24,1
 1619 0a38 01F4      		brne 1b
 1620               	 ;  0 "" 2
 1621               	/* #NOAPP */
 1622 0a3a 9A83      		std Y+2,r25
 1623 0a3c 8983      		std Y+1,r24
 1624               	.L73:
 1625               	.LBE97:
 1626               	.LBE96:
 1627               	.LBE93:
 1628               	.LBE92:
 1629               	.LM113:
 1630 0a3e E2E3      		ldi r30,lo8(50)
 1631 0a40 F0E0      		ldi r31,hi8(50)
 1632 0a42 8AE1      		ldi r24,lo8(26)
 1633 0a44 8083      		st Z,r24
 1634 0a46 00C0      		rjmp .L74
 1635               	.L77:
 1636               	.LM114:
 1637 0a48 E6E3      		ldi r30,lo8(54)
 1638 0a4a F0E0      		ldi r31,hi8(54)
 1639 0a4c 8081      		ld r24,Z
 1640 0a4e 882F      		mov r24,r24
 1641 0a50 90E0      		ldi r25,lo8(0)
 1642 0a52 8271      		andi r24,lo8(18)
 1643 0a54 9070      		andi r25,hi8(18)
 1644 0a56 0097      		sbiw r24,0
 1645 0a58 01F4      		brne .L75
 1646               	.LM115:
 1647 0a5a EBE3      		ldi r30,lo8(59)
 1648 0a5c F0E0      		ldi r31,hi8(59)
 1649 0a5e 8CE0      		ldi r24,lo8(12)
 1650 0a60 8083      		st Z,r24
 1651 0a62 00C0      		rjmp .L74
 1652               	.L75:
 1653               	.LM116:
 1654 0a64 E6E3      		ldi r30,lo8(54)
 1655 0a66 F0E0      		ldi r31,hi8(54)
 1656 0a68 8081      		ld r24,Z
 1657 0a6a 882F      		mov r24,r24
 1658 0a6c 90E0      		ldi r25,lo8(0)
 1659 0a6e 8270      		andi r24,lo8(2)
 1660 0a70 9070      		andi r25,hi8(2)
 1661 0a72 0097      		sbiw r24,0
 1662 0a74 01F0      		breq .L76
 1663               	.LM117:
 1664 0a76 EBE3      		ldi r30,lo8(59)
 1665 0a78 F0E0      		ldi r31,hi8(59)
 1666 0a7a 8CE4      		ldi r24,lo8(76)
 1667 0a7c 8083      		st Z,r24
 1668 0a7e 00C0      		rjmp .L74
 1669               	.L76:
 1670               	.LM118:
 1671 0a80 EBE3      		ldi r30,lo8(59)
 1672 0a82 F0E0      		ldi r31,hi8(59)
 1673 0a84 8CE1      		ldi r24,lo8(28)
 1674 0a86 8083      		st Z,r24
 1675               	.L74:
 1676               	.LM119:
 1677 0a88 E0E3      		ldi r30,lo8(48)
 1678 0a8a F0E0      		ldi r31,hi8(48)
 1679 0a8c 8081      		ld r24,Z
 1680 0a8e 882F      		mov r24,r24
 1681 0a90 90E0      		ldi r25,lo8(0)
 1682 0a92 8870      		andi r24,lo8(8)
 1683 0a94 9070      		andi r25,hi8(8)
 1684 0a96 0097      		sbiw r24,0
 1685 0a98 01F4      		brne .L77
 1686               	.LM120:
 1687 0a9a EBE3      		ldi r30,lo8(59)
 1688 0a9c F0E0      		ldi r31,hi8(59)
 1689 0a9e 8CE5      		ldi r24,lo8(92)
 1690 0aa0 8083      		st Z,r24
 1691               	/* epilogue start */
 1692               	.LM121:
 1693 0aa2 C059      		subi r28,lo8(-(112))
 1694 0aa4 DF4F      		sbci r29,hi8(-(112))
 1695 0aa6 0FB6      		in __tmp_reg__,__SREG__
 1696 0aa8 F894      		cli
 1697 0aaa DEBF      		out __SP_H__,r29
 1698 0aac 0FBE      		out __SREG__,__tmp_reg__
 1699 0aae CDBF      		out __SP_L__,r28
 1700 0ab0 CF91      		pop r28
 1701 0ab2 DF91      		pop r29
 1702 0ab4 1F91      		pop r17
 1703 0ab6 0F91      		pop r16
 1704 0ab8 0895      		ret
 1705               	.LFE6:
 1731               	.Letext0:
DEFINED SYMBOLS
                            *ABS*:00000000 fullfinal.c
C:\Users\SOURABH\AppData\Local\Temp/ccjOg7DQ.s:2      *ABS*:0000003f __SREG__
C:\Users\SOURABH\AppData\Local\Temp/ccjOg7DQ.s:3      *ABS*:0000003e __SP_H__
C:\Users\SOURABH\AppData\Local\Temp/ccjOg7DQ.s:4      *ABS*:0000003d __SP_L__
C:\Users\SOURABH\AppData\Local\Temp/ccjOg7DQ.s:5      *ABS*:00000034 __CCP__
C:\Users\SOURABH\AppData\Local\Temp/ccjOg7DQ.s:6      *ABS*:00000000 __tmp_reg__
C:\Users\SOURABH\AppData\Local\Temp/ccjOg7DQ.s:7      *ABS*:00000001 __zero_reg__
C:\Users\SOURABH\AppData\Local\Temp/ccjOg7DQ.s:18     .text:00000000 main

UNDEFINED SYMBOLS
__mulsf3
__ltsf2
__gtsf2
__fixunssfsi
